
kernel:     file format elf32-i386


Disassembly of section .text:

80100000 <multiboot_header>:
80100000:	02 b0 ad 1b 00 00    	add    0x1bad(%eax),%dh
80100006:	00 00                	add    %al,(%eax)
80100008:	fe 4f 52             	decb   0x52(%edi)
8010000b:	e4                   	.byte 0xe4

8010000c <entry>:
8010000c:	0f 20 e0             	mov    %cr4,%eax
8010000f:	83 c8 10             	or     $0x10,%eax
80100012:	0f 22 e0             	mov    %eax,%cr4
80100015:	b8 00 b0 10 00       	mov    $0x10b000,%eax
8010001a:	0f 22 d8             	mov    %eax,%cr3
8010001d:	0f 20 c0             	mov    %cr0,%eax
80100020:	0d 00 00 01 80       	or     $0x80010000,%eax
80100025:	0f 22 c0             	mov    %eax,%cr0
80100028:	bc 50 d6 10 80       	mov    $0x8010d650,%esp
8010002d:	b8 a5 38 10 80       	mov    $0x801038a5,%eax
80100032:	ff e0                	jmp    *%eax

80100034 <binit>:
80100034:	55                   	push   %ebp
80100035:	89 e5                	mov    %esp,%ebp
80100037:	83 ec 18             	sub    $0x18,%esp
8010003a:	83 ec 08             	sub    $0x8,%esp
8010003d:	68 64 8d 10 80       	push   $0x80108d64
80100042:	68 60 d6 10 80       	push   $0x8010d660
80100047:	e8 0d 54 00 00       	call   80105459 <initlock>
8010004c:	83 c4 10             	add    $0x10,%esp
8010004f:	c7 05 ac 1d 11 80 5c 	movl   $0x80111d5c,0x80111dac
80100056:	1d 11 80 
80100059:	c7 05 b0 1d 11 80 5c 	movl   $0x80111d5c,0x80111db0
80100060:	1d 11 80 
80100063:	c7 45 f4 94 d6 10 80 	movl   $0x8010d694,-0xc(%ebp)
8010006a:	eb 47                	jmp    801000b3 <binit+0x7f>
8010006c:	8b 15 b0 1d 11 80    	mov    0x80111db0,%edx
80100072:	8b 45 f4             	mov    -0xc(%ebp),%eax
80100075:	89 50 54             	mov    %edx,0x54(%eax)
80100078:	8b 45 f4             	mov    -0xc(%ebp),%eax
8010007b:	c7 40 50 5c 1d 11 80 	movl   $0x80111d5c,0x50(%eax)
80100082:	8b 45 f4             	mov    -0xc(%ebp),%eax
80100085:	83 c0 0c             	add    $0xc,%eax
80100088:	83 ec 08             	sub    $0x8,%esp
8010008b:	68 6b 8d 10 80       	push   $0x80108d6b
80100090:	50                   	push   %eax
80100091:	e8 66 52 00 00       	call   801052fc <initsleeplock>
80100096:	83 c4 10             	add    $0x10,%esp
80100099:	a1 b0 1d 11 80       	mov    0x80111db0,%eax
8010009e:	8b 55 f4             	mov    -0xc(%ebp),%edx
801000a1:	89 50 50             	mov    %edx,0x50(%eax)
801000a4:	8b 45 f4             	mov    -0xc(%ebp),%eax
801000a7:	a3 b0 1d 11 80       	mov    %eax,0x80111db0
801000ac:	81 45 f4 5c 02 00 00 	addl   $0x25c,-0xc(%ebp)
801000b3:	b8 5c 1d 11 80       	mov    $0x80111d5c,%eax
801000b8:	39 45 f4             	cmp    %eax,-0xc(%ebp)
801000bb:	72 af                	jb     8010006c <binit+0x38>
801000bd:	90                   	nop
801000be:	c9                   	leave  
801000bf:	c3                   	ret    

801000c0 <bget>:
801000c0:	55                   	push   %ebp
801000c1:	89 e5                	mov    %esp,%ebp
801000c3:	83 ec 18             	sub    $0x18,%esp
801000c6:	83 ec 0c             	sub    $0xc,%esp
801000c9:	68 60 d6 10 80       	push   $0x8010d660
801000ce:	e8 a8 53 00 00       	call   8010547b <acquire>
801000d3:	83 c4 10             	add    $0x10,%esp
801000d6:	a1 b0 1d 11 80       	mov    0x80111db0,%eax
801000db:	89 45 f4             	mov    %eax,-0xc(%ebp)
801000de:	eb 58                	jmp    80100138 <bget+0x78>
801000e0:	8b 45 f4             	mov    -0xc(%ebp),%eax
801000e3:	8b 40 04             	mov    0x4(%eax),%eax
801000e6:	3b 45 08             	cmp    0x8(%ebp),%eax
801000e9:	75 44                	jne    8010012f <bget+0x6f>
801000eb:	8b 45 f4             	mov    -0xc(%ebp),%eax
801000ee:	8b 40 08             	mov    0x8(%eax),%eax
801000f1:	3b 45 0c             	cmp    0xc(%ebp),%eax
801000f4:	75 39                	jne    8010012f <bget+0x6f>
801000f6:	8b 45 f4             	mov    -0xc(%ebp),%eax
801000f9:	8b 40 4c             	mov    0x4c(%eax),%eax
801000fc:	8d 50 01             	lea    0x1(%eax),%edx
801000ff:	8b 45 f4             	mov    -0xc(%ebp),%eax
80100102:	89 50 4c             	mov    %edx,0x4c(%eax)
80100105:	83 ec 0c             	sub    $0xc,%esp
80100108:	68 60 d6 10 80       	push   $0x8010d660
8010010d:	e8 d7 53 00 00       	call   801054e9 <release>
80100112:	83 c4 10             	add    $0x10,%esp
80100115:	8b 45 f4             	mov    -0xc(%ebp),%eax
80100118:	83 c0 0c             	add    $0xc,%eax
8010011b:	83 ec 0c             	sub    $0xc,%esp
8010011e:	50                   	push   %eax
8010011f:	e8 14 52 00 00       	call   80105338 <acquiresleep>
80100124:	83 c4 10             	add    $0x10,%esp
80100127:	8b 45 f4             	mov    -0xc(%ebp),%eax
8010012a:	e9 9d 00 00 00       	jmp    801001cc <bget+0x10c>
8010012f:	8b 45 f4             	mov    -0xc(%ebp),%eax
80100132:	8b 40 54             	mov    0x54(%eax),%eax
80100135:	89 45 f4             	mov    %eax,-0xc(%ebp)
80100138:	81 7d f4 5c 1d 11 80 	cmpl   $0x80111d5c,-0xc(%ebp)
8010013f:	75 9f                	jne    801000e0 <bget+0x20>
80100141:	a1 ac 1d 11 80       	mov    0x80111dac,%eax
80100146:	89 45 f4             	mov    %eax,-0xc(%ebp)
80100149:	eb 6b                	jmp    801001b6 <bget+0xf6>
8010014b:	8b 45 f4             	mov    -0xc(%ebp),%eax
8010014e:	8b 40 4c             	mov    0x4c(%eax),%eax
80100151:	85 c0                	test   %eax,%eax
80100153:	75 58                	jne    801001ad <bget+0xed>
80100155:	8b 45 f4             	mov    -0xc(%ebp),%eax
80100158:	8b 00                	mov    (%eax),%eax
8010015a:	83 e0 04             	and    $0x4,%eax
8010015d:	85 c0                	test   %eax,%eax
8010015f:	75 4c                	jne    801001ad <bget+0xed>
80100161:	8b 45 f4             	mov    -0xc(%ebp),%eax
80100164:	8b 55 08             	mov    0x8(%ebp),%edx
80100167:	89 50 04             	mov    %edx,0x4(%eax)
8010016a:	8b 45 f4             	mov    -0xc(%ebp),%eax
8010016d:	8b 55 0c             	mov    0xc(%ebp),%edx
80100170:	89 50 08             	mov    %edx,0x8(%eax)
80100173:	8b 45 f4             	mov    -0xc(%ebp),%eax
80100176:	c7 00 00 00 00 00    	movl   $0x0,(%eax)
8010017c:	8b 45 f4             	mov    -0xc(%ebp),%eax
8010017f:	c7 40 4c 01 00 00 00 	movl   $0x1,0x4c(%eax)
80100186:	83 ec 0c             	sub    $0xc,%esp
80100189:	68 60 d6 10 80       	push   $0x8010d660
8010018e:	e8 56 53 00 00       	call   801054e9 <release>
80100193:	83 c4 10             	add    $0x10,%esp
80100196:	8b 45 f4             	mov    -0xc(%ebp),%eax
80100199:	83 c0 0c             	add    $0xc,%eax
8010019c:	83 ec 0c             	sub    $0xc,%esp
8010019f:	50                   	push   %eax
801001a0:	e8 93 51 00 00       	call   80105338 <acquiresleep>
801001a5:	83 c4 10             	add    $0x10,%esp
801001a8:	8b 45 f4             	mov    -0xc(%ebp),%eax
801001ab:	eb 1f                	jmp    801001cc <bget+0x10c>
801001ad:	8b 45 f4             	mov    -0xc(%ebp),%eax
801001b0:	8b 40 50             	mov    0x50(%eax),%eax
801001b3:	89 45 f4             	mov    %eax,-0xc(%ebp)
801001b6:	81 7d f4 5c 1d 11 80 	cmpl   $0x80111d5c,-0xc(%ebp)
801001bd:	75 8c                	jne    8010014b <bget+0x8b>
801001bf:	83 ec 0c             	sub    $0xc,%esp
801001c2:	68 72 8d 10 80       	push   $0x80108d72
801001c7:	e8 d4 03 00 00       	call   801005a0 <panic>
801001cc:	c9                   	leave  
801001cd:	c3                   	ret    

801001ce <bread>:
801001ce:	55                   	push   %ebp
801001cf:	89 e5                	mov    %esp,%ebp
801001d1:	83 ec 18             	sub    $0x18,%esp
801001d4:	83 ec 08             	sub    $0x8,%esp
801001d7:	ff 75 0c             	pushl  0xc(%ebp)
801001da:	ff 75 08             	pushl  0x8(%ebp)
801001dd:	e8 de fe ff ff       	call   801000c0 <bget>
801001e2:	83 c4 10             	add    $0x10,%esp
801001e5:	89 45 f4             	mov    %eax,-0xc(%ebp)
801001e8:	8b 45 f4             	mov    -0xc(%ebp),%eax
801001eb:	8b 00                	mov    (%eax),%eax
801001ed:	83 e0 02             	and    $0x2,%eax
801001f0:	85 c0                	test   %eax,%eax
801001f2:	75 0e                	jne    80100202 <bread+0x34>
801001f4:	83 ec 0c             	sub    $0xc,%esp
801001f7:	ff 75 f4             	pushl  -0xc(%ebp)
801001fa:	e8 a5 27 00 00       	call   801029a4 <iderw>
801001ff:	83 c4 10             	add    $0x10,%esp
80100202:	8b 45 f4             	mov    -0xc(%ebp),%eax
80100205:	c9                   	leave  
80100206:	c3                   	ret    

80100207 <bwrite>:
80100207:	55                   	push   %ebp
80100208:	89 e5                	mov    %esp,%ebp
8010020a:	83 ec 08             	sub    $0x8,%esp
8010020d:	8b 45 08             	mov    0x8(%ebp),%eax
80100210:	83 c0 0c             	add    $0xc,%eax
80100213:	83 ec 0c             	sub    $0xc,%esp
80100216:	50                   	push   %eax
80100217:	e8 ce 51 00 00       	call   801053ea <holdingsleep>
8010021c:	83 c4 10             	add    $0x10,%esp
8010021f:	85 c0                	test   %eax,%eax
80100221:	75 0d                	jne    80100230 <bwrite+0x29>
80100223:	83 ec 0c             	sub    $0xc,%esp
80100226:	68 83 8d 10 80       	push   $0x80108d83
8010022b:	e8 70 03 00 00       	call   801005a0 <panic>
80100230:	8b 45 08             	mov    0x8(%ebp),%eax
80100233:	8b 00                	mov    (%eax),%eax
80100235:	83 c8 04             	or     $0x4,%eax
80100238:	89 c2                	mov    %eax,%edx
8010023a:	8b 45 08             	mov    0x8(%ebp),%eax
8010023d:	89 10                	mov    %edx,(%eax)
8010023f:	83 ec 0c             	sub    $0xc,%esp
80100242:	ff 75 08             	pushl  0x8(%ebp)
80100245:	e8 5a 27 00 00       	call   801029a4 <iderw>
8010024a:	83 c4 10             	add    $0x10,%esp
8010024d:	90                   	nop
8010024e:	c9                   	leave  
8010024f:	c3                   	ret    

80100250 <brelse>:
80100250:	55                   	push   %ebp
80100251:	89 e5                	mov    %esp,%ebp
80100253:	83 ec 08             	sub    $0x8,%esp
80100256:	8b 45 08             	mov    0x8(%ebp),%eax
80100259:	83 c0 0c             	add    $0xc,%eax
8010025c:	83 ec 0c             	sub    $0xc,%esp
8010025f:	50                   	push   %eax
80100260:	e8 85 51 00 00       	call   801053ea <holdingsleep>
80100265:	83 c4 10             	add    $0x10,%esp
80100268:	85 c0                	test   %eax,%eax
8010026a:	75 0d                	jne    80100279 <brelse+0x29>
8010026c:	83 ec 0c             	sub    $0xc,%esp
8010026f:	68 8a 8d 10 80       	push   $0x80108d8a
80100274:	e8 27 03 00 00       	call   801005a0 <panic>
80100279:	8b 45 08             	mov    0x8(%ebp),%eax
8010027c:	83 c0 0c             	add    $0xc,%eax
8010027f:	83 ec 0c             	sub    $0xc,%esp
80100282:	50                   	push   %eax
80100283:	e8 14 51 00 00       	call   8010539c <releasesleep>
80100288:	83 c4 10             	add    $0x10,%esp
8010028b:	83 ec 0c             	sub    $0xc,%esp
8010028e:	68 60 d6 10 80       	push   $0x8010d660
80100293:	e8 e3 51 00 00       	call   8010547b <acquire>
80100298:	83 c4 10             	add    $0x10,%esp
8010029b:	8b 45 08             	mov    0x8(%ebp),%eax
8010029e:	8b 40 4c             	mov    0x4c(%eax),%eax
801002a1:	8d 50 ff             	lea    -0x1(%eax),%edx
801002a4:	8b 45 08             	mov    0x8(%ebp),%eax
801002a7:	89 50 4c             	mov    %edx,0x4c(%eax)
801002aa:	8b 45 08             	mov    0x8(%ebp),%eax
801002ad:	8b 40 4c             	mov    0x4c(%eax),%eax
801002b0:	85 c0                	test   %eax,%eax
801002b2:	75 47                	jne    801002fb <brelse+0xab>
801002b4:	8b 45 08             	mov    0x8(%ebp),%eax
801002b7:	8b 40 54             	mov    0x54(%eax),%eax
801002ba:	8b 55 08             	mov    0x8(%ebp),%edx
801002bd:	8b 52 50             	mov    0x50(%edx),%edx
801002c0:	89 50 50             	mov    %edx,0x50(%eax)
801002c3:	8b 45 08             	mov    0x8(%ebp),%eax
801002c6:	8b 40 50             	mov    0x50(%eax),%eax
801002c9:	8b 55 08             	mov    0x8(%ebp),%edx
801002cc:	8b 52 54             	mov    0x54(%edx),%edx
801002cf:	89 50 54             	mov    %edx,0x54(%eax)
801002d2:	8b 15 b0 1d 11 80    	mov    0x80111db0,%edx
801002d8:	8b 45 08             	mov    0x8(%ebp),%eax
801002db:	89 50 54             	mov    %edx,0x54(%eax)
801002de:	8b 45 08             	mov    0x8(%ebp),%eax
801002e1:	c7 40 50 5c 1d 11 80 	movl   $0x80111d5c,0x50(%eax)
801002e8:	a1 b0 1d 11 80       	mov    0x80111db0,%eax
801002ed:	8b 55 08             	mov    0x8(%ebp),%edx
801002f0:	89 50 50             	mov    %edx,0x50(%eax)
801002f3:	8b 45 08             	mov    0x8(%ebp),%eax
801002f6:	a3 b0 1d 11 80       	mov    %eax,0x80111db0
801002fb:	83 ec 0c             	sub    $0xc,%esp
801002fe:	68 60 d6 10 80       	push   $0x8010d660
80100303:	e8 e1 51 00 00       	call   801054e9 <release>
80100308:	83 c4 10             	add    $0x10,%esp
8010030b:	90                   	nop
8010030c:	c9                   	leave  
8010030d:	c3                   	ret    

8010030e <inb>:
8010030e:	55                   	push   %ebp
8010030f:	89 e5                	mov    %esp,%ebp
80100311:	83 ec 14             	sub    $0x14,%esp
80100314:	8b 45 08             	mov    0x8(%ebp),%eax
80100317:	66 89 45 ec          	mov    %ax,-0x14(%ebp)
8010031b:	0f b7 45 ec          	movzwl -0x14(%ebp),%eax
8010031f:	89 c2                	mov    %eax,%edx
80100321:	ec                   	in     (%dx),%al
80100322:	88 45 ff             	mov    %al,-0x1(%ebp)
80100325:	0f b6 45 ff          	movzbl -0x1(%ebp),%eax
80100329:	c9                   	leave  
8010032a:	c3                   	ret    

8010032b <outb>:
8010032b:	55                   	push   %ebp
8010032c:	89 e5                	mov    %esp,%ebp
8010032e:	83 ec 08             	sub    $0x8,%esp
80100331:	8b 55 08             	mov    0x8(%ebp),%edx
80100334:	8b 45 0c             	mov    0xc(%ebp),%eax
80100337:	66 89 55 fc          	mov    %dx,-0x4(%ebp)
8010033b:	88 45 f8             	mov    %al,-0x8(%ebp)
8010033e:	0f b6 45 f8          	movzbl -0x8(%ebp),%eax
80100342:	0f b7 55 fc          	movzwl -0x4(%ebp),%edx
80100346:	ee                   	out    %al,(%dx)
80100347:	90                   	nop
80100348:	c9                   	leave  
80100349:	c3                   	ret    

8010034a <cli>:
8010034a:	55                   	push   %ebp
8010034b:	89 e5                	mov    %esp,%ebp
8010034d:	fa                   	cli    
8010034e:	90                   	nop
8010034f:	5d                   	pop    %ebp
80100350:	c3                   	ret    

80100351 <printint>:
80100351:	55                   	push   %ebp
80100352:	89 e5                	mov    %esp,%ebp
80100354:	53                   	push   %ebx
80100355:	83 ec 24             	sub    $0x24,%esp
80100358:	83 7d 10 00          	cmpl   $0x0,0x10(%ebp)
8010035c:	74 1c                	je     8010037a <printint+0x29>
8010035e:	8b 45 08             	mov    0x8(%ebp),%eax
80100361:	c1 e8 1f             	shr    $0x1f,%eax
80100364:	0f b6 c0             	movzbl %al,%eax
80100367:	89 45 10             	mov    %eax,0x10(%ebp)
8010036a:	83 7d 10 00          	cmpl   $0x0,0x10(%ebp)
8010036e:	74 0a                	je     8010037a <printint+0x29>
80100370:	8b 45 08             	mov    0x8(%ebp),%eax
80100373:	f7 d8                	neg    %eax
80100375:	89 45 f0             	mov    %eax,-0x10(%ebp)
80100378:	eb 06                	jmp    80100380 <printint+0x2f>
8010037a:	8b 45 08             	mov    0x8(%ebp),%eax
8010037d:	89 45 f0             	mov    %eax,-0x10(%ebp)
80100380:	c7 45 f4 00 00 00 00 	movl   $0x0,-0xc(%ebp)
80100387:	8b 4d f4             	mov    -0xc(%ebp),%ecx
8010038a:	8d 41 01             	lea    0x1(%ecx),%eax
8010038d:	89 45 f4             	mov    %eax,-0xc(%ebp)
80100390:	8b 5d 0c             	mov    0xc(%ebp),%ebx
80100393:	8b 45 f0             	mov    -0x10(%ebp),%eax
80100396:	ba 00 00 00 00       	mov    $0x0,%edx
8010039b:	f7 f3                	div    %ebx
8010039d:	89 d0                	mov    %edx,%eax
8010039f:	0f b6 80 04 a0 10 80 	movzbl -0x7fef5ffc(%eax),%eax
801003a6:	88 44 0d e0          	mov    %al,-0x20(%ebp,%ecx,1)
801003aa:	8b 5d 0c             	mov    0xc(%ebp),%ebx
801003ad:	8b 45 f0             	mov    -0x10(%ebp),%eax
801003b0:	ba 00 00 00 00       	mov    $0x0,%edx
801003b5:	f7 f3                	div    %ebx
801003b7:	89 45 f0             	mov    %eax,-0x10(%ebp)
801003ba:	83 7d f0 00          	cmpl   $0x0,-0x10(%ebp)
801003be:	75 c7                	jne    80100387 <printint+0x36>
801003c0:	83 7d 10 00          	cmpl   $0x0,0x10(%ebp)
801003c4:	74 2a                	je     801003f0 <printint+0x9f>
801003c6:	8b 45 f4             	mov    -0xc(%ebp),%eax
801003c9:	8d 50 01             	lea    0x1(%eax),%edx
801003cc:	89 55 f4             	mov    %edx,-0xc(%ebp)
801003cf:	c6 44 05 e0 2d       	movb   $0x2d,-0x20(%ebp,%eax,1)
801003d4:	eb 1a                	jmp    801003f0 <printint+0x9f>
801003d6:	8d 55 e0             	lea    -0x20(%ebp),%edx
801003d9:	8b 45 f4             	mov    -0xc(%ebp),%eax
801003dc:	01 d0                	add    %edx,%eax
801003de:	0f b6 00             	movzbl (%eax),%eax
801003e1:	0f be c0             	movsbl %al,%eax
801003e4:	83 ec 0c             	sub    $0xc,%esp
801003e7:	50                   	push   %eax
801003e8:	e8 d8 03 00 00       	call   801007c5 <consputc>
801003ed:	83 c4 10             	add    $0x10,%esp
801003f0:	83 6d f4 01          	subl   $0x1,-0xc(%ebp)
801003f4:	83 7d f4 00          	cmpl   $0x0,-0xc(%ebp)
801003f8:	79 dc                	jns    801003d6 <printint+0x85>
801003fa:	90                   	nop
801003fb:	8b 5d fc             	mov    -0x4(%ebp),%ebx
801003fe:	c9                   	leave  
801003ff:	c3                   	ret    

80100400 <cprintf>:
80100400:	55                   	push   %ebp
80100401:	89 e5                	mov    %esp,%ebp
80100403:	83 ec 28             	sub    $0x28,%esp
80100406:	a1 f4 c5 10 80       	mov    0x8010c5f4,%eax
8010040b:	89 45 e8             	mov    %eax,-0x18(%ebp)
8010040e:	83 7d e8 00          	cmpl   $0x0,-0x18(%ebp)
80100412:	74 10                	je     80100424 <cprintf+0x24>
80100414:	83 ec 0c             	sub    $0xc,%esp
80100417:	68 c0 c5 10 80       	push   $0x8010c5c0
8010041c:	e8 5a 50 00 00       	call   8010547b <acquire>
80100421:	83 c4 10             	add    $0x10,%esp
80100424:	8b 45 08             	mov    0x8(%ebp),%eax
80100427:	85 c0                	test   %eax,%eax
80100429:	75 0d                	jne    80100438 <cprintf+0x38>
8010042b:	83 ec 0c             	sub    $0xc,%esp
8010042e:	68 91 8d 10 80       	push   $0x80108d91
80100433:	e8 68 01 00 00       	call   801005a0 <panic>
80100438:	8d 45 0c             	lea    0xc(%ebp),%eax
8010043b:	89 45 f0             	mov    %eax,-0x10(%ebp)
8010043e:	c7 45 f4 00 00 00 00 	movl   $0x0,-0xc(%ebp)
80100445:	e9 1a 01 00 00       	jmp    80100564 <cprintf+0x164>
8010044a:	83 7d e4 25          	cmpl   $0x25,-0x1c(%ebp)
8010044e:	74 13                	je     80100463 <cprintf+0x63>
80100450:	83 ec 0c             	sub    $0xc,%esp
80100453:	ff 75 e4             	pushl  -0x1c(%ebp)
80100456:	e8 6a 03 00 00       	call   801007c5 <consputc>
8010045b:	83 c4 10             	add    $0x10,%esp
8010045e:	e9 fd 00 00 00       	jmp    80100560 <cprintf+0x160>
80100463:	8b 55 08             	mov    0x8(%ebp),%edx
80100466:	83 45 f4 01          	addl   $0x1,-0xc(%ebp)
8010046a:	8b 45 f4             	mov    -0xc(%ebp),%eax
8010046d:	01 d0                	add    %edx,%eax
8010046f:	0f b6 00             	movzbl (%eax),%eax
80100472:	0f be c0             	movsbl %al,%eax
80100475:	25 ff 00 00 00       	and    $0xff,%eax
8010047a:	89 45 e4             	mov    %eax,-0x1c(%ebp)
8010047d:	83 7d e4 00          	cmpl   $0x0,-0x1c(%ebp)
80100481:	0f 84 ff 00 00 00    	je     80100586 <cprintf+0x186>
80100487:	8b 45 e4             	mov    -0x1c(%ebp),%eax
8010048a:	83 f8 70             	cmp    $0x70,%eax
8010048d:	74 47                	je     801004d6 <cprintf+0xd6>
8010048f:	83 f8 70             	cmp    $0x70,%eax
80100492:	7f 13                	jg     801004a7 <cprintf+0xa7>
80100494:	83 f8 25             	cmp    $0x25,%eax
80100497:	0f 84 98 00 00 00    	je     80100535 <cprintf+0x135>
8010049d:	83 f8 64             	cmp    $0x64,%eax
801004a0:	74 14                	je     801004b6 <cprintf+0xb6>
801004a2:	e9 9d 00 00 00       	jmp    80100544 <cprintf+0x144>
801004a7:	83 f8 73             	cmp    $0x73,%eax
801004aa:	74 47                	je     801004f3 <cprintf+0xf3>
801004ac:	83 f8 78             	cmp    $0x78,%eax
801004af:	74 25                	je     801004d6 <cprintf+0xd6>
801004b1:	e9 8e 00 00 00       	jmp    80100544 <cprintf+0x144>
801004b6:	8b 45 f0             	mov    -0x10(%ebp),%eax
801004b9:	8d 50 04             	lea    0x4(%eax),%edx
801004bc:	89 55 f0             	mov    %edx,-0x10(%ebp)
801004bf:	8b 00                	mov    (%eax),%eax
801004c1:	83 ec 04             	sub    $0x4,%esp
801004c4:	6a 01                	push   $0x1
801004c6:	6a 0a                	push   $0xa
801004c8:	50                   	push   %eax
801004c9:	e8 83 fe ff ff       	call   80100351 <printint>
801004ce:	83 c4 10             	add    $0x10,%esp
801004d1:	e9 8a 00 00 00       	jmp    80100560 <cprintf+0x160>
801004d6:	8b 45 f0             	mov    -0x10(%ebp),%eax
801004d9:	8d 50 04             	lea    0x4(%eax),%edx
801004dc:	89 55 f0             	mov    %edx,-0x10(%ebp)
801004df:	8b 00                	mov    (%eax),%eax
801004e1:	83 ec 04             	sub    $0x4,%esp
801004e4:	6a 00                	push   $0x0
801004e6:	6a 10                	push   $0x10
801004e8:	50                   	push   %eax
801004e9:	e8 63 fe ff ff       	call   80100351 <printint>
801004ee:	83 c4 10             	add    $0x10,%esp
801004f1:	eb 6d                	jmp    80100560 <cprintf+0x160>
801004f3:	8b 45 f0             	mov    -0x10(%ebp),%eax
801004f6:	8d 50 04             	lea    0x4(%eax),%edx
801004f9:	89 55 f0             	mov    %edx,-0x10(%ebp)
801004fc:	8b 00                	mov    (%eax),%eax
801004fe:	89 45 ec             	mov    %eax,-0x14(%ebp)
80100501:	83 7d ec 00          	cmpl   $0x0,-0x14(%ebp)
80100505:	75 22                	jne    80100529 <cprintf+0x129>
80100507:	c7 45 ec 9a 8d 10 80 	movl   $0x80108d9a,-0x14(%ebp)
8010050e:	eb 19                	jmp    80100529 <cprintf+0x129>
80100510:	8b 45 ec             	mov    -0x14(%ebp),%eax
80100513:	0f b6 00             	movzbl (%eax),%eax
80100516:	0f be c0             	movsbl %al,%eax
80100519:	83 ec 0c             	sub    $0xc,%esp
8010051c:	50                   	push   %eax
8010051d:	e8 a3 02 00 00       	call   801007c5 <consputc>
80100522:	83 c4 10             	add    $0x10,%esp
80100525:	83 45 ec 01          	addl   $0x1,-0x14(%ebp)
80100529:	8b 45 ec             	mov    -0x14(%ebp),%eax
8010052c:	0f b6 00             	movzbl (%eax),%eax
8010052f:	84 c0                	test   %al,%al
80100531:	75 dd                	jne    80100510 <cprintf+0x110>
80100533:	eb 2b                	jmp    80100560 <cprintf+0x160>
80100535:	83 ec 0c             	sub    $0xc,%esp
80100538:	6a 25                	push   $0x25
8010053a:	e8 86 02 00 00       	call   801007c5 <consputc>
8010053f:	83 c4 10             	add    $0x10,%esp
80100542:	eb 1c                	jmp    80100560 <cprintf+0x160>
80100544:	83 ec 0c             	sub    $0xc,%esp
80100547:	6a 25                	push   $0x25
80100549:	e8 77 02 00 00       	call   801007c5 <consputc>
8010054e:	83 c4 10             	add    $0x10,%esp
80100551:	83 ec 0c             	sub    $0xc,%esp
80100554:	ff 75 e4             	pushl  -0x1c(%ebp)
80100557:	e8 69 02 00 00       	call   801007c5 <consputc>
8010055c:	83 c4 10             	add    $0x10,%esp
8010055f:	90                   	nop
80100560:	83 45 f4 01          	addl   $0x1,-0xc(%ebp)
80100564:	8b 55 08             	mov    0x8(%ebp),%edx
80100567:	8b 45 f4             	mov    -0xc(%ebp),%eax
8010056a:	01 d0                	add    %edx,%eax
8010056c:	0f b6 00             	movzbl (%eax),%eax
8010056f:	0f be c0             	movsbl %al,%eax
80100572:	25 ff 00 00 00       	and    $0xff,%eax
80100577:	89 45 e4             	mov    %eax,-0x1c(%ebp)
8010057a:	83 7d e4 00          	cmpl   $0x0,-0x1c(%ebp)
8010057e:	0f 85 c6 fe ff ff    	jne    8010044a <cprintf+0x4a>
80100584:	eb 01                	jmp    80100587 <cprintf+0x187>
80100586:	90                   	nop
80100587:	83 7d e8 00          	cmpl   $0x0,-0x18(%ebp)
8010058b:	74 10                	je     8010059d <cprintf+0x19d>
8010058d:	83 ec 0c             	sub    $0xc,%esp
80100590:	68 c0 c5 10 80       	push   $0x8010c5c0
80100595:	e8 4f 4f 00 00       	call   801054e9 <release>
8010059a:	83 c4 10             	add    $0x10,%esp
8010059d:	90                   	nop
8010059e:	c9                   	leave  
8010059f:	c3                   	ret    

801005a0 <panic>:
801005a0:	55                   	push   %ebp
801005a1:	89 e5                	mov    %esp,%ebp
801005a3:	83 ec 38             	sub    $0x38,%esp
801005a6:	e8 9f fd ff ff       	call   8010034a <cli>
801005ab:	c7 05 f4 c5 10 80 00 	movl   $0x0,0x8010c5f4
801005b2:	00 00 00 
801005b5:	e8 79 2a 00 00       	call   80103033 <lapicid>
801005ba:	83 ec 08             	sub    $0x8,%esp
801005bd:	50                   	push   %eax
801005be:	68 a1 8d 10 80       	push   $0x80108da1
801005c3:	e8 38 fe ff ff       	call   80100400 <cprintf>
801005c8:	83 c4 10             	add    $0x10,%esp
801005cb:	8b 45 08             	mov    0x8(%ebp),%eax
801005ce:	83 ec 0c             	sub    $0xc,%esp
801005d1:	50                   	push   %eax
801005d2:	e8 29 fe ff ff       	call   80100400 <cprintf>
801005d7:	83 c4 10             	add    $0x10,%esp
801005da:	83 ec 0c             	sub    $0xc,%esp
801005dd:	68 b5 8d 10 80       	push   $0x80108db5
801005e2:	e8 19 fe ff ff       	call   80100400 <cprintf>
801005e7:	83 c4 10             	add    $0x10,%esp
801005ea:	83 ec 08             	sub    $0x8,%esp
801005ed:	8d 45 cc             	lea    -0x34(%ebp),%eax
801005f0:	50                   	push   %eax
801005f1:	8d 45 08             	lea    0x8(%ebp),%eax
801005f4:	50                   	push   %eax
801005f5:	e8 41 4f 00 00       	call   8010553b <getcallerpcs>
801005fa:	83 c4 10             	add    $0x10,%esp
801005fd:	c7 45 f4 00 00 00 00 	movl   $0x0,-0xc(%ebp)
80100604:	eb 1c                	jmp    80100622 <panic+0x82>
80100606:	8b 45 f4             	mov    -0xc(%ebp),%eax
80100609:	8b 44 85 cc          	mov    -0x34(%ebp,%eax,4),%eax
8010060d:	83 ec 08             	sub    $0x8,%esp
80100610:	50                   	push   %eax
80100611:	68 b7 8d 10 80       	push   $0x80108db7
80100616:	e8 e5 fd ff ff       	call   80100400 <cprintf>
8010061b:	83 c4 10             	add    $0x10,%esp
8010061e:	83 45 f4 01          	addl   $0x1,-0xc(%ebp)
80100622:	83 7d f4 09          	cmpl   $0x9,-0xc(%ebp)
80100626:	7e de                	jle    80100606 <panic+0x66>
80100628:	c7 05 a0 c5 10 80 01 	movl   $0x1,0x8010c5a0
8010062f:	00 00 00 
80100632:	eb fe                	jmp    80100632 <panic+0x92>

80100634 <cgaputc>:
80100634:	55                   	push   %ebp
80100635:	89 e5                	mov    %esp,%ebp
80100637:	83 ec 18             	sub    $0x18,%esp
8010063a:	6a 0e                	push   $0xe
8010063c:	68 d4 03 00 00       	push   $0x3d4
80100641:	e8 e5 fc ff ff       	call   8010032b <outb>
80100646:	83 c4 08             	add    $0x8,%esp
80100649:	68 d5 03 00 00       	push   $0x3d5
8010064e:	e8 bb fc ff ff       	call   8010030e <inb>
80100653:	83 c4 04             	add    $0x4,%esp
80100656:	0f b6 c0             	movzbl %al,%eax
80100659:	c1 e0 08             	shl    $0x8,%eax
8010065c:	89 45 f4             	mov    %eax,-0xc(%ebp)
8010065f:	6a 0f                	push   $0xf
80100661:	68 d4 03 00 00       	push   $0x3d4
80100666:	e8 c0 fc ff ff       	call   8010032b <outb>
8010066b:	83 c4 08             	add    $0x8,%esp
8010066e:	68 d5 03 00 00       	push   $0x3d5
80100673:	e8 96 fc ff ff       	call   8010030e <inb>
80100678:	83 c4 04             	add    $0x4,%esp
8010067b:	0f b6 c0             	movzbl %al,%eax
8010067e:	09 45 f4             	or     %eax,-0xc(%ebp)
80100681:	83 7d 08 0a          	cmpl   $0xa,0x8(%ebp)
80100685:	75 30                	jne    801006b7 <cgaputc+0x83>
80100687:	8b 4d f4             	mov    -0xc(%ebp),%ecx
8010068a:	ba 67 66 66 66       	mov    $0x66666667,%edx
8010068f:	89 c8                	mov    %ecx,%eax
80100691:	f7 ea                	imul   %edx
80100693:	c1 fa 05             	sar    $0x5,%edx
80100696:	89 c8                	mov    %ecx,%eax
80100698:	c1 f8 1f             	sar    $0x1f,%eax
8010069b:	29 c2                	sub    %eax,%edx
8010069d:	89 d0                	mov    %edx,%eax
8010069f:	c1 e0 02             	shl    $0x2,%eax
801006a2:	01 d0                	add    %edx,%eax
801006a4:	c1 e0 04             	shl    $0x4,%eax
801006a7:	29 c1                	sub    %eax,%ecx
801006a9:	89 ca                	mov    %ecx,%edx
801006ab:	b8 50 00 00 00       	mov    $0x50,%eax
801006b0:	29 d0                	sub    %edx,%eax
801006b2:	01 45 f4             	add    %eax,-0xc(%ebp)
801006b5:	eb 34                	jmp    801006eb <cgaputc+0xb7>
801006b7:	81 7d 08 00 01 00 00 	cmpl   $0x100,0x8(%ebp)
801006be:	75 0c                	jne    801006cc <cgaputc+0x98>
801006c0:	83 7d f4 00          	cmpl   $0x0,-0xc(%ebp)
801006c4:	7e 25                	jle    801006eb <cgaputc+0xb7>
801006c6:	83 6d f4 01          	subl   $0x1,-0xc(%ebp)
801006ca:	eb 1f                	jmp    801006eb <cgaputc+0xb7>
801006cc:	8b 0d 00 a0 10 80    	mov    0x8010a000,%ecx
801006d2:	8b 45 f4             	mov    -0xc(%ebp),%eax
801006d5:	8d 50 01             	lea    0x1(%eax),%edx
801006d8:	89 55 f4             	mov    %edx,-0xc(%ebp)
801006db:	01 c0                	add    %eax,%eax
801006dd:	01 c8                	add    %ecx,%eax
801006df:	8b 55 08             	mov    0x8(%ebp),%edx
801006e2:	0f b6 d2             	movzbl %dl,%edx
801006e5:	80 ce 07             	or     $0x7,%dh
801006e8:	66 89 10             	mov    %dx,(%eax)
801006eb:	83 7d f4 00          	cmpl   $0x0,-0xc(%ebp)
801006ef:	78 09                	js     801006fa <cgaputc+0xc6>
801006f1:	81 7d f4 d0 07 00 00 	cmpl   $0x7d0,-0xc(%ebp)
801006f8:	7e 0d                	jle    80100707 <cgaputc+0xd3>
801006fa:	83 ec 0c             	sub    $0xc,%esp
801006fd:	68 bb 8d 10 80       	push   $0x80108dbb
80100702:	e8 99 fe ff ff       	call   801005a0 <panic>
80100707:	81 7d f4 7f 07 00 00 	cmpl   $0x77f,-0xc(%ebp)
8010070e:	7e 4c                	jle    8010075c <cgaputc+0x128>
80100710:	a1 00 a0 10 80       	mov    0x8010a000,%eax
80100715:	8d 90 a0 00 00 00    	lea    0xa0(%eax),%edx
8010071b:	a1 00 a0 10 80       	mov    0x8010a000,%eax
80100720:	83 ec 04             	sub    $0x4,%esp
80100723:	68 60 0e 00 00       	push   $0xe60
80100728:	52                   	push   %edx
80100729:	50                   	push   %eax
8010072a:	e8 82 50 00 00       	call   801057b1 <memmove>
8010072f:	83 c4 10             	add    $0x10,%esp
80100732:	83 6d f4 50          	subl   $0x50,-0xc(%ebp)
80100736:	b8 80 07 00 00       	mov    $0x780,%eax
8010073b:	2b 45 f4             	sub    -0xc(%ebp),%eax
8010073e:	8d 14 00             	lea    (%eax,%eax,1),%edx
80100741:	a1 00 a0 10 80       	mov    0x8010a000,%eax
80100746:	8b 4d f4             	mov    -0xc(%ebp),%ecx
80100749:	01 c9                	add    %ecx,%ecx
8010074b:	01 c8                	add    %ecx,%eax
8010074d:	83 ec 04             	sub    $0x4,%esp
80100750:	52                   	push   %edx
80100751:	6a 00                	push   $0x0
80100753:	50                   	push   %eax
80100754:	e8 99 4f 00 00       	call   801056f2 <memset>
80100759:	83 c4 10             	add    $0x10,%esp
8010075c:	83 ec 08             	sub    $0x8,%esp
8010075f:	6a 0e                	push   $0xe
80100761:	68 d4 03 00 00       	push   $0x3d4
80100766:	e8 c0 fb ff ff       	call   8010032b <outb>
8010076b:	83 c4 10             	add    $0x10,%esp
8010076e:	8b 45 f4             	mov    -0xc(%ebp),%eax
80100771:	c1 f8 08             	sar    $0x8,%eax
80100774:	0f b6 c0             	movzbl %al,%eax
80100777:	83 ec 08             	sub    $0x8,%esp
8010077a:	50                   	push   %eax
8010077b:	68 d5 03 00 00       	push   $0x3d5
80100780:	e8 a6 fb ff ff       	call   8010032b <outb>
80100785:	83 c4 10             	add    $0x10,%esp
80100788:	83 ec 08             	sub    $0x8,%esp
8010078b:	6a 0f                	push   $0xf
8010078d:	68 d4 03 00 00       	push   $0x3d4
80100792:	e8 94 fb ff ff       	call   8010032b <outb>
80100797:	83 c4 10             	add    $0x10,%esp
8010079a:	8b 45 f4             	mov    -0xc(%ebp),%eax
8010079d:	0f b6 c0             	movzbl %al,%eax
801007a0:	83 ec 08             	sub    $0x8,%esp
801007a3:	50                   	push   %eax
801007a4:	68 d5 03 00 00       	push   $0x3d5
801007a9:	e8 7d fb ff ff       	call   8010032b <outb>
801007ae:	83 c4 10             	add    $0x10,%esp
801007b1:	a1 00 a0 10 80       	mov    0x8010a000,%eax
801007b6:	8b 55 f4             	mov    -0xc(%ebp),%edx
801007b9:	01 d2                	add    %edx,%edx
801007bb:	01 d0                	add    %edx,%eax
801007bd:	66 c7 00 20 07       	movw   $0x720,(%eax)
801007c2:	90                   	nop
801007c3:	c9                   	leave  
801007c4:	c3                   	ret    

801007c5 <consputc>:
801007c5:	55                   	push   %ebp
801007c6:	89 e5                	mov    %esp,%ebp
801007c8:	83 ec 08             	sub    $0x8,%esp
801007cb:	a1 a0 c5 10 80       	mov    0x8010c5a0,%eax
801007d0:	85 c0                	test   %eax,%eax
801007d2:	74 07                	je     801007db <consputc+0x16>
801007d4:	e8 71 fb ff ff       	call   8010034a <cli>
801007d9:	eb fe                	jmp    801007d9 <consputc+0x14>
801007db:	81 7d 08 00 01 00 00 	cmpl   $0x100,0x8(%ebp)
801007e2:	75 29                	jne    8010080d <consputc+0x48>
801007e4:	83 ec 0c             	sub    $0xc,%esp
801007e7:	6a 08                	push   $0x8
801007e9:	e8 a8 69 00 00       	call   80107196 <uartputc>
801007ee:	83 c4 10             	add    $0x10,%esp
801007f1:	83 ec 0c             	sub    $0xc,%esp
801007f4:	6a 20                	push   $0x20
801007f6:	e8 9b 69 00 00       	call   80107196 <uartputc>
801007fb:	83 c4 10             	add    $0x10,%esp
801007fe:	83 ec 0c             	sub    $0xc,%esp
80100801:	6a 08                	push   $0x8
80100803:	e8 8e 69 00 00       	call   80107196 <uartputc>
80100808:	83 c4 10             	add    $0x10,%esp
8010080b:	eb 0e                	jmp    8010081b <consputc+0x56>
8010080d:	83 ec 0c             	sub    $0xc,%esp
80100810:	ff 75 08             	pushl  0x8(%ebp)
80100813:	e8 7e 69 00 00       	call   80107196 <uartputc>
80100818:	83 c4 10             	add    $0x10,%esp
8010081b:	83 ec 0c             	sub    $0xc,%esp
8010081e:	ff 75 08             	pushl  0x8(%ebp)
80100821:	e8 0e fe ff ff       	call   80100634 <cgaputc>
80100826:	83 c4 10             	add    $0x10,%esp
80100829:	90                   	nop
8010082a:	c9                   	leave  
8010082b:	c3                   	ret    

8010082c <consoleintr>:
8010082c:	55                   	push   %ebp
8010082d:	89 e5                	mov    %esp,%ebp
8010082f:	83 ec 18             	sub    $0x18,%esp
80100832:	c7 45 f4 00 00 00 00 	movl   $0x0,-0xc(%ebp)
80100839:	83 ec 0c             	sub    $0xc,%esp
8010083c:	68 c0 c5 10 80       	push   $0x8010c5c0
80100841:	e8 35 4c 00 00       	call   8010547b <acquire>
80100846:	83 c4 10             	add    $0x10,%esp
80100849:	e9 44 01 00 00       	jmp    80100992 <consoleintr+0x166>
8010084e:	8b 45 f0             	mov    -0x10(%ebp),%eax
80100851:	83 f8 10             	cmp    $0x10,%eax
80100854:	74 1e                	je     80100874 <consoleintr+0x48>
80100856:	83 f8 10             	cmp    $0x10,%eax
80100859:	7f 0a                	jg     80100865 <consoleintr+0x39>
8010085b:	83 f8 08             	cmp    $0x8,%eax
8010085e:	74 6b                	je     801008cb <consoleintr+0x9f>
80100860:	e9 9b 00 00 00       	jmp    80100900 <consoleintr+0xd4>
80100865:	83 f8 15             	cmp    $0x15,%eax
80100868:	74 33                	je     8010089d <consoleintr+0x71>
8010086a:	83 f8 7f             	cmp    $0x7f,%eax
8010086d:	74 5c                	je     801008cb <consoleintr+0x9f>
8010086f:	e9 8c 00 00 00       	jmp    80100900 <consoleintr+0xd4>
80100874:	c7 45 f4 01 00 00 00 	movl   $0x1,-0xc(%ebp)
8010087b:	e9 12 01 00 00       	jmp    80100992 <consoleintr+0x166>
80100880:	a1 48 20 11 80       	mov    0x80112048,%eax
80100885:	83 e8 01             	sub    $0x1,%eax
80100888:	a3 48 20 11 80       	mov    %eax,0x80112048
8010088d:	83 ec 0c             	sub    $0xc,%esp
80100890:	68 00 01 00 00       	push   $0x100
80100895:	e8 2b ff ff ff       	call   801007c5 <consputc>
8010089a:	83 c4 10             	add    $0x10,%esp
8010089d:	8b 15 48 20 11 80    	mov    0x80112048,%edx
801008a3:	a1 44 20 11 80       	mov    0x80112044,%eax
801008a8:	39 c2                	cmp    %eax,%edx
801008aa:	0f 84 e2 00 00 00    	je     80100992 <consoleintr+0x166>
801008b0:	a1 48 20 11 80       	mov    0x80112048,%eax
801008b5:	83 e8 01             	sub    $0x1,%eax
801008b8:	83 e0 7f             	and    $0x7f,%eax
801008bb:	0f b6 80 c0 1f 11 80 	movzbl -0x7feee040(%eax),%eax
801008c2:	3c 0a                	cmp    $0xa,%al
801008c4:	75 ba                	jne    80100880 <consoleintr+0x54>
801008c6:	e9 c7 00 00 00       	jmp    80100992 <consoleintr+0x166>
801008cb:	8b 15 48 20 11 80    	mov    0x80112048,%edx
801008d1:	a1 44 20 11 80       	mov    0x80112044,%eax
801008d6:	39 c2                	cmp    %eax,%edx
801008d8:	0f 84 b4 00 00 00    	je     80100992 <consoleintr+0x166>
801008de:	a1 48 20 11 80       	mov    0x80112048,%eax
801008e3:	83 e8 01             	sub    $0x1,%eax
801008e6:	a3 48 20 11 80       	mov    %eax,0x80112048
801008eb:	83 ec 0c             	sub    $0xc,%esp
801008ee:	68 00 01 00 00       	push   $0x100
801008f3:	e8 cd fe ff ff       	call   801007c5 <consputc>
801008f8:	83 c4 10             	add    $0x10,%esp
801008fb:	e9 92 00 00 00       	jmp    80100992 <consoleintr+0x166>
80100900:	83 7d f0 00          	cmpl   $0x0,-0x10(%ebp)
80100904:	0f 84 87 00 00 00    	je     80100991 <consoleintr+0x165>
8010090a:	8b 15 48 20 11 80    	mov    0x80112048,%edx
80100910:	a1 40 20 11 80       	mov    0x80112040,%eax
80100915:	29 c2                	sub    %eax,%edx
80100917:	89 d0                	mov    %edx,%eax
80100919:	83 f8 7f             	cmp    $0x7f,%eax
8010091c:	77 73                	ja     80100991 <consoleintr+0x165>
8010091e:	83 7d f0 0d          	cmpl   $0xd,-0x10(%ebp)
80100922:	74 05                	je     80100929 <consoleintr+0xfd>
80100924:	8b 45 f0             	mov    -0x10(%ebp),%eax
80100927:	eb 05                	jmp    8010092e <consoleintr+0x102>
80100929:	b8 0a 00 00 00       	mov    $0xa,%eax
8010092e:	89 45 f0             	mov    %eax,-0x10(%ebp)
80100931:	a1 48 20 11 80       	mov    0x80112048,%eax
80100936:	8d 50 01             	lea    0x1(%eax),%edx
80100939:	89 15 48 20 11 80    	mov    %edx,0x80112048
8010093f:	83 e0 7f             	and    $0x7f,%eax
80100942:	8b 55 f0             	mov    -0x10(%ebp),%edx
80100945:	88 90 c0 1f 11 80    	mov    %dl,-0x7feee040(%eax)
8010094b:	83 ec 0c             	sub    $0xc,%esp
8010094e:	ff 75 f0             	pushl  -0x10(%ebp)
80100951:	e8 6f fe ff ff       	call   801007c5 <consputc>
80100956:	83 c4 10             	add    $0x10,%esp
80100959:	83 7d f0 0a          	cmpl   $0xa,-0x10(%ebp)
8010095d:	74 18                	je     80100977 <consoleintr+0x14b>
8010095f:	83 7d f0 04          	cmpl   $0x4,-0x10(%ebp)
80100963:	74 12                	je     80100977 <consoleintr+0x14b>
80100965:	a1 48 20 11 80       	mov    0x80112048,%eax
8010096a:	8b 15 40 20 11 80    	mov    0x80112040,%edx
80100970:	83 ea 80             	sub    $0xffffff80,%edx
80100973:	39 d0                	cmp    %edx,%eax
80100975:	75 1a                	jne    80100991 <consoleintr+0x165>
80100977:	a1 48 20 11 80       	mov    0x80112048,%eax
8010097c:	a3 44 20 11 80       	mov    %eax,0x80112044
80100981:	83 ec 0c             	sub    $0xc,%esp
80100984:	68 40 20 11 80       	push   $0x80112040
80100989:	e8 a6 44 00 00       	call   80104e34 <wakeup>
8010098e:	83 c4 10             	add    $0x10,%esp
80100991:	90                   	nop
80100992:	8b 45 08             	mov    0x8(%ebp),%eax
80100995:	ff d0                	call   *%eax
80100997:	89 45 f0             	mov    %eax,-0x10(%ebp)
8010099a:	83 7d f0 00          	cmpl   $0x0,-0x10(%ebp)
8010099e:	0f 89 aa fe ff ff    	jns    8010084e <consoleintr+0x22>
801009a4:	83 ec 0c             	sub    $0xc,%esp
801009a7:	68 c0 c5 10 80       	push   $0x8010c5c0
801009ac:	e8 38 4b 00 00       	call   801054e9 <release>
801009b1:	83 c4 10             	add    $0x10,%esp
801009b4:	83 7d f4 00          	cmpl   $0x0,-0xc(%ebp)
801009b8:	74 05                	je     801009bf <consoleintr+0x193>
801009ba:	e8 c3 45 00 00       	call   80104f82 <procdump>
801009bf:	90                   	nop
801009c0:	c9                   	leave  
801009c1:	c3                   	ret    

801009c2 <consoleread>:
801009c2:	55                   	push   %ebp
801009c3:	89 e5                	mov    %esp,%ebp
801009c5:	83 ec 18             	sub    $0x18,%esp
801009c8:	83 ec 0c             	sub    $0xc,%esp
801009cb:	ff 75 08             	pushl  0x8(%ebp)
801009ce:	e8 98 11 00 00       	call   80101b6b <iunlock>
801009d3:	83 c4 10             	add    $0x10,%esp
801009d6:	8b 45 10             	mov    0x10(%ebp),%eax
801009d9:	89 45 f4             	mov    %eax,-0xc(%ebp)
801009dc:	83 ec 0c             	sub    $0xc,%esp
801009df:	68 c0 c5 10 80       	push   $0x8010c5c0
801009e4:	e8 92 4a 00 00       	call   8010547b <acquire>
801009e9:	83 c4 10             	add    $0x10,%esp
801009ec:	e9 ab 00 00 00       	jmp    80100a9c <consoleread+0xda>
801009f1:	e8 10 39 00 00       	call   80104306 <myproc>
801009f6:	8b 40 24             	mov    0x24(%eax),%eax
801009f9:	85 c0                	test   %eax,%eax
801009fb:	74 28                	je     80100a25 <consoleread+0x63>
801009fd:	83 ec 0c             	sub    $0xc,%esp
80100a00:	68 c0 c5 10 80       	push   $0x8010c5c0
80100a05:	e8 df 4a 00 00       	call   801054e9 <release>
80100a0a:	83 c4 10             	add    $0x10,%esp
80100a0d:	83 ec 0c             	sub    $0xc,%esp
80100a10:	ff 75 08             	pushl  0x8(%ebp)
80100a13:	e8 40 10 00 00       	call   80101a58 <ilock>
80100a18:	83 c4 10             	add    $0x10,%esp
80100a1b:	b8 ff ff ff ff       	mov    $0xffffffff,%eax
80100a20:	e9 ab 00 00 00       	jmp    80100ad0 <consoleread+0x10e>
80100a25:	83 ec 08             	sub    $0x8,%esp
80100a28:	68 c0 c5 10 80       	push   $0x8010c5c0
80100a2d:	68 40 20 11 80       	push   $0x80112040
80100a32:	e8 c0 42 00 00       	call   80104cf7 <sleep>
80100a37:	83 c4 10             	add    $0x10,%esp
80100a3a:	8b 15 40 20 11 80    	mov    0x80112040,%edx
80100a40:	a1 44 20 11 80       	mov    0x80112044,%eax
80100a45:	39 c2                	cmp    %eax,%edx
80100a47:	74 a8                	je     801009f1 <consoleread+0x2f>
80100a49:	a1 40 20 11 80       	mov    0x80112040,%eax
80100a4e:	8d 50 01             	lea    0x1(%eax),%edx
80100a51:	89 15 40 20 11 80    	mov    %edx,0x80112040
80100a57:	83 e0 7f             	and    $0x7f,%eax
80100a5a:	0f b6 80 c0 1f 11 80 	movzbl -0x7feee040(%eax),%eax
80100a61:	0f be c0             	movsbl %al,%eax
80100a64:	89 45 f0             	mov    %eax,-0x10(%ebp)
80100a67:	83 7d f0 04          	cmpl   $0x4,-0x10(%ebp)
80100a6b:	75 17                	jne    80100a84 <consoleread+0xc2>
80100a6d:	8b 45 10             	mov    0x10(%ebp),%eax
80100a70:	3b 45 f4             	cmp    -0xc(%ebp),%eax
80100a73:	73 2f                	jae    80100aa4 <consoleread+0xe2>
80100a75:	a1 40 20 11 80       	mov    0x80112040,%eax
80100a7a:	83 e8 01             	sub    $0x1,%eax
80100a7d:	a3 40 20 11 80       	mov    %eax,0x80112040
80100a82:	eb 20                	jmp    80100aa4 <consoleread+0xe2>
80100a84:	8b 45 0c             	mov    0xc(%ebp),%eax
80100a87:	8d 50 01             	lea    0x1(%eax),%edx
80100a8a:	89 55 0c             	mov    %edx,0xc(%ebp)
80100a8d:	8b 55 f0             	mov    -0x10(%ebp),%edx
80100a90:	88 10                	mov    %dl,(%eax)
80100a92:	83 6d 10 01          	subl   $0x1,0x10(%ebp)
80100a96:	83 7d f0 0a          	cmpl   $0xa,-0x10(%ebp)
80100a9a:	74 0b                	je     80100aa7 <consoleread+0xe5>
80100a9c:	83 7d 10 00          	cmpl   $0x0,0x10(%ebp)
80100aa0:	7f 98                	jg     80100a3a <consoleread+0x78>
80100aa2:	eb 04                	jmp    80100aa8 <consoleread+0xe6>
80100aa4:	90                   	nop
80100aa5:	eb 01                	jmp    80100aa8 <consoleread+0xe6>
80100aa7:	90                   	nop
80100aa8:	83 ec 0c             	sub    $0xc,%esp
80100aab:	68 c0 c5 10 80       	push   $0x8010c5c0
80100ab0:	e8 34 4a 00 00       	call   801054e9 <release>
80100ab5:	83 c4 10             	add    $0x10,%esp
80100ab8:	83 ec 0c             	sub    $0xc,%esp
80100abb:	ff 75 08             	pushl  0x8(%ebp)
80100abe:	e8 95 0f 00 00       	call   80101a58 <ilock>
80100ac3:	83 c4 10             	add    $0x10,%esp
80100ac6:	8b 45 10             	mov    0x10(%ebp),%eax
80100ac9:	8b 55 f4             	mov    -0xc(%ebp),%edx
80100acc:	29 c2                	sub    %eax,%edx
80100ace:	89 d0                	mov    %edx,%eax
80100ad0:	c9                   	leave  
80100ad1:	c3                   	ret    

80100ad2 <consolewrite>:
80100ad2:	55                   	push   %ebp
80100ad3:	89 e5                	mov    %esp,%ebp
80100ad5:	83 ec 18             	sub    $0x18,%esp
80100ad8:	83 ec 0c             	sub    $0xc,%esp
80100adb:	ff 75 08             	pushl  0x8(%ebp)
80100ade:	e8 88 10 00 00       	call   80101b6b <iunlock>
80100ae3:	83 c4 10             	add    $0x10,%esp
80100ae6:	83 ec 0c             	sub    $0xc,%esp
80100ae9:	68 c0 c5 10 80       	push   $0x8010c5c0
80100aee:	e8 88 49 00 00       	call   8010547b <acquire>
80100af3:	83 c4 10             	add    $0x10,%esp
80100af6:	c7 45 f4 00 00 00 00 	movl   $0x0,-0xc(%ebp)
80100afd:	eb 21                	jmp    80100b20 <consolewrite+0x4e>
80100aff:	8b 55 f4             	mov    -0xc(%ebp),%edx
80100b02:	8b 45 0c             	mov    0xc(%ebp),%eax
80100b05:	01 d0                	add    %edx,%eax
80100b07:	0f b6 00             	movzbl (%eax),%eax
80100b0a:	0f be c0             	movsbl %al,%eax
80100b0d:	0f b6 c0             	movzbl %al,%eax
80100b10:	83 ec 0c             	sub    $0xc,%esp
80100b13:	50                   	push   %eax
80100b14:	e8 ac fc ff ff       	call   801007c5 <consputc>
80100b19:	83 c4 10             	add    $0x10,%esp
80100b1c:	83 45 f4 01          	addl   $0x1,-0xc(%ebp)
80100b20:	8b 45 f4             	mov    -0xc(%ebp),%eax
80100b23:	3b 45 10             	cmp    0x10(%ebp),%eax
80100b26:	7c d7                	jl     80100aff <consolewrite+0x2d>
80100b28:	83 ec 0c             	sub    $0xc,%esp
80100b2b:	68 c0 c5 10 80       	push   $0x8010c5c0
80100b30:	e8 b4 49 00 00       	call   801054e9 <release>
80100b35:	83 c4 10             	add    $0x10,%esp
80100b38:	83 ec 0c             	sub    $0xc,%esp
80100b3b:	ff 75 08             	pushl  0x8(%ebp)
80100b3e:	e8 15 0f 00 00       	call   80101a58 <ilock>
80100b43:	83 c4 10             	add    $0x10,%esp
80100b46:	8b 45 10             	mov    0x10(%ebp),%eax
80100b49:	c9                   	leave  
80100b4a:	c3                   	ret    

80100b4b <consoleinit>:
80100b4b:	55                   	push   %ebp
80100b4c:	89 e5                	mov    %esp,%ebp
80100b4e:	83 ec 08             	sub    $0x8,%esp
80100b51:	83 ec 08             	sub    $0x8,%esp
80100b54:	68 ce 8d 10 80       	push   $0x80108dce
80100b59:	68 c0 c5 10 80       	push   $0x8010c5c0
80100b5e:	e8 f6 48 00 00       	call   80105459 <initlock>
80100b63:	83 c4 10             	add    $0x10,%esp
80100b66:	c7 05 0c 2a 11 80 d2 	movl   $0x80100ad2,0x80112a0c
80100b6d:	0a 10 80 
80100b70:	c7 05 08 2a 11 80 c2 	movl   $0x801009c2,0x80112a08
80100b77:	09 10 80 
80100b7a:	c7 05 f4 c5 10 80 01 	movl   $0x1,0x8010c5f4
80100b81:	00 00 00 
80100b84:	83 ec 08             	sub    $0x8,%esp
80100b87:	6a 00                	push   $0x0
80100b89:	6a 01                	push   $0x1
80100b8b:	e8 dc 1f 00 00       	call   80102b6c <ioapicenable>
80100b90:	83 c4 10             	add    $0x10,%esp
80100b93:	90                   	nop
80100b94:	c9                   	leave  
80100b95:	c3                   	ret    

80100b96 <exec>:
80100b96:	55                   	push   %ebp
80100b97:	89 e5                	mov    %esp,%ebp
80100b99:	81 ec 18 01 00 00    	sub    $0x118,%esp
80100b9f:	e8 62 37 00 00       	call   80104306 <myproc>
80100ba4:	89 45 d0             	mov    %eax,-0x30(%ebp)
80100ba7:	e8 d1 29 00 00       	call   8010357d <begin_op>
80100bac:	83 ec 0c             	sub    $0xc,%esp
80100baf:	ff 75 08             	pushl  0x8(%ebp)
80100bb2:	e8 e1 19 00 00       	call   80102598 <namei>
80100bb7:	83 c4 10             	add    $0x10,%esp
80100bba:	89 45 d8             	mov    %eax,-0x28(%ebp)
80100bbd:	83 7d d8 00          	cmpl   $0x0,-0x28(%ebp)
80100bc1:	75 1f                	jne    80100be2 <exec+0x4c>
80100bc3:	e8 41 2a 00 00       	call   80103609 <end_op>
80100bc8:	83 ec 0c             	sub    $0xc,%esp
80100bcb:	68 d6 8d 10 80       	push   $0x80108dd6
80100bd0:	e8 2b f8 ff ff       	call   80100400 <cprintf>
80100bd5:	83 c4 10             	add    $0x10,%esp
80100bd8:	b8 ff ff ff ff       	mov    $0xffffffff,%eax
80100bdd:	e9 39 04 00 00       	jmp    8010101b <exec+0x485>
80100be2:	83 ec 0c             	sub    $0xc,%esp
80100be5:	ff 75 d8             	pushl  -0x28(%ebp)
80100be8:	e8 6b 0e 00 00       	call   80101a58 <ilock>
80100bed:	83 c4 10             	add    $0x10,%esp
80100bf0:	c7 45 d4 00 00 00 00 	movl   $0x0,-0x2c(%ebp)
80100bf7:	6a 34                	push   $0x34
80100bf9:	6a 00                	push   $0x0
80100bfb:	8d 85 08 ff ff ff    	lea    -0xf8(%ebp),%eax
80100c01:	50                   	push   %eax
80100c02:	ff 75 d8             	pushl  -0x28(%ebp)
80100c05:	e8 3f 13 00 00       	call   80101f49 <readi>
80100c0a:	83 c4 10             	add    $0x10,%esp
80100c0d:	83 f8 34             	cmp    $0x34,%eax
80100c10:	0f 85 ae 03 00 00    	jne    80100fc4 <exec+0x42e>
80100c16:	8b 85 08 ff ff ff    	mov    -0xf8(%ebp),%eax
80100c1c:	3d 7f 45 4c 46       	cmp    $0x464c457f,%eax
80100c21:	0f 85 a0 03 00 00    	jne    80100fc7 <exec+0x431>
80100c27:	e8 66 75 00 00       	call   80108192 <setupkvm>
80100c2c:	89 45 d4             	mov    %eax,-0x2c(%ebp)
80100c2f:	83 7d d4 00          	cmpl   $0x0,-0x2c(%ebp)
80100c33:	0f 84 91 03 00 00    	je     80100fca <exec+0x434>
80100c39:	c7 45 e0 00 00 00 00 	movl   $0x0,-0x20(%ebp)
80100c40:	c7 45 ec 00 00 00 00 	movl   $0x0,-0x14(%ebp)
80100c47:	8b 85 24 ff ff ff    	mov    -0xdc(%ebp),%eax
80100c4d:	89 45 e8             	mov    %eax,-0x18(%ebp)
80100c50:	e9 de 00 00 00       	jmp    80100d33 <exec+0x19d>
80100c55:	8b 45 e8             	mov    -0x18(%ebp),%eax
80100c58:	6a 20                	push   $0x20
80100c5a:	50                   	push   %eax
80100c5b:	8d 85 e8 fe ff ff    	lea    -0x118(%ebp),%eax
80100c61:	50                   	push   %eax
80100c62:	ff 75 d8             	pushl  -0x28(%ebp)
80100c65:	e8 df 12 00 00       	call   80101f49 <readi>
80100c6a:	83 c4 10             	add    $0x10,%esp
80100c6d:	83 f8 20             	cmp    $0x20,%eax
80100c70:	0f 85 57 03 00 00    	jne    80100fcd <exec+0x437>
80100c76:	8b 85 e8 fe ff ff    	mov    -0x118(%ebp),%eax
80100c7c:	83 f8 01             	cmp    $0x1,%eax
80100c7f:	0f 85 a0 00 00 00    	jne    80100d25 <exec+0x18f>
80100c85:	8b 95 fc fe ff ff    	mov    -0x104(%ebp),%edx
80100c8b:	8b 85 f8 fe ff ff    	mov    -0x108(%ebp),%eax
80100c91:	39 c2                	cmp    %eax,%edx
80100c93:	0f 82 37 03 00 00    	jb     80100fd0 <exec+0x43a>
80100c99:	8b 95 f0 fe ff ff    	mov    -0x110(%ebp),%edx
80100c9f:	8b 85 fc fe ff ff    	mov    -0x104(%ebp),%eax
80100ca5:	01 c2                	add    %eax,%edx
80100ca7:	8b 85 f0 fe ff ff    	mov    -0x110(%ebp),%eax
80100cad:	39 c2                	cmp    %eax,%edx
80100caf:	0f 82 1e 03 00 00    	jb     80100fd3 <exec+0x43d>
80100cb5:	8b 95 f0 fe ff ff    	mov    -0x110(%ebp),%edx
80100cbb:	8b 85 fc fe ff ff    	mov    -0x104(%ebp),%eax
80100cc1:	01 d0                	add    %edx,%eax
80100cc3:	83 ec 04             	sub    $0x4,%esp
80100cc6:	50                   	push   %eax
80100cc7:	ff 75 e0             	pushl  -0x20(%ebp)
80100cca:	ff 75 d4             	pushl  -0x2c(%ebp)
80100ccd:	e8 65 78 00 00       	call   80108537 <allocuvm>
80100cd2:	83 c4 10             	add    $0x10,%esp
80100cd5:	89 45 e0             	mov    %eax,-0x20(%ebp)
80100cd8:	83 7d e0 00          	cmpl   $0x0,-0x20(%ebp)
80100cdc:	0f 84 f4 02 00 00    	je     80100fd6 <exec+0x440>
80100ce2:	8b 85 f0 fe ff ff    	mov    -0x110(%ebp),%eax
80100ce8:	25 ff 0f 00 00       	and    $0xfff,%eax
80100ced:	85 c0                	test   %eax,%eax
80100cef:	0f 85 e4 02 00 00    	jne    80100fd9 <exec+0x443>
80100cf5:	8b 95 f8 fe ff ff    	mov    -0x108(%ebp),%edx
80100cfb:	8b 85 ec fe ff ff    	mov    -0x114(%ebp),%eax
80100d01:	8b 8d f0 fe ff ff    	mov    -0x110(%ebp),%ecx
80100d07:	83 ec 0c             	sub    $0xc,%esp
80100d0a:	52                   	push   %edx
80100d0b:	50                   	push   %eax
80100d0c:	ff 75 d8             	pushl  -0x28(%ebp)
80100d0f:	51                   	push   %ecx
80100d10:	ff 75 d4             	pushl  -0x2c(%ebp)
80100d13:	e8 52 77 00 00       	call   8010846a <loaduvm>
80100d18:	83 c4 20             	add    $0x20,%esp
80100d1b:	85 c0                	test   %eax,%eax
80100d1d:	0f 88 b9 02 00 00    	js     80100fdc <exec+0x446>
80100d23:	eb 01                	jmp    80100d26 <exec+0x190>
80100d25:	90                   	nop
80100d26:	83 45 ec 01          	addl   $0x1,-0x14(%ebp)
80100d2a:	8b 45 e8             	mov    -0x18(%ebp),%eax
80100d2d:	83 c0 20             	add    $0x20,%eax
80100d30:	89 45 e8             	mov    %eax,-0x18(%ebp)
80100d33:	0f b7 85 34 ff ff ff 	movzwl -0xcc(%ebp),%eax
80100d3a:	0f b7 c0             	movzwl %ax,%eax
80100d3d:	3b 45 ec             	cmp    -0x14(%ebp),%eax
80100d40:	0f 8f 0f ff ff ff    	jg     80100c55 <exec+0xbf>
80100d46:	83 ec 0c             	sub    $0xc,%esp
80100d49:	ff 75 d8             	pushl  -0x28(%ebp)
80100d4c:	e8 38 0f 00 00       	call   80101c89 <iunlockput>
80100d51:	83 c4 10             	add    $0x10,%esp
80100d54:	e8 b0 28 00 00       	call   80103609 <end_op>
80100d59:	c7 45 d8 00 00 00 00 	movl   $0x0,-0x28(%ebp)
80100d60:	8b 45 e0             	mov    -0x20(%ebp),%eax
80100d63:	05 ff 0f 00 00       	add    $0xfff,%eax
80100d68:	25 00 f0 ff ff       	and    $0xfffff000,%eax
80100d6d:	89 45 e0             	mov    %eax,-0x20(%ebp)
80100d70:	8b 45 e0             	mov    -0x20(%ebp),%eax
80100d73:	05 00 20 00 00       	add    $0x2000,%eax
80100d78:	83 ec 04             	sub    $0x4,%esp
80100d7b:	50                   	push   %eax
80100d7c:	ff 75 e0             	pushl  -0x20(%ebp)
80100d7f:	ff 75 d4             	pushl  -0x2c(%ebp)
80100d82:	e8 b0 77 00 00       	call   80108537 <allocuvm>
80100d87:	83 c4 10             	add    $0x10,%esp
80100d8a:	89 45 e0             	mov    %eax,-0x20(%ebp)
80100d8d:	83 7d e0 00          	cmpl   $0x0,-0x20(%ebp)
80100d91:	0f 84 48 02 00 00    	je     80100fdf <exec+0x449>
80100d97:	8b 45 e0             	mov    -0x20(%ebp),%eax
80100d9a:	2d 00 20 00 00       	sub    $0x2000,%eax
80100d9f:	83 ec 08             	sub    $0x8,%esp
80100da2:	50                   	push   %eax
80100da3:	ff 75 d4             	pushl  -0x2c(%ebp)
80100da6:	e8 ee 79 00 00       	call   80108799 <clearpteu>
80100dab:	83 c4 10             	add    $0x10,%esp
80100dae:	8b 45 e0             	mov    -0x20(%ebp),%eax
80100db1:	89 45 dc             	mov    %eax,-0x24(%ebp)
80100db4:	c7 45 e4 00 00 00 00 	movl   $0x0,-0x1c(%ebp)
80100dbb:	e9 96 00 00 00       	jmp    80100e56 <exec+0x2c0>
80100dc0:	83 7d e4 1f          	cmpl   $0x1f,-0x1c(%ebp)
80100dc4:	0f 87 18 02 00 00    	ja     80100fe2 <exec+0x44c>
80100dca:	8b 45 e4             	mov    -0x1c(%ebp),%eax
80100dcd:	8d 14 85 00 00 00 00 	lea    0x0(,%eax,4),%edx
80100dd4:	8b 45 0c             	mov    0xc(%ebp),%eax
80100dd7:	01 d0                	add    %edx,%eax
80100dd9:	8b 00                	mov    (%eax),%eax
80100ddb:	83 ec 0c             	sub    $0xc,%esp
80100dde:	50                   	push   %eax
80100ddf:	e8 5b 4b 00 00       	call   8010593f <strlen>
80100de4:	83 c4 10             	add    $0x10,%esp
80100de7:	89 c2                	mov    %eax,%edx
80100de9:	8b 45 dc             	mov    -0x24(%ebp),%eax
80100dec:	29 d0                	sub    %edx,%eax
80100dee:	83 e8 01             	sub    $0x1,%eax
80100df1:	83 e0 fc             	and    $0xfffffffc,%eax
80100df4:	89 45 dc             	mov    %eax,-0x24(%ebp)
80100df7:	8b 45 e4             	mov    -0x1c(%ebp),%eax
80100dfa:	8d 14 85 00 00 00 00 	lea    0x0(,%eax,4),%edx
80100e01:	8b 45 0c             	mov    0xc(%ebp),%eax
80100e04:	01 d0                	add    %edx,%eax
80100e06:	8b 00                	mov    (%eax),%eax
80100e08:	83 ec 0c             	sub    $0xc,%esp
80100e0b:	50                   	push   %eax
80100e0c:	e8 2e 4b 00 00       	call   8010593f <strlen>
80100e11:	83 c4 10             	add    $0x10,%esp
80100e14:	83 c0 01             	add    $0x1,%eax
80100e17:	89 c1                	mov    %eax,%ecx
80100e19:	8b 45 e4             	mov    -0x1c(%ebp),%eax
80100e1c:	8d 14 85 00 00 00 00 	lea    0x0(,%eax,4),%edx
80100e23:	8b 45 0c             	mov    0xc(%ebp),%eax
80100e26:	01 d0                	add    %edx,%eax
80100e28:	8b 00                	mov    (%eax),%eax
80100e2a:	51                   	push   %ecx
80100e2b:	50                   	push   %eax
80100e2c:	ff 75 dc             	pushl  -0x24(%ebp)
80100e2f:	ff 75 d4             	pushl  -0x2c(%ebp)
80100e32:	e8 01 7b 00 00       	call   80108938 <copyout>
80100e37:	83 c4 10             	add    $0x10,%esp
80100e3a:	85 c0                	test   %eax,%eax
80100e3c:	0f 88 a3 01 00 00    	js     80100fe5 <exec+0x44f>
80100e42:	8b 45 e4             	mov    -0x1c(%ebp),%eax
80100e45:	8d 50 03             	lea    0x3(%eax),%edx
80100e48:	8b 45 dc             	mov    -0x24(%ebp),%eax
80100e4b:	89 84 95 3c ff ff ff 	mov    %eax,-0xc4(%ebp,%edx,4)
80100e52:	83 45 e4 01          	addl   $0x1,-0x1c(%ebp)
80100e56:	8b 45 e4             	mov    -0x1c(%ebp),%eax
80100e59:	8d 14 85 00 00 00 00 	lea    0x0(,%eax,4),%edx
80100e60:	8b 45 0c             	mov    0xc(%ebp),%eax
80100e63:	01 d0                	add    %edx,%eax
80100e65:	8b 00                	mov    (%eax),%eax
80100e67:	85 c0                	test   %eax,%eax
80100e69:	0f 85 51 ff ff ff    	jne    80100dc0 <exec+0x22a>
80100e6f:	8b 45 e4             	mov    -0x1c(%ebp),%eax
80100e72:	83 c0 03             	add    $0x3,%eax
80100e75:	c7 84 85 3c ff ff ff 	movl   $0x0,-0xc4(%ebp,%eax,4)
80100e7c:	00 00 00 00 
80100e80:	c7 85 3c ff ff ff ff 	movl   $0xffffffff,-0xc4(%ebp)
80100e87:	ff ff ff 
80100e8a:	8b 45 e4             	mov    -0x1c(%ebp),%eax
80100e8d:	89 85 40 ff ff ff    	mov    %eax,-0xc0(%ebp)
80100e93:	8b 45 e4             	mov    -0x1c(%ebp),%eax
80100e96:	83 c0 01             	add    $0x1,%eax
80100e99:	8d 14 85 00 00 00 00 	lea    0x0(,%eax,4),%edx
80100ea0:	8b 45 dc             	mov    -0x24(%ebp),%eax
80100ea3:	29 d0                	sub    %edx,%eax
80100ea5:	89 85 44 ff ff ff    	mov    %eax,-0xbc(%ebp)
80100eab:	8b 45 e4             	mov    -0x1c(%ebp),%eax
80100eae:	83 c0 04             	add    $0x4,%eax
80100eb1:	c1 e0 02             	shl    $0x2,%eax
80100eb4:	29 45 dc             	sub    %eax,-0x24(%ebp)
80100eb7:	8b 45 e4             	mov    -0x1c(%ebp),%eax
80100eba:	83 c0 04             	add    $0x4,%eax
80100ebd:	c1 e0 02             	shl    $0x2,%eax
80100ec0:	50                   	push   %eax
80100ec1:	8d 85 3c ff ff ff    	lea    -0xc4(%ebp),%eax
80100ec7:	50                   	push   %eax
80100ec8:	ff 75 dc             	pushl  -0x24(%ebp)
80100ecb:	ff 75 d4             	pushl  -0x2c(%ebp)
80100ece:	e8 65 7a 00 00       	call   80108938 <copyout>
80100ed3:	83 c4 10             	add    $0x10,%esp
80100ed6:	85 c0                	test   %eax,%eax
80100ed8:	0f 88 0a 01 00 00    	js     80100fe8 <exec+0x452>
80100ede:	8b 45 08             	mov    0x8(%ebp),%eax
80100ee1:	89 45 f4             	mov    %eax,-0xc(%ebp)
80100ee4:	8b 45 f4             	mov    -0xc(%ebp),%eax
80100ee7:	89 45 f0             	mov    %eax,-0x10(%ebp)
80100eea:	eb 17                	jmp    80100f03 <exec+0x36d>
80100eec:	8b 45 f4             	mov    -0xc(%ebp),%eax
80100eef:	0f b6 00             	movzbl (%eax),%eax
80100ef2:	3c 2f                	cmp    $0x2f,%al
80100ef4:	75 09                	jne    80100eff <exec+0x369>
80100ef6:	8b 45 f4             	mov    -0xc(%ebp),%eax
80100ef9:	83 c0 01             	add    $0x1,%eax
80100efc:	89 45 f0             	mov    %eax,-0x10(%ebp)
80100eff:	83 45 f4 01          	addl   $0x1,-0xc(%ebp)
80100f03:	8b 45 f4             	mov    -0xc(%ebp),%eax
80100f06:	0f b6 00             	movzbl (%eax),%eax
80100f09:	84 c0                	test   %al,%al
80100f0b:	75 df                	jne    80100eec <exec+0x356>
80100f0d:	8b 45 d0             	mov    -0x30(%ebp),%eax
80100f10:	83 c0 6c             	add    $0x6c,%eax
80100f13:	83 ec 04             	sub    $0x4,%esp
80100f16:	6a 10                	push   $0x10
80100f18:	ff 75 f0             	pushl  -0x10(%ebp)
80100f1b:	50                   	push   %eax
80100f1c:	e8 d4 49 00 00       	call   801058f5 <safestrcpy>
80100f21:	83 c4 10             	add    $0x10,%esp
80100f24:	8b 45 d0             	mov    -0x30(%ebp),%eax
80100f27:	8b 40 04             	mov    0x4(%eax),%eax
80100f2a:	89 45 cc             	mov    %eax,-0x34(%ebp)
80100f2d:	8b 45 d0             	mov    -0x30(%ebp),%eax
80100f30:	8b 55 d4             	mov    -0x2c(%ebp),%edx
80100f33:	89 50 04             	mov    %edx,0x4(%eax)
80100f36:	8b 45 d0             	mov    -0x30(%ebp),%eax
80100f39:	8b 55 e0             	mov    -0x20(%ebp),%edx
80100f3c:	89 10                	mov    %edx,(%eax)
80100f3e:	8b 45 d0             	mov    -0x30(%ebp),%eax
80100f41:	8b 40 18             	mov    0x18(%eax),%eax
80100f44:	8b 95 20 ff ff ff    	mov    -0xe0(%ebp),%edx
80100f4a:	89 50 38             	mov    %edx,0x38(%eax)
80100f4d:	8b 45 d0             	mov    -0x30(%ebp),%eax
80100f50:	8b 40 18             	mov    0x18(%eax),%eax
80100f53:	8b 55 dc             	mov    -0x24(%ebp),%edx
80100f56:	89 50 44             	mov    %edx,0x44(%eax)
80100f59:	83 ec 0c             	sub    $0xc,%esp
80100f5c:	ff 75 d0             	pushl  -0x30(%ebp)
80100f5f:	e8 f8 72 00 00       	call   8010825c <switchuvm>
80100f64:	83 c4 10             	add    $0x10,%esp
80100f67:	83 ec 0c             	sub    $0xc,%esp
80100f6a:	ff 75 cc             	pushl  -0x34(%ebp)
80100f6d:	e8 8e 77 00 00       	call   80108700 <freevm>
80100f72:	83 c4 10             	add    $0x10,%esp
80100f75:	c7 45 ec 00 00 00 00 	movl   $0x0,-0x14(%ebp)
80100f7c:	eb 39                	jmp    80100fb7 <exec+0x421>
80100f7e:	8b 45 d0             	mov    -0x30(%ebp),%eax
80100f81:	8b 55 ec             	mov    -0x14(%ebp),%edx
80100f84:	83 c2 20             	add    $0x20,%edx
80100f87:	8b 44 90 0c          	mov    0xc(%eax,%edx,4),%eax
80100f8b:	83 f8 ff             	cmp    $0xffffffff,%eax
80100f8e:	74 23                	je     80100fb3 <exec+0x41d>
80100f90:	8b 45 d0             	mov    -0x30(%ebp),%eax
80100f93:	8b 55 ec             	mov    -0x14(%ebp),%edx
80100f96:	83 c2 20             	add    $0x20,%edx
80100f99:	8b 44 90 0c          	mov    0xc(%eax,%edx,4),%eax
80100f9d:	83 f8 01             	cmp    $0x1,%eax
80100fa0:	74 11                	je     80100fb3 <exec+0x41d>
80100fa2:	8b 45 d0             	mov    -0x30(%ebp),%eax
80100fa5:	8b 55 ec             	mov    -0x14(%ebp),%edx
80100fa8:	83 c2 20             	add    $0x20,%edx
80100fab:	c7 44 90 0c ff ff ff 	movl   $0xffffffff,0xc(%eax,%edx,4)
80100fb2:	ff 
80100fb3:	83 45 ec 01          	addl   $0x1,-0x14(%ebp)
80100fb7:	83 7d ec 1f          	cmpl   $0x1f,-0x14(%ebp)
80100fbb:	7e c1                	jle    80100f7e <exec+0x3e8>
80100fbd:	b8 00 00 00 00       	mov    $0x0,%eax
80100fc2:	eb 57                	jmp    8010101b <exec+0x485>
80100fc4:	90                   	nop
80100fc5:	eb 22                	jmp    80100fe9 <exec+0x453>
80100fc7:	90                   	nop
80100fc8:	eb 1f                	jmp    80100fe9 <exec+0x453>
80100fca:	90                   	nop
80100fcb:	eb 1c                	jmp    80100fe9 <exec+0x453>
80100fcd:	90                   	nop
80100fce:	eb 19                	jmp    80100fe9 <exec+0x453>
80100fd0:	90                   	nop
80100fd1:	eb 16                	jmp    80100fe9 <exec+0x453>
80100fd3:	90                   	nop
80100fd4:	eb 13                	jmp    80100fe9 <exec+0x453>
80100fd6:	90                   	nop
80100fd7:	eb 10                	jmp    80100fe9 <exec+0x453>
80100fd9:	90                   	nop
80100fda:	eb 0d                	jmp    80100fe9 <exec+0x453>
80100fdc:	90                   	nop
80100fdd:	eb 0a                	jmp    80100fe9 <exec+0x453>
80100fdf:	90                   	nop
80100fe0:	eb 07                	jmp    80100fe9 <exec+0x453>
80100fe2:	90                   	nop
80100fe3:	eb 04                	jmp    80100fe9 <exec+0x453>
80100fe5:	90                   	nop
80100fe6:	eb 01                	jmp    80100fe9 <exec+0x453>
80100fe8:	90                   	nop
80100fe9:	83 7d d4 00          	cmpl   $0x0,-0x2c(%ebp)
80100fed:	74 0e                	je     80100ffd <exec+0x467>
80100fef:	83 ec 0c             	sub    $0xc,%esp
80100ff2:	ff 75 d4             	pushl  -0x2c(%ebp)
80100ff5:	e8 06 77 00 00       	call   80108700 <freevm>
80100ffa:	83 c4 10             	add    $0x10,%esp
80100ffd:	83 7d d8 00          	cmpl   $0x0,-0x28(%ebp)
80101001:	74 13                	je     80101016 <exec+0x480>
80101003:	83 ec 0c             	sub    $0xc,%esp
80101006:	ff 75 d8             	pushl  -0x28(%ebp)
80101009:	e8 7b 0c 00 00       	call   80101c89 <iunlockput>
8010100e:	83 c4 10             	add    $0x10,%esp
80101011:	e8 f3 25 00 00       	call   80103609 <end_op>
80101016:	b8 ff ff ff ff       	mov    $0xffffffff,%eax
8010101b:	c9                   	leave  
8010101c:	c3                   	ret    

8010101d <fileinit>:
8010101d:	55                   	push   %ebp
8010101e:	89 e5                	mov    %esp,%ebp
80101020:	83 ec 08             	sub    $0x8,%esp
80101023:	83 ec 08             	sub    $0x8,%esp
80101026:	68 e2 8d 10 80       	push   $0x80108de2
8010102b:	68 60 20 11 80       	push   $0x80112060
80101030:	e8 24 44 00 00       	call   80105459 <initlock>
80101035:	83 c4 10             	add    $0x10,%esp
80101038:	90                   	nop
80101039:	c9                   	leave  
8010103a:	c3                   	ret    

8010103b <filealloc>:
8010103b:	55                   	push   %ebp
8010103c:	89 e5                	mov    %esp,%ebp
8010103e:	83 ec 18             	sub    $0x18,%esp
80101041:	83 ec 0c             	sub    $0xc,%esp
80101044:	68 60 20 11 80       	push   $0x80112060
80101049:	e8 2d 44 00 00       	call   8010547b <acquire>
8010104e:	83 c4 10             	add    $0x10,%esp
80101051:	c7 45 f4 94 20 11 80 	movl   $0x80112094,-0xc(%ebp)
80101058:	eb 2d                	jmp    80101087 <filealloc+0x4c>
8010105a:	8b 45 f4             	mov    -0xc(%ebp),%eax
8010105d:	8b 40 04             	mov    0x4(%eax),%eax
80101060:	85 c0                	test   %eax,%eax
80101062:	75 1f                	jne    80101083 <filealloc+0x48>
80101064:	8b 45 f4             	mov    -0xc(%ebp),%eax
80101067:	c7 40 04 01 00 00 00 	movl   $0x1,0x4(%eax)
8010106e:	83 ec 0c             	sub    $0xc,%esp
80101071:	68 60 20 11 80       	push   $0x80112060
80101076:	e8 6e 44 00 00       	call   801054e9 <release>
8010107b:	83 c4 10             	add    $0x10,%esp
8010107e:	8b 45 f4             	mov    -0xc(%ebp),%eax
80101081:	eb 23                	jmp    801010a6 <filealloc+0x6b>
80101083:	83 45 f4 18          	addl   $0x18,-0xc(%ebp)
80101087:	b8 f4 29 11 80       	mov    $0x801129f4,%eax
8010108c:	39 45 f4             	cmp    %eax,-0xc(%ebp)
8010108f:	72 c9                	jb     8010105a <filealloc+0x1f>
80101091:	83 ec 0c             	sub    $0xc,%esp
80101094:	68 60 20 11 80       	push   $0x80112060
80101099:	e8 4b 44 00 00       	call   801054e9 <release>
8010109e:	83 c4 10             	add    $0x10,%esp
801010a1:	b8 00 00 00 00       	mov    $0x0,%eax
801010a6:	c9                   	leave  
801010a7:	c3                   	ret    

801010a8 <filedup>:
801010a8:	55                   	push   %ebp
801010a9:	89 e5                	mov    %esp,%ebp
801010ab:	83 ec 08             	sub    $0x8,%esp
801010ae:	83 ec 0c             	sub    $0xc,%esp
801010b1:	68 60 20 11 80       	push   $0x80112060
801010b6:	e8 c0 43 00 00       	call   8010547b <acquire>
801010bb:	83 c4 10             	add    $0x10,%esp
801010be:	8b 45 08             	mov    0x8(%ebp),%eax
801010c1:	8b 40 04             	mov    0x4(%eax),%eax
801010c4:	85 c0                	test   %eax,%eax
801010c6:	7f 0d                	jg     801010d5 <filedup+0x2d>
801010c8:	83 ec 0c             	sub    $0xc,%esp
801010cb:	68 e9 8d 10 80       	push   $0x80108de9
801010d0:	e8 cb f4 ff ff       	call   801005a0 <panic>
801010d5:	8b 45 08             	mov    0x8(%ebp),%eax
801010d8:	8b 40 04             	mov    0x4(%eax),%eax
801010db:	8d 50 01             	lea    0x1(%eax),%edx
801010de:	8b 45 08             	mov    0x8(%ebp),%eax
801010e1:	89 50 04             	mov    %edx,0x4(%eax)
801010e4:	83 ec 0c             	sub    $0xc,%esp
801010e7:	68 60 20 11 80       	push   $0x80112060
801010ec:	e8 f8 43 00 00       	call   801054e9 <release>
801010f1:	83 c4 10             	add    $0x10,%esp
801010f4:	8b 45 08             	mov    0x8(%ebp),%eax
801010f7:	c9                   	leave  
801010f8:	c3                   	ret    

801010f9 <fileclose>:
801010f9:	55                   	push   %ebp
801010fa:	89 e5                	mov    %esp,%ebp
801010fc:	83 ec 28             	sub    $0x28,%esp
801010ff:	83 ec 0c             	sub    $0xc,%esp
80101102:	68 60 20 11 80       	push   $0x80112060
80101107:	e8 6f 43 00 00       	call   8010547b <acquire>
8010110c:	83 c4 10             	add    $0x10,%esp
8010110f:	8b 45 08             	mov    0x8(%ebp),%eax
80101112:	8b 40 04             	mov    0x4(%eax),%eax
80101115:	85 c0                	test   %eax,%eax
80101117:	7f 0d                	jg     80101126 <fileclose+0x2d>
80101119:	83 ec 0c             	sub    $0xc,%esp
8010111c:	68 f1 8d 10 80       	push   $0x80108df1
80101121:	e8 7a f4 ff ff       	call   801005a0 <panic>
80101126:	8b 45 08             	mov    0x8(%ebp),%eax
80101129:	8b 40 04             	mov    0x4(%eax),%eax
8010112c:	8d 50 ff             	lea    -0x1(%eax),%edx
8010112f:	8b 45 08             	mov    0x8(%ebp),%eax
80101132:	89 50 04             	mov    %edx,0x4(%eax)
80101135:	8b 45 08             	mov    0x8(%ebp),%eax
80101138:	8b 40 04             	mov    0x4(%eax),%eax
8010113b:	85 c0                	test   %eax,%eax
8010113d:	7e 15                	jle    80101154 <fileclose+0x5b>
8010113f:	83 ec 0c             	sub    $0xc,%esp
80101142:	68 60 20 11 80       	push   $0x80112060
80101147:	e8 9d 43 00 00       	call   801054e9 <release>
8010114c:	83 c4 10             	add    $0x10,%esp
8010114f:	e9 8b 00 00 00       	jmp    801011df <fileclose+0xe6>
80101154:	8b 45 08             	mov    0x8(%ebp),%eax
80101157:	8b 10                	mov    (%eax),%edx
80101159:	89 55 e0             	mov    %edx,-0x20(%ebp)
8010115c:	8b 50 04             	mov    0x4(%eax),%edx
8010115f:	89 55 e4             	mov    %edx,-0x1c(%ebp)
80101162:	8b 50 08             	mov    0x8(%eax),%edx
80101165:	89 55 e8             	mov    %edx,-0x18(%ebp)
80101168:	8b 50 0c             	mov    0xc(%eax),%edx
8010116b:	89 55 ec             	mov    %edx,-0x14(%ebp)
8010116e:	8b 50 10             	mov    0x10(%eax),%edx
80101171:	89 55 f0             	mov    %edx,-0x10(%ebp)
80101174:	8b 40 14             	mov    0x14(%eax),%eax
80101177:	89 45 f4             	mov    %eax,-0xc(%ebp)
8010117a:	8b 45 08             	mov    0x8(%ebp),%eax
8010117d:	c7 40 04 00 00 00 00 	movl   $0x0,0x4(%eax)
80101184:	8b 45 08             	mov    0x8(%ebp),%eax
80101187:	c7 00 00 00 00 00    	movl   $0x0,(%eax)
8010118d:	83 ec 0c             	sub    $0xc,%esp
80101190:	68 60 20 11 80       	push   $0x80112060
80101195:	e8 4f 43 00 00       	call   801054e9 <release>
8010119a:	83 c4 10             	add    $0x10,%esp
8010119d:	8b 45 e0             	mov    -0x20(%ebp),%eax
801011a0:	83 f8 01             	cmp    $0x1,%eax
801011a3:	75 19                	jne    801011be <fileclose+0xc5>
801011a5:	0f b6 45 e9          	movzbl -0x17(%ebp),%eax
801011a9:	0f be d0             	movsbl %al,%edx
801011ac:	8b 45 ec             	mov    -0x14(%ebp),%eax
801011af:	83 ec 08             	sub    $0x8,%esp
801011b2:	52                   	push   %edx
801011b3:	50                   	push   %eax
801011b4:	e8 a1 2d 00 00       	call   80103f5a <pipeclose>
801011b9:	83 c4 10             	add    $0x10,%esp
801011bc:	eb 21                	jmp    801011df <fileclose+0xe6>
801011be:	8b 45 e0             	mov    -0x20(%ebp),%eax
801011c1:	83 f8 02             	cmp    $0x2,%eax
801011c4:	75 19                	jne    801011df <fileclose+0xe6>
801011c6:	e8 b2 23 00 00       	call   8010357d <begin_op>
801011cb:	8b 45 f0             	mov    -0x10(%ebp),%eax
801011ce:	83 ec 0c             	sub    $0xc,%esp
801011d1:	50                   	push   %eax
801011d2:	e8 e2 09 00 00       	call   80101bb9 <iput>
801011d7:	83 c4 10             	add    $0x10,%esp
801011da:	e8 2a 24 00 00       	call   80103609 <end_op>
801011df:	c9                   	leave  
801011e0:	c3                   	ret    

801011e1 <filestat>:
801011e1:	55                   	push   %ebp
801011e2:	89 e5                	mov    %esp,%ebp
801011e4:	83 ec 08             	sub    $0x8,%esp
801011e7:	8b 45 08             	mov    0x8(%ebp),%eax
801011ea:	8b 00                	mov    (%eax),%eax
801011ec:	83 f8 02             	cmp    $0x2,%eax
801011ef:	75 40                	jne    80101231 <filestat+0x50>
801011f1:	8b 45 08             	mov    0x8(%ebp),%eax
801011f4:	8b 40 10             	mov    0x10(%eax),%eax
801011f7:	83 ec 0c             	sub    $0xc,%esp
801011fa:	50                   	push   %eax
801011fb:	e8 58 08 00 00       	call   80101a58 <ilock>
80101200:	83 c4 10             	add    $0x10,%esp
80101203:	8b 45 08             	mov    0x8(%ebp),%eax
80101206:	8b 40 10             	mov    0x10(%eax),%eax
80101209:	83 ec 08             	sub    $0x8,%esp
8010120c:	ff 75 0c             	pushl  0xc(%ebp)
8010120f:	50                   	push   %eax
80101210:	e8 ee 0c 00 00       	call   80101f03 <stati>
80101215:	83 c4 10             	add    $0x10,%esp
80101218:	8b 45 08             	mov    0x8(%ebp),%eax
8010121b:	8b 40 10             	mov    0x10(%eax),%eax
8010121e:	83 ec 0c             	sub    $0xc,%esp
80101221:	50                   	push   %eax
80101222:	e8 44 09 00 00       	call   80101b6b <iunlock>
80101227:	83 c4 10             	add    $0x10,%esp
8010122a:	b8 00 00 00 00       	mov    $0x0,%eax
8010122f:	eb 05                	jmp    80101236 <filestat+0x55>
80101231:	b8 ff ff ff ff       	mov    $0xffffffff,%eax
80101236:	c9                   	leave  
80101237:	c3                   	ret    

80101238 <fileread>:
80101238:	55                   	push   %ebp
80101239:	89 e5                	mov    %esp,%ebp
8010123b:	83 ec 18             	sub    $0x18,%esp
8010123e:	8b 45 08             	mov    0x8(%ebp),%eax
80101241:	0f b6 40 08          	movzbl 0x8(%eax),%eax
80101245:	84 c0                	test   %al,%al
80101247:	75 0a                	jne    80101253 <fileread+0x1b>
80101249:	b8 ff ff ff ff       	mov    $0xffffffff,%eax
8010124e:	e9 9b 00 00 00       	jmp    801012ee <fileread+0xb6>
80101253:	8b 45 08             	mov    0x8(%ebp),%eax
80101256:	8b 00                	mov    (%eax),%eax
80101258:	83 f8 01             	cmp    $0x1,%eax
8010125b:	75 1a                	jne    80101277 <fileread+0x3f>
8010125d:	8b 45 08             	mov    0x8(%ebp),%eax
80101260:	8b 40 0c             	mov    0xc(%eax),%eax
80101263:	83 ec 04             	sub    $0x4,%esp
80101266:	ff 75 10             	pushl  0x10(%ebp)
80101269:	ff 75 0c             	pushl  0xc(%ebp)
8010126c:	50                   	push   %eax
8010126d:	e8 8f 2e 00 00       	call   80104101 <piperead>
80101272:	83 c4 10             	add    $0x10,%esp
80101275:	eb 77                	jmp    801012ee <fileread+0xb6>
80101277:	8b 45 08             	mov    0x8(%ebp),%eax
8010127a:	8b 00                	mov    (%eax),%eax
8010127c:	83 f8 02             	cmp    $0x2,%eax
8010127f:	75 60                	jne    801012e1 <fileread+0xa9>
80101281:	8b 45 08             	mov    0x8(%ebp),%eax
80101284:	8b 40 10             	mov    0x10(%eax),%eax
80101287:	83 ec 0c             	sub    $0xc,%esp
8010128a:	50                   	push   %eax
8010128b:	e8 c8 07 00 00       	call   80101a58 <ilock>
80101290:	83 c4 10             	add    $0x10,%esp
80101293:	8b 4d 10             	mov    0x10(%ebp),%ecx
80101296:	8b 45 08             	mov    0x8(%ebp),%eax
80101299:	8b 50 14             	mov    0x14(%eax),%edx
8010129c:	8b 45 08             	mov    0x8(%ebp),%eax
8010129f:	8b 40 10             	mov    0x10(%eax),%eax
801012a2:	51                   	push   %ecx
801012a3:	52                   	push   %edx
801012a4:	ff 75 0c             	pushl  0xc(%ebp)
801012a7:	50                   	push   %eax
801012a8:	e8 9c 0c 00 00       	call   80101f49 <readi>
801012ad:	83 c4 10             	add    $0x10,%esp
801012b0:	89 45 f4             	mov    %eax,-0xc(%ebp)
801012b3:	83 7d f4 00          	cmpl   $0x0,-0xc(%ebp)
801012b7:	7e 11                	jle    801012ca <fileread+0x92>
801012b9:	8b 45 08             	mov    0x8(%ebp),%eax
801012bc:	8b 50 14             	mov    0x14(%eax),%edx
801012bf:	8b 45 f4             	mov    -0xc(%ebp),%eax
801012c2:	01 c2                	add    %eax,%edx
801012c4:	8b 45 08             	mov    0x8(%ebp),%eax
801012c7:	89 50 14             	mov    %edx,0x14(%eax)
801012ca:	8b 45 08             	mov    0x8(%ebp),%eax
801012cd:	8b 40 10             	mov    0x10(%eax),%eax
801012d0:	83 ec 0c             	sub    $0xc,%esp
801012d3:	50                   	push   %eax
801012d4:	e8 92 08 00 00       	call   80101b6b <iunlock>
801012d9:	83 c4 10             	add    $0x10,%esp
801012dc:	8b 45 f4             	mov    -0xc(%ebp),%eax
801012df:	eb 0d                	jmp    801012ee <fileread+0xb6>
801012e1:	83 ec 0c             	sub    $0xc,%esp
801012e4:	68 fb 8d 10 80       	push   $0x80108dfb
801012e9:	e8 b2 f2 ff ff       	call   801005a0 <panic>
801012ee:	c9                   	leave  
801012ef:	c3                   	ret    

801012f0 <filewrite>:
801012f0:	55                   	push   %ebp
801012f1:	89 e5                	mov    %esp,%ebp
801012f3:	53                   	push   %ebx
801012f4:	83 ec 14             	sub    $0x14,%esp
801012f7:	8b 45 08             	mov    0x8(%ebp),%eax
801012fa:	0f b6 40 09          	movzbl 0x9(%eax),%eax
801012fe:	84 c0                	test   %al,%al
80101300:	75 0a                	jne    8010130c <filewrite+0x1c>
80101302:	b8 ff ff ff ff       	mov    $0xffffffff,%eax
80101307:	e9 1b 01 00 00       	jmp    80101427 <filewrite+0x137>
8010130c:	8b 45 08             	mov    0x8(%ebp),%eax
8010130f:	8b 00                	mov    (%eax),%eax
80101311:	83 f8 01             	cmp    $0x1,%eax
80101314:	75 1d                	jne    80101333 <filewrite+0x43>
80101316:	8b 45 08             	mov    0x8(%ebp),%eax
80101319:	8b 40 0c             	mov    0xc(%eax),%eax
8010131c:	83 ec 04             	sub    $0x4,%esp
8010131f:	ff 75 10             	pushl  0x10(%ebp)
80101322:	ff 75 0c             	pushl  0xc(%ebp)
80101325:	50                   	push   %eax
80101326:	e8 d9 2c 00 00       	call   80104004 <pipewrite>
8010132b:	83 c4 10             	add    $0x10,%esp
8010132e:	e9 f4 00 00 00       	jmp    80101427 <filewrite+0x137>
80101333:	8b 45 08             	mov    0x8(%ebp),%eax
80101336:	8b 00                	mov    (%eax),%eax
80101338:	83 f8 02             	cmp    $0x2,%eax
8010133b:	0f 85 d9 00 00 00    	jne    8010141a <filewrite+0x12a>
80101341:	c7 45 ec 00 06 00 00 	movl   $0x600,-0x14(%ebp)
80101348:	c7 45 f4 00 00 00 00 	movl   $0x0,-0xc(%ebp)
8010134f:	e9 a3 00 00 00       	jmp    801013f7 <filewrite+0x107>
80101354:	8b 45 10             	mov    0x10(%ebp),%eax
80101357:	2b 45 f4             	sub    -0xc(%ebp),%eax
8010135a:	89 45 f0             	mov    %eax,-0x10(%ebp)
8010135d:	8b 45 f0             	mov    -0x10(%ebp),%eax
80101360:	3b 45 ec             	cmp    -0x14(%ebp),%eax
80101363:	7e 06                	jle    8010136b <filewrite+0x7b>
80101365:	8b 45 ec             	mov    -0x14(%ebp),%eax
80101368:	89 45 f0             	mov    %eax,-0x10(%ebp)
8010136b:	e8 0d 22 00 00       	call   8010357d <begin_op>
80101370:	8b 45 08             	mov    0x8(%ebp),%eax
80101373:	8b 40 10             	mov    0x10(%eax),%eax
80101376:	83 ec 0c             	sub    $0xc,%esp
80101379:	50                   	push   %eax
8010137a:	e8 d9 06 00 00       	call   80101a58 <ilock>
8010137f:	83 c4 10             	add    $0x10,%esp
80101382:	8b 4d f0             	mov    -0x10(%ebp),%ecx
80101385:	8b 45 08             	mov    0x8(%ebp),%eax
80101388:	8b 50 14             	mov    0x14(%eax),%edx
8010138b:	8b 5d f4             	mov    -0xc(%ebp),%ebx
8010138e:	8b 45 0c             	mov    0xc(%ebp),%eax
80101391:	01 c3                	add    %eax,%ebx
80101393:	8b 45 08             	mov    0x8(%ebp),%eax
80101396:	8b 40 10             	mov    0x10(%eax),%eax
80101399:	51                   	push   %ecx
8010139a:	52                   	push   %edx
8010139b:	53                   	push   %ebx
8010139c:	50                   	push   %eax
8010139d:	e8 fe 0c 00 00       	call   801020a0 <writei>
801013a2:	83 c4 10             	add    $0x10,%esp
801013a5:	89 45 e8             	mov    %eax,-0x18(%ebp)
801013a8:	83 7d e8 00          	cmpl   $0x0,-0x18(%ebp)
801013ac:	7e 11                	jle    801013bf <filewrite+0xcf>
801013ae:	8b 45 08             	mov    0x8(%ebp),%eax
801013b1:	8b 50 14             	mov    0x14(%eax),%edx
801013b4:	8b 45 e8             	mov    -0x18(%ebp),%eax
801013b7:	01 c2                	add    %eax,%edx
801013b9:	8b 45 08             	mov    0x8(%ebp),%eax
801013bc:	89 50 14             	mov    %edx,0x14(%eax)
801013bf:	8b 45 08             	mov    0x8(%ebp),%eax
801013c2:	8b 40 10             	mov    0x10(%eax),%eax
801013c5:	83 ec 0c             	sub    $0xc,%esp
801013c8:	50                   	push   %eax
801013c9:	e8 9d 07 00 00       	call   80101b6b <iunlock>
801013ce:	83 c4 10             	add    $0x10,%esp
801013d1:	e8 33 22 00 00       	call   80103609 <end_op>
801013d6:	83 7d e8 00          	cmpl   $0x0,-0x18(%ebp)
801013da:	78 29                	js     80101405 <filewrite+0x115>
801013dc:	8b 45 e8             	mov    -0x18(%ebp),%eax
801013df:	3b 45 f0             	cmp    -0x10(%ebp),%eax
801013e2:	74 0d                	je     801013f1 <filewrite+0x101>
801013e4:	83 ec 0c             	sub    $0xc,%esp
801013e7:	68 04 8e 10 80       	push   $0x80108e04
801013ec:	e8 af f1 ff ff       	call   801005a0 <panic>
801013f1:	8b 45 e8             	mov    -0x18(%ebp),%eax
801013f4:	01 45 f4             	add    %eax,-0xc(%ebp)
801013f7:	8b 45 f4             	mov    -0xc(%ebp),%eax
801013fa:	3b 45 10             	cmp    0x10(%ebp),%eax
801013fd:	0f 8c 51 ff ff ff    	jl     80101354 <filewrite+0x64>
80101403:	eb 01                	jmp    80101406 <filewrite+0x116>
80101405:	90                   	nop
80101406:	8b 45 f4             	mov    -0xc(%ebp),%eax
80101409:	3b 45 10             	cmp    0x10(%ebp),%eax
8010140c:	75 05                	jne    80101413 <filewrite+0x123>
8010140e:	8b 45 10             	mov    0x10(%ebp),%eax
80101411:	eb 14                	jmp    80101427 <filewrite+0x137>
80101413:	b8 ff ff ff ff       	mov    $0xffffffff,%eax
80101418:	eb 0d                	jmp    80101427 <filewrite+0x137>
8010141a:	83 ec 0c             	sub    $0xc,%esp
8010141d:	68 14 8e 10 80       	push   $0x80108e14
80101422:	e8 79 f1 ff ff       	call   801005a0 <panic>
80101427:	8b 5d fc             	mov    -0x4(%ebp),%ebx
8010142a:	c9                   	leave  
8010142b:	c3                   	ret    

8010142c <readsb>:
8010142c:	55                   	push   %ebp
8010142d:	89 e5                	mov    %esp,%ebp
8010142f:	83 ec 18             	sub    $0x18,%esp
80101432:	8b 45 08             	mov    0x8(%ebp),%eax
80101435:	83 ec 08             	sub    $0x8,%esp
80101438:	6a 01                	push   $0x1
8010143a:	50                   	push   %eax
8010143b:	e8 8e ed ff ff       	call   801001ce <bread>
80101440:	83 c4 10             	add    $0x10,%esp
80101443:	89 45 f4             	mov    %eax,-0xc(%ebp)
80101446:	8b 45 f4             	mov    -0xc(%ebp),%eax
80101449:	83 c0 5c             	add    $0x5c,%eax
8010144c:	83 ec 04             	sub    $0x4,%esp
8010144f:	6a 1c                	push   $0x1c
80101451:	50                   	push   %eax
80101452:	ff 75 0c             	pushl  0xc(%ebp)
80101455:	e8 57 43 00 00       	call   801057b1 <memmove>
8010145a:	83 c4 10             	add    $0x10,%esp
8010145d:	83 ec 0c             	sub    $0xc,%esp
80101460:	ff 75 f4             	pushl  -0xc(%ebp)
80101463:	e8 e8 ed ff ff       	call   80100250 <brelse>
80101468:	83 c4 10             	add    $0x10,%esp
8010146b:	90                   	nop
8010146c:	c9                   	leave  
8010146d:	c3                   	ret    

8010146e <bzero>:
8010146e:	55                   	push   %ebp
8010146f:	89 e5                	mov    %esp,%ebp
80101471:	83 ec 18             	sub    $0x18,%esp
80101474:	8b 55 0c             	mov    0xc(%ebp),%edx
80101477:	8b 45 08             	mov    0x8(%ebp),%eax
8010147a:	83 ec 08             	sub    $0x8,%esp
8010147d:	52                   	push   %edx
8010147e:	50                   	push   %eax
8010147f:	e8 4a ed ff ff       	call   801001ce <bread>
80101484:	83 c4 10             	add    $0x10,%esp
80101487:	89 45 f4             	mov    %eax,-0xc(%ebp)
8010148a:	8b 45 f4             	mov    -0xc(%ebp),%eax
8010148d:	83 c0 5c             	add    $0x5c,%eax
80101490:	83 ec 04             	sub    $0x4,%esp
80101493:	68 00 02 00 00       	push   $0x200
80101498:	6a 00                	push   $0x0
8010149a:	50                   	push   %eax
8010149b:	e8 52 42 00 00       	call   801056f2 <memset>
801014a0:	83 c4 10             	add    $0x10,%esp
801014a3:	83 ec 0c             	sub    $0xc,%esp
801014a6:	ff 75 f4             	pushl  -0xc(%ebp)
801014a9:	e8 07 23 00 00       	call   801037b5 <log_write>
801014ae:	83 c4 10             	add    $0x10,%esp
801014b1:	83 ec 0c             	sub    $0xc,%esp
801014b4:	ff 75 f4             	pushl  -0xc(%ebp)
801014b7:	e8 94 ed ff ff       	call   80100250 <brelse>
801014bc:	83 c4 10             	add    $0x10,%esp
801014bf:	90                   	nop
801014c0:	c9                   	leave  
801014c1:	c3                   	ret    

801014c2 <balloc>:
801014c2:	55                   	push   %ebp
801014c3:	89 e5                	mov    %esp,%ebp
801014c5:	83 ec 18             	sub    $0x18,%esp
801014c8:	c7 45 ec 00 00 00 00 	movl   $0x0,-0x14(%ebp)
801014cf:	c7 45 f4 00 00 00 00 	movl   $0x0,-0xc(%ebp)
801014d6:	e9 13 01 00 00       	jmp    801015ee <balloc+0x12c>
801014db:	8b 45 f4             	mov    -0xc(%ebp),%eax
801014de:	8d 90 ff 0f 00 00    	lea    0xfff(%eax),%edx
801014e4:	85 c0                	test   %eax,%eax
801014e6:	0f 48 c2             	cmovs  %edx,%eax
801014e9:	c1 f8 0c             	sar    $0xc,%eax
801014ec:	89 c2                	mov    %eax,%edx
801014ee:	a1 78 2a 11 80       	mov    0x80112a78,%eax
801014f3:	01 d0                	add    %edx,%eax
801014f5:	83 ec 08             	sub    $0x8,%esp
801014f8:	50                   	push   %eax
801014f9:	ff 75 08             	pushl  0x8(%ebp)
801014fc:	e8 cd ec ff ff       	call   801001ce <bread>
80101501:	83 c4 10             	add    $0x10,%esp
80101504:	89 45 ec             	mov    %eax,-0x14(%ebp)
80101507:	c7 45 f0 00 00 00 00 	movl   $0x0,-0x10(%ebp)
8010150e:	e9 a6 00 00 00       	jmp    801015b9 <balloc+0xf7>
80101513:	8b 45 f0             	mov    -0x10(%ebp),%eax
80101516:	99                   	cltd   
80101517:	c1 ea 1d             	shr    $0x1d,%edx
8010151a:	01 d0                	add    %edx,%eax
8010151c:	83 e0 07             	and    $0x7,%eax
8010151f:	29 d0                	sub    %edx,%eax
80101521:	ba 01 00 00 00       	mov    $0x1,%edx
80101526:	89 c1                	mov    %eax,%ecx
80101528:	d3 e2                	shl    %cl,%edx
8010152a:	89 d0                	mov    %edx,%eax
8010152c:	89 45 e8             	mov    %eax,-0x18(%ebp)
8010152f:	8b 45 f0             	mov    -0x10(%ebp),%eax
80101532:	8d 50 07             	lea    0x7(%eax),%edx
80101535:	85 c0                	test   %eax,%eax
80101537:	0f 48 c2             	cmovs  %edx,%eax
8010153a:	c1 f8 03             	sar    $0x3,%eax
8010153d:	89 c2                	mov    %eax,%edx
8010153f:	8b 45 ec             	mov    -0x14(%ebp),%eax
80101542:	0f b6 44 10 5c       	movzbl 0x5c(%eax,%edx,1),%eax
80101547:	0f b6 c0             	movzbl %al,%eax
8010154a:	23 45 e8             	and    -0x18(%ebp),%eax
8010154d:	85 c0                	test   %eax,%eax
8010154f:	75 64                	jne    801015b5 <balloc+0xf3>
80101551:	8b 45 f0             	mov    -0x10(%ebp),%eax
80101554:	8d 50 07             	lea    0x7(%eax),%edx
80101557:	85 c0                	test   %eax,%eax
80101559:	0f 48 c2             	cmovs  %edx,%eax
8010155c:	c1 f8 03             	sar    $0x3,%eax
8010155f:	8b 55 ec             	mov    -0x14(%ebp),%edx
80101562:	0f b6 54 02 5c       	movzbl 0x5c(%edx,%eax,1),%edx
80101567:	89 d1                	mov    %edx,%ecx
80101569:	8b 55 e8             	mov    -0x18(%ebp),%edx
8010156c:	09 ca                	or     %ecx,%edx
8010156e:	89 d1                	mov    %edx,%ecx
80101570:	8b 55 ec             	mov    -0x14(%ebp),%edx
80101573:	88 4c 02 5c          	mov    %cl,0x5c(%edx,%eax,1)
80101577:	83 ec 0c             	sub    $0xc,%esp
8010157a:	ff 75 ec             	pushl  -0x14(%ebp)
8010157d:	e8 33 22 00 00       	call   801037b5 <log_write>
80101582:	83 c4 10             	add    $0x10,%esp
80101585:	83 ec 0c             	sub    $0xc,%esp
80101588:	ff 75 ec             	pushl  -0x14(%ebp)
8010158b:	e8 c0 ec ff ff       	call   80100250 <brelse>
80101590:	83 c4 10             	add    $0x10,%esp
80101593:	8b 55 f4             	mov    -0xc(%ebp),%edx
80101596:	8b 45 f0             	mov    -0x10(%ebp),%eax
80101599:	01 c2                	add    %eax,%edx
8010159b:	8b 45 08             	mov    0x8(%ebp),%eax
8010159e:	83 ec 08             	sub    $0x8,%esp
801015a1:	52                   	push   %edx
801015a2:	50                   	push   %eax
801015a3:	e8 c6 fe ff ff       	call   8010146e <bzero>
801015a8:	83 c4 10             	add    $0x10,%esp
801015ab:	8b 55 f4             	mov    -0xc(%ebp),%edx
801015ae:	8b 45 f0             	mov    -0x10(%ebp),%eax
801015b1:	01 d0                	add    %edx,%eax
801015b3:	eb 57                	jmp    8010160c <balloc+0x14a>
801015b5:	83 45 f0 01          	addl   $0x1,-0x10(%ebp)
801015b9:	81 7d f0 ff 0f 00 00 	cmpl   $0xfff,-0x10(%ebp)
801015c0:	7f 17                	jg     801015d9 <balloc+0x117>
801015c2:	8b 55 f4             	mov    -0xc(%ebp),%edx
801015c5:	8b 45 f0             	mov    -0x10(%ebp),%eax
801015c8:	01 d0                	add    %edx,%eax
801015ca:	89 c2                	mov    %eax,%edx
801015cc:	a1 60 2a 11 80       	mov    0x80112a60,%eax
801015d1:	39 c2                	cmp    %eax,%edx
801015d3:	0f 82 3a ff ff ff    	jb     80101513 <balloc+0x51>
801015d9:	83 ec 0c             	sub    $0xc,%esp
801015dc:	ff 75 ec             	pushl  -0x14(%ebp)
801015df:	e8 6c ec ff ff       	call   80100250 <brelse>
801015e4:	83 c4 10             	add    $0x10,%esp
801015e7:	81 45 f4 00 10 00 00 	addl   $0x1000,-0xc(%ebp)
801015ee:	8b 15 60 2a 11 80    	mov    0x80112a60,%edx
801015f4:	8b 45 f4             	mov    -0xc(%ebp),%eax
801015f7:	39 c2                	cmp    %eax,%edx
801015f9:	0f 87 dc fe ff ff    	ja     801014db <balloc+0x19>
801015ff:	83 ec 0c             	sub    $0xc,%esp
80101602:	68 20 8e 10 80       	push   $0x80108e20
80101607:	e8 94 ef ff ff       	call   801005a0 <panic>
8010160c:	c9                   	leave  
8010160d:	c3                   	ret    

8010160e <bfree>:
8010160e:	55                   	push   %ebp
8010160f:	89 e5                	mov    %esp,%ebp
80101611:	83 ec 18             	sub    $0x18,%esp
80101614:	83 ec 08             	sub    $0x8,%esp
80101617:	68 60 2a 11 80       	push   $0x80112a60
8010161c:	ff 75 08             	pushl  0x8(%ebp)
8010161f:	e8 08 fe ff ff       	call   8010142c <readsb>
80101624:	83 c4 10             	add    $0x10,%esp
80101627:	8b 45 0c             	mov    0xc(%ebp),%eax
8010162a:	c1 e8 0c             	shr    $0xc,%eax
8010162d:	89 c2                	mov    %eax,%edx
8010162f:	a1 78 2a 11 80       	mov    0x80112a78,%eax
80101634:	01 c2                	add    %eax,%edx
80101636:	8b 45 08             	mov    0x8(%ebp),%eax
80101639:	83 ec 08             	sub    $0x8,%esp
8010163c:	52                   	push   %edx
8010163d:	50                   	push   %eax
8010163e:	e8 8b eb ff ff       	call   801001ce <bread>
80101643:	83 c4 10             	add    $0x10,%esp
80101646:	89 45 f4             	mov    %eax,-0xc(%ebp)
80101649:	8b 45 0c             	mov    0xc(%ebp),%eax
8010164c:	25 ff 0f 00 00       	and    $0xfff,%eax
80101651:	89 45 f0             	mov    %eax,-0x10(%ebp)
80101654:	8b 45 f0             	mov    -0x10(%ebp),%eax
80101657:	99                   	cltd   
80101658:	c1 ea 1d             	shr    $0x1d,%edx
8010165b:	01 d0                	add    %edx,%eax
8010165d:	83 e0 07             	and    $0x7,%eax
80101660:	29 d0                	sub    %edx,%eax
80101662:	ba 01 00 00 00       	mov    $0x1,%edx
80101667:	89 c1                	mov    %eax,%ecx
80101669:	d3 e2                	shl    %cl,%edx
8010166b:	89 d0                	mov    %edx,%eax
8010166d:	89 45 ec             	mov    %eax,-0x14(%ebp)
80101670:	8b 45 f0             	mov    -0x10(%ebp),%eax
80101673:	8d 50 07             	lea    0x7(%eax),%edx
80101676:	85 c0                	test   %eax,%eax
80101678:	0f 48 c2             	cmovs  %edx,%eax
8010167b:	c1 f8 03             	sar    $0x3,%eax
8010167e:	89 c2                	mov    %eax,%edx
80101680:	8b 45 f4             	mov    -0xc(%ebp),%eax
80101683:	0f b6 44 10 5c       	movzbl 0x5c(%eax,%edx,1),%eax
80101688:	0f b6 c0             	movzbl %al,%eax
8010168b:	23 45 ec             	and    -0x14(%ebp),%eax
8010168e:	85 c0                	test   %eax,%eax
80101690:	75 0d                	jne    8010169f <bfree+0x91>
80101692:	83 ec 0c             	sub    $0xc,%esp
80101695:	68 36 8e 10 80       	push   $0x80108e36
8010169a:	e8 01 ef ff ff       	call   801005a0 <panic>
8010169f:	8b 45 f0             	mov    -0x10(%ebp),%eax
801016a2:	8d 50 07             	lea    0x7(%eax),%edx
801016a5:	85 c0                	test   %eax,%eax
801016a7:	0f 48 c2             	cmovs  %edx,%eax
801016aa:	c1 f8 03             	sar    $0x3,%eax
801016ad:	8b 55 f4             	mov    -0xc(%ebp),%edx
801016b0:	0f b6 54 02 5c       	movzbl 0x5c(%edx,%eax,1),%edx
801016b5:	89 d1                	mov    %edx,%ecx
801016b7:	8b 55 ec             	mov    -0x14(%ebp),%edx
801016ba:	f7 d2                	not    %edx
801016bc:	21 ca                	and    %ecx,%edx
801016be:	89 d1                	mov    %edx,%ecx
801016c0:	8b 55 f4             	mov    -0xc(%ebp),%edx
801016c3:	88 4c 02 5c          	mov    %cl,0x5c(%edx,%eax,1)
801016c7:	83 ec 0c             	sub    $0xc,%esp
801016ca:	ff 75 f4             	pushl  -0xc(%ebp)
801016cd:	e8 e3 20 00 00       	call   801037b5 <log_write>
801016d2:	83 c4 10             	add    $0x10,%esp
801016d5:	83 ec 0c             	sub    $0xc,%esp
801016d8:	ff 75 f4             	pushl  -0xc(%ebp)
801016db:	e8 70 eb ff ff       	call   80100250 <brelse>
801016e0:	83 c4 10             	add    $0x10,%esp
801016e3:	90                   	nop
801016e4:	c9                   	leave  
801016e5:	c3                   	ret    

801016e6 <iinit>:
801016e6:	55                   	push   %ebp
801016e7:	89 e5                	mov    %esp,%ebp
801016e9:	57                   	push   %edi
801016ea:	56                   	push   %esi
801016eb:	53                   	push   %ebx
801016ec:	83 ec 2c             	sub    $0x2c,%esp
801016ef:	c7 45 e4 00 00 00 00 	movl   $0x0,-0x1c(%ebp)
801016f6:	83 ec 08             	sub    $0x8,%esp
801016f9:	68 49 8e 10 80       	push   $0x80108e49
801016fe:	68 80 2a 11 80       	push   $0x80112a80
80101703:	e8 51 3d 00 00       	call   80105459 <initlock>
80101708:	83 c4 10             	add    $0x10,%esp
8010170b:	c7 45 e4 00 00 00 00 	movl   $0x0,-0x1c(%ebp)
80101712:	eb 2d                	jmp    80101741 <iinit+0x5b>
80101714:	8b 55 e4             	mov    -0x1c(%ebp),%edx
80101717:	89 d0                	mov    %edx,%eax
80101719:	c1 e0 03             	shl    $0x3,%eax
8010171c:	01 d0                	add    %edx,%eax
8010171e:	c1 e0 04             	shl    $0x4,%eax
80101721:	83 c0 30             	add    $0x30,%eax
80101724:	05 80 2a 11 80       	add    $0x80112a80,%eax
80101729:	83 c0 10             	add    $0x10,%eax
8010172c:	83 ec 08             	sub    $0x8,%esp
8010172f:	68 50 8e 10 80       	push   $0x80108e50
80101734:	50                   	push   %eax
80101735:	e8 c2 3b 00 00       	call   801052fc <initsleeplock>
8010173a:	83 c4 10             	add    $0x10,%esp
8010173d:	83 45 e4 01          	addl   $0x1,-0x1c(%ebp)
80101741:	83 7d e4 31          	cmpl   $0x31,-0x1c(%ebp)
80101745:	7e cd                	jle    80101714 <iinit+0x2e>
80101747:	83 ec 08             	sub    $0x8,%esp
8010174a:	68 60 2a 11 80       	push   $0x80112a60
8010174f:	ff 75 08             	pushl  0x8(%ebp)
80101752:	e8 d5 fc ff ff       	call   8010142c <readsb>
80101757:	83 c4 10             	add    $0x10,%esp
8010175a:	a1 78 2a 11 80       	mov    0x80112a78,%eax
8010175f:	89 45 d4             	mov    %eax,-0x2c(%ebp)
80101762:	8b 3d 74 2a 11 80    	mov    0x80112a74,%edi
80101768:	8b 35 70 2a 11 80    	mov    0x80112a70,%esi
8010176e:	8b 1d 6c 2a 11 80    	mov    0x80112a6c,%ebx
80101774:	8b 0d 68 2a 11 80    	mov    0x80112a68,%ecx
8010177a:	8b 15 64 2a 11 80    	mov    0x80112a64,%edx
80101780:	a1 60 2a 11 80       	mov    0x80112a60,%eax
80101785:	ff 75 d4             	pushl  -0x2c(%ebp)
80101788:	57                   	push   %edi
80101789:	56                   	push   %esi
8010178a:	53                   	push   %ebx
8010178b:	51                   	push   %ecx
8010178c:	52                   	push   %edx
8010178d:	50                   	push   %eax
8010178e:	68 58 8e 10 80       	push   $0x80108e58
80101793:	e8 68 ec ff ff       	call   80100400 <cprintf>
80101798:	83 c4 20             	add    $0x20,%esp
8010179b:	90                   	nop
8010179c:	8d 65 f4             	lea    -0xc(%ebp),%esp
8010179f:	5b                   	pop    %ebx
801017a0:	5e                   	pop    %esi
801017a1:	5f                   	pop    %edi
801017a2:	5d                   	pop    %ebp
801017a3:	c3                   	ret    

801017a4 <ialloc>:
801017a4:	55                   	push   %ebp
801017a5:	89 e5                	mov    %esp,%ebp
801017a7:	83 ec 28             	sub    $0x28,%esp
801017aa:	8b 45 0c             	mov    0xc(%ebp),%eax
801017ad:	66 89 45 e4          	mov    %ax,-0x1c(%ebp)
801017b1:	c7 45 f4 01 00 00 00 	movl   $0x1,-0xc(%ebp)
801017b8:	e9 9e 00 00 00       	jmp    8010185b <ialloc+0xb7>
801017bd:	8b 45 f4             	mov    -0xc(%ebp),%eax
801017c0:	c1 e8 03             	shr    $0x3,%eax
801017c3:	89 c2                	mov    %eax,%edx
801017c5:	a1 74 2a 11 80       	mov    0x80112a74,%eax
801017ca:	01 d0                	add    %edx,%eax
801017cc:	83 ec 08             	sub    $0x8,%esp
801017cf:	50                   	push   %eax
801017d0:	ff 75 08             	pushl  0x8(%ebp)
801017d3:	e8 f6 e9 ff ff       	call   801001ce <bread>
801017d8:	83 c4 10             	add    $0x10,%esp
801017db:	89 45 f0             	mov    %eax,-0x10(%ebp)
801017de:	8b 45 f0             	mov    -0x10(%ebp),%eax
801017e1:	8d 50 5c             	lea    0x5c(%eax),%edx
801017e4:	8b 45 f4             	mov    -0xc(%ebp),%eax
801017e7:	83 e0 07             	and    $0x7,%eax
801017ea:	c1 e0 06             	shl    $0x6,%eax
801017ed:	01 d0                	add    %edx,%eax
801017ef:	89 45 ec             	mov    %eax,-0x14(%ebp)
801017f2:	8b 45 ec             	mov    -0x14(%ebp),%eax
801017f5:	0f b7 00             	movzwl (%eax),%eax
801017f8:	66 85 c0             	test   %ax,%ax
801017fb:	75 4c                	jne    80101849 <ialloc+0xa5>
801017fd:	83 ec 04             	sub    $0x4,%esp
80101800:	6a 40                	push   $0x40
80101802:	6a 00                	push   $0x0
80101804:	ff 75 ec             	pushl  -0x14(%ebp)
80101807:	e8 e6 3e 00 00       	call   801056f2 <memset>
8010180c:	83 c4 10             	add    $0x10,%esp
8010180f:	8b 45 ec             	mov    -0x14(%ebp),%eax
80101812:	0f b7 55 e4          	movzwl -0x1c(%ebp),%edx
80101816:	66 89 10             	mov    %dx,(%eax)
80101819:	83 ec 0c             	sub    $0xc,%esp
8010181c:	ff 75 f0             	pushl  -0x10(%ebp)
8010181f:	e8 91 1f 00 00       	call   801037b5 <log_write>
80101824:	83 c4 10             	add    $0x10,%esp
80101827:	83 ec 0c             	sub    $0xc,%esp
8010182a:	ff 75 f0             	pushl  -0x10(%ebp)
8010182d:	e8 1e ea ff ff       	call   80100250 <brelse>
80101832:	83 c4 10             	add    $0x10,%esp
80101835:	8b 45 f4             	mov    -0xc(%ebp),%eax
80101838:	83 ec 08             	sub    $0x8,%esp
8010183b:	50                   	push   %eax
8010183c:	ff 75 08             	pushl  0x8(%ebp)
8010183f:	e8 f8 00 00 00       	call   8010193c <iget>
80101844:	83 c4 10             	add    $0x10,%esp
80101847:	eb 30                	jmp    80101879 <ialloc+0xd5>
80101849:	83 ec 0c             	sub    $0xc,%esp
8010184c:	ff 75 f0             	pushl  -0x10(%ebp)
8010184f:	e8 fc e9 ff ff       	call   80100250 <brelse>
80101854:	83 c4 10             	add    $0x10,%esp
80101857:	83 45 f4 01          	addl   $0x1,-0xc(%ebp)
8010185b:	8b 15 68 2a 11 80    	mov    0x80112a68,%edx
80101861:	8b 45 f4             	mov    -0xc(%ebp),%eax
80101864:	39 c2                	cmp    %eax,%edx
80101866:	0f 87 51 ff ff ff    	ja     801017bd <ialloc+0x19>
8010186c:	83 ec 0c             	sub    $0xc,%esp
8010186f:	68 ab 8e 10 80       	push   $0x80108eab
80101874:	e8 27 ed ff ff       	call   801005a0 <panic>
80101879:	c9                   	leave  
8010187a:	c3                   	ret    

8010187b <iupdate>:
8010187b:	55                   	push   %ebp
8010187c:	89 e5                	mov    %esp,%ebp
8010187e:	83 ec 18             	sub    $0x18,%esp
80101881:	8b 45 08             	mov    0x8(%ebp),%eax
80101884:	8b 40 04             	mov    0x4(%eax),%eax
80101887:	c1 e8 03             	shr    $0x3,%eax
8010188a:	89 c2                	mov    %eax,%edx
8010188c:	a1 74 2a 11 80       	mov    0x80112a74,%eax
80101891:	01 c2                	add    %eax,%edx
80101893:	8b 45 08             	mov    0x8(%ebp),%eax
80101896:	8b 00                	mov    (%eax),%eax
80101898:	83 ec 08             	sub    $0x8,%esp
8010189b:	52                   	push   %edx
8010189c:	50                   	push   %eax
8010189d:	e8 2c e9 ff ff       	call   801001ce <bread>
801018a2:	83 c4 10             	add    $0x10,%esp
801018a5:	89 45 f4             	mov    %eax,-0xc(%ebp)
801018a8:	8b 45 f4             	mov    -0xc(%ebp),%eax
801018ab:	8d 50 5c             	lea    0x5c(%eax),%edx
801018ae:	8b 45 08             	mov    0x8(%ebp),%eax
801018b1:	8b 40 04             	mov    0x4(%eax),%eax
801018b4:	83 e0 07             	and    $0x7,%eax
801018b7:	c1 e0 06             	shl    $0x6,%eax
801018ba:	01 d0                	add    %edx,%eax
801018bc:	89 45 f0             	mov    %eax,-0x10(%ebp)
801018bf:	8b 45 08             	mov    0x8(%ebp),%eax
801018c2:	0f b7 50 50          	movzwl 0x50(%eax),%edx
801018c6:	8b 45 f0             	mov    -0x10(%ebp),%eax
801018c9:	66 89 10             	mov    %dx,(%eax)
801018cc:	8b 45 08             	mov    0x8(%ebp),%eax
801018cf:	0f b7 50 52          	movzwl 0x52(%eax),%edx
801018d3:	8b 45 f0             	mov    -0x10(%ebp),%eax
801018d6:	66 89 50 02          	mov    %dx,0x2(%eax)
801018da:	8b 45 08             	mov    0x8(%ebp),%eax
801018dd:	0f b7 50 54          	movzwl 0x54(%eax),%edx
801018e1:	8b 45 f0             	mov    -0x10(%ebp),%eax
801018e4:	66 89 50 04          	mov    %dx,0x4(%eax)
801018e8:	8b 45 08             	mov    0x8(%ebp),%eax
801018eb:	0f b7 50 56          	movzwl 0x56(%eax),%edx
801018ef:	8b 45 f0             	mov    -0x10(%ebp),%eax
801018f2:	66 89 50 06          	mov    %dx,0x6(%eax)
801018f6:	8b 45 08             	mov    0x8(%ebp),%eax
801018f9:	8b 50 58             	mov    0x58(%eax),%edx
801018fc:	8b 45 f0             	mov    -0x10(%ebp),%eax
801018ff:	89 50 08             	mov    %edx,0x8(%eax)
80101902:	8b 45 08             	mov    0x8(%ebp),%eax
80101905:	8d 50 5c             	lea    0x5c(%eax),%edx
80101908:	8b 45 f0             	mov    -0x10(%ebp),%eax
8010190b:	83 c0 0c             	add    $0xc,%eax
8010190e:	83 ec 04             	sub    $0x4,%esp
80101911:	6a 34                	push   $0x34
80101913:	52                   	push   %edx
80101914:	50                   	push   %eax
80101915:	e8 97 3e 00 00       	call   801057b1 <memmove>
8010191a:	83 c4 10             	add    $0x10,%esp
8010191d:	83 ec 0c             	sub    $0xc,%esp
80101920:	ff 75 f4             	pushl  -0xc(%ebp)
80101923:	e8 8d 1e 00 00       	call   801037b5 <log_write>
80101928:	83 c4 10             	add    $0x10,%esp
8010192b:	83 ec 0c             	sub    $0xc,%esp
8010192e:	ff 75 f4             	pushl  -0xc(%ebp)
80101931:	e8 1a e9 ff ff       	call   80100250 <brelse>
80101936:	83 c4 10             	add    $0x10,%esp
80101939:	90                   	nop
8010193a:	c9                   	leave  
8010193b:	c3                   	ret    

8010193c <iget>:
8010193c:	55                   	push   %ebp
8010193d:	89 e5                	mov    %esp,%ebp
8010193f:	83 ec 18             	sub    $0x18,%esp
80101942:	83 ec 0c             	sub    $0xc,%esp
80101945:	68 80 2a 11 80       	push   $0x80112a80
8010194a:	e8 2c 3b 00 00       	call   8010547b <acquire>
8010194f:	83 c4 10             	add    $0x10,%esp
80101952:	c7 45 f0 00 00 00 00 	movl   $0x0,-0x10(%ebp)
80101959:	c7 45 f4 b4 2a 11 80 	movl   $0x80112ab4,-0xc(%ebp)
80101960:	eb 60                	jmp    801019c2 <iget+0x86>
80101962:	8b 45 f4             	mov    -0xc(%ebp),%eax
80101965:	8b 40 08             	mov    0x8(%eax),%eax
80101968:	85 c0                	test   %eax,%eax
8010196a:	7e 39                	jle    801019a5 <iget+0x69>
8010196c:	8b 45 f4             	mov    -0xc(%ebp),%eax
8010196f:	8b 00                	mov    (%eax),%eax
80101971:	3b 45 08             	cmp    0x8(%ebp),%eax
80101974:	75 2f                	jne    801019a5 <iget+0x69>
80101976:	8b 45 f4             	mov    -0xc(%ebp),%eax
80101979:	8b 40 04             	mov    0x4(%eax),%eax
8010197c:	3b 45 0c             	cmp    0xc(%ebp),%eax
8010197f:	75 24                	jne    801019a5 <iget+0x69>
80101981:	8b 45 f4             	mov    -0xc(%ebp),%eax
80101984:	8b 40 08             	mov    0x8(%eax),%eax
80101987:	8d 50 01             	lea    0x1(%eax),%edx
8010198a:	8b 45 f4             	mov    -0xc(%ebp),%eax
8010198d:	89 50 08             	mov    %edx,0x8(%eax)
80101990:	83 ec 0c             	sub    $0xc,%esp
80101993:	68 80 2a 11 80       	push   $0x80112a80
80101998:	e8 4c 3b 00 00       	call   801054e9 <release>
8010199d:	83 c4 10             	add    $0x10,%esp
801019a0:	8b 45 f4             	mov    -0xc(%ebp),%eax
801019a3:	eb 77                	jmp    80101a1c <iget+0xe0>
801019a5:	83 7d f0 00          	cmpl   $0x0,-0x10(%ebp)
801019a9:	75 10                	jne    801019bb <iget+0x7f>
801019ab:	8b 45 f4             	mov    -0xc(%ebp),%eax
801019ae:	8b 40 08             	mov    0x8(%eax),%eax
801019b1:	85 c0                	test   %eax,%eax
801019b3:	75 06                	jne    801019bb <iget+0x7f>
801019b5:	8b 45 f4             	mov    -0xc(%ebp),%eax
801019b8:	89 45 f0             	mov    %eax,-0x10(%ebp)
801019bb:	81 45 f4 90 00 00 00 	addl   $0x90,-0xc(%ebp)
801019c2:	81 7d f4 d4 46 11 80 	cmpl   $0x801146d4,-0xc(%ebp)
801019c9:	72 97                	jb     80101962 <iget+0x26>
801019cb:	83 7d f0 00          	cmpl   $0x0,-0x10(%ebp)
801019cf:	75 0d                	jne    801019de <iget+0xa2>
801019d1:	83 ec 0c             	sub    $0xc,%esp
801019d4:	68 bd 8e 10 80       	push   $0x80108ebd
801019d9:	e8 c2 eb ff ff       	call   801005a0 <panic>
801019de:	8b 45 f0             	mov    -0x10(%ebp),%eax
801019e1:	89 45 f4             	mov    %eax,-0xc(%ebp)
801019e4:	8b 45 f4             	mov    -0xc(%ebp),%eax
801019e7:	8b 55 08             	mov    0x8(%ebp),%edx
801019ea:	89 10                	mov    %edx,(%eax)
801019ec:	8b 45 f4             	mov    -0xc(%ebp),%eax
801019ef:	8b 55 0c             	mov    0xc(%ebp),%edx
801019f2:	89 50 04             	mov    %edx,0x4(%eax)
801019f5:	8b 45 f4             	mov    -0xc(%ebp),%eax
801019f8:	c7 40 08 01 00 00 00 	movl   $0x1,0x8(%eax)
801019ff:	8b 45 f4             	mov    -0xc(%ebp),%eax
80101a02:	c7 40 4c 00 00 00 00 	movl   $0x0,0x4c(%eax)
80101a09:	83 ec 0c             	sub    $0xc,%esp
80101a0c:	68 80 2a 11 80       	push   $0x80112a80
80101a11:	e8 d3 3a 00 00       	call   801054e9 <release>
80101a16:	83 c4 10             	add    $0x10,%esp
80101a19:	8b 45 f4             	mov    -0xc(%ebp),%eax
80101a1c:	c9                   	leave  
80101a1d:	c3                   	ret    

80101a1e <idup>:
80101a1e:	55                   	push   %ebp
80101a1f:	89 e5                	mov    %esp,%ebp
80101a21:	83 ec 08             	sub    $0x8,%esp
80101a24:	83 ec 0c             	sub    $0xc,%esp
80101a27:	68 80 2a 11 80       	push   $0x80112a80
80101a2c:	e8 4a 3a 00 00       	call   8010547b <acquire>
80101a31:	83 c4 10             	add    $0x10,%esp
80101a34:	8b 45 08             	mov    0x8(%ebp),%eax
80101a37:	8b 40 08             	mov    0x8(%eax),%eax
80101a3a:	8d 50 01             	lea    0x1(%eax),%edx
80101a3d:	8b 45 08             	mov    0x8(%ebp),%eax
80101a40:	89 50 08             	mov    %edx,0x8(%eax)
80101a43:	83 ec 0c             	sub    $0xc,%esp
80101a46:	68 80 2a 11 80       	push   $0x80112a80
80101a4b:	e8 99 3a 00 00       	call   801054e9 <release>
80101a50:	83 c4 10             	add    $0x10,%esp
80101a53:	8b 45 08             	mov    0x8(%ebp),%eax
80101a56:	c9                   	leave  
80101a57:	c3                   	ret    

80101a58 <ilock>:
80101a58:	55                   	push   %ebp
80101a59:	89 e5                	mov    %esp,%ebp
80101a5b:	83 ec 18             	sub    $0x18,%esp
80101a5e:	83 7d 08 00          	cmpl   $0x0,0x8(%ebp)
80101a62:	74 0a                	je     80101a6e <ilock+0x16>
80101a64:	8b 45 08             	mov    0x8(%ebp),%eax
80101a67:	8b 40 08             	mov    0x8(%eax),%eax
80101a6a:	85 c0                	test   %eax,%eax
80101a6c:	7f 0d                	jg     80101a7b <ilock+0x23>
80101a6e:	83 ec 0c             	sub    $0xc,%esp
80101a71:	68 cd 8e 10 80       	push   $0x80108ecd
80101a76:	e8 25 eb ff ff       	call   801005a0 <panic>
80101a7b:	8b 45 08             	mov    0x8(%ebp),%eax
80101a7e:	83 c0 0c             	add    $0xc,%eax
80101a81:	83 ec 0c             	sub    $0xc,%esp
80101a84:	50                   	push   %eax
80101a85:	e8 ae 38 00 00       	call   80105338 <acquiresleep>
80101a8a:	83 c4 10             	add    $0x10,%esp
80101a8d:	8b 45 08             	mov    0x8(%ebp),%eax
80101a90:	8b 40 4c             	mov    0x4c(%eax),%eax
80101a93:	85 c0                	test   %eax,%eax
80101a95:	0f 85 cd 00 00 00    	jne    80101b68 <ilock+0x110>
80101a9b:	8b 45 08             	mov    0x8(%ebp),%eax
80101a9e:	8b 40 04             	mov    0x4(%eax),%eax
80101aa1:	c1 e8 03             	shr    $0x3,%eax
80101aa4:	89 c2                	mov    %eax,%edx
80101aa6:	a1 74 2a 11 80       	mov    0x80112a74,%eax
80101aab:	01 c2                	add    %eax,%edx
80101aad:	8b 45 08             	mov    0x8(%ebp),%eax
80101ab0:	8b 00                	mov    (%eax),%eax
80101ab2:	83 ec 08             	sub    $0x8,%esp
80101ab5:	52                   	push   %edx
80101ab6:	50                   	push   %eax
80101ab7:	e8 12 e7 ff ff       	call   801001ce <bread>
80101abc:	83 c4 10             	add    $0x10,%esp
80101abf:	89 45 f4             	mov    %eax,-0xc(%ebp)
80101ac2:	8b 45 f4             	mov    -0xc(%ebp),%eax
80101ac5:	8d 50 5c             	lea    0x5c(%eax),%edx
80101ac8:	8b 45 08             	mov    0x8(%ebp),%eax
80101acb:	8b 40 04             	mov    0x4(%eax),%eax
80101ace:	83 e0 07             	and    $0x7,%eax
80101ad1:	c1 e0 06             	shl    $0x6,%eax
80101ad4:	01 d0                	add    %edx,%eax
80101ad6:	89 45 f0             	mov    %eax,-0x10(%ebp)
80101ad9:	8b 45 f0             	mov    -0x10(%ebp),%eax
80101adc:	0f b7 10             	movzwl (%eax),%edx
80101adf:	8b 45 08             	mov    0x8(%ebp),%eax
80101ae2:	66 89 50 50          	mov    %dx,0x50(%eax)
80101ae6:	8b 45 f0             	mov    -0x10(%ebp),%eax
80101ae9:	0f b7 50 02          	movzwl 0x2(%eax),%edx
80101aed:	8b 45 08             	mov    0x8(%ebp),%eax
80101af0:	66 89 50 52          	mov    %dx,0x52(%eax)
80101af4:	8b 45 f0             	mov    -0x10(%ebp),%eax
80101af7:	0f b7 50 04          	movzwl 0x4(%eax),%edx
80101afb:	8b 45 08             	mov    0x8(%ebp),%eax
80101afe:	66 89 50 54          	mov    %dx,0x54(%eax)
80101b02:	8b 45 f0             	mov    -0x10(%ebp),%eax
80101b05:	0f b7 50 06          	movzwl 0x6(%eax),%edx
80101b09:	8b 45 08             	mov    0x8(%ebp),%eax
80101b0c:	66 89 50 56          	mov    %dx,0x56(%eax)
80101b10:	8b 45 f0             	mov    -0x10(%ebp),%eax
80101b13:	8b 50 08             	mov    0x8(%eax),%edx
80101b16:	8b 45 08             	mov    0x8(%ebp),%eax
80101b19:	89 50 58             	mov    %edx,0x58(%eax)
80101b1c:	8b 45 f0             	mov    -0x10(%ebp),%eax
80101b1f:	8d 50 0c             	lea    0xc(%eax),%edx
80101b22:	8b 45 08             	mov    0x8(%ebp),%eax
80101b25:	83 c0 5c             	add    $0x5c,%eax
80101b28:	83 ec 04             	sub    $0x4,%esp
80101b2b:	6a 34                	push   $0x34
80101b2d:	52                   	push   %edx
80101b2e:	50                   	push   %eax
80101b2f:	e8 7d 3c 00 00       	call   801057b1 <memmove>
80101b34:	83 c4 10             	add    $0x10,%esp
80101b37:	83 ec 0c             	sub    $0xc,%esp
80101b3a:	ff 75 f4             	pushl  -0xc(%ebp)
80101b3d:	e8 0e e7 ff ff       	call   80100250 <brelse>
80101b42:	83 c4 10             	add    $0x10,%esp
80101b45:	8b 45 08             	mov    0x8(%ebp),%eax
80101b48:	c7 40 4c 01 00 00 00 	movl   $0x1,0x4c(%eax)
80101b4f:	8b 45 08             	mov    0x8(%ebp),%eax
80101b52:	0f b7 40 50          	movzwl 0x50(%eax),%eax
80101b56:	66 85 c0             	test   %ax,%ax
80101b59:	75 0d                	jne    80101b68 <ilock+0x110>
80101b5b:	83 ec 0c             	sub    $0xc,%esp
80101b5e:	68 d3 8e 10 80       	push   $0x80108ed3
80101b63:	e8 38 ea ff ff       	call   801005a0 <panic>
80101b68:	90                   	nop
80101b69:	c9                   	leave  
80101b6a:	c3                   	ret    

80101b6b <iunlock>:
80101b6b:	55                   	push   %ebp
80101b6c:	89 e5                	mov    %esp,%ebp
80101b6e:	83 ec 08             	sub    $0x8,%esp
80101b71:	83 7d 08 00          	cmpl   $0x0,0x8(%ebp)
80101b75:	74 20                	je     80101b97 <iunlock+0x2c>
80101b77:	8b 45 08             	mov    0x8(%ebp),%eax
80101b7a:	83 c0 0c             	add    $0xc,%eax
80101b7d:	83 ec 0c             	sub    $0xc,%esp
80101b80:	50                   	push   %eax
80101b81:	e8 64 38 00 00       	call   801053ea <holdingsleep>
80101b86:	83 c4 10             	add    $0x10,%esp
80101b89:	85 c0                	test   %eax,%eax
80101b8b:	74 0a                	je     80101b97 <iunlock+0x2c>
80101b8d:	8b 45 08             	mov    0x8(%ebp),%eax
80101b90:	8b 40 08             	mov    0x8(%eax),%eax
80101b93:	85 c0                	test   %eax,%eax
80101b95:	7f 0d                	jg     80101ba4 <iunlock+0x39>
80101b97:	83 ec 0c             	sub    $0xc,%esp
80101b9a:	68 e2 8e 10 80       	push   $0x80108ee2
80101b9f:	e8 fc e9 ff ff       	call   801005a0 <panic>
80101ba4:	8b 45 08             	mov    0x8(%ebp),%eax
80101ba7:	83 c0 0c             	add    $0xc,%eax
80101baa:	83 ec 0c             	sub    $0xc,%esp
80101bad:	50                   	push   %eax
80101bae:	e8 e9 37 00 00       	call   8010539c <releasesleep>
80101bb3:	83 c4 10             	add    $0x10,%esp
80101bb6:	90                   	nop
80101bb7:	c9                   	leave  
80101bb8:	c3                   	ret    

80101bb9 <iput>:
80101bb9:	55                   	push   %ebp
80101bba:	89 e5                	mov    %esp,%ebp
80101bbc:	83 ec 18             	sub    $0x18,%esp
80101bbf:	8b 45 08             	mov    0x8(%ebp),%eax
80101bc2:	83 c0 0c             	add    $0xc,%eax
80101bc5:	83 ec 0c             	sub    $0xc,%esp
80101bc8:	50                   	push   %eax
80101bc9:	e8 6a 37 00 00       	call   80105338 <acquiresleep>
80101bce:	83 c4 10             	add    $0x10,%esp
80101bd1:	8b 45 08             	mov    0x8(%ebp),%eax
80101bd4:	8b 40 4c             	mov    0x4c(%eax),%eax
80101bd7:	85 c0                	test   %eax,%eax
80101bd9:	74 6a                	je     80101c45 <iput+0x8c>
80101bdb:	8b 45 08             	mov    0x8(%ebp),%eax
80101bde:	0f b7 40 56          	movzwl 0x56(%eax),%eax
80101be2:	66 85 c0             	test   %ax,%ax
80101be5:	75 5e                	jne    80101c45 <iput+0x8c>
80101be7:	83 ec 0c             	sub    $0xc,%esp
80101bea:	68 80 2a 11 80       	push   $0x80112a80
80101bef:	e8 87 38 00 00       	call   8010547b <acquire>
80101bf4:	83 c4 10             	add    $0x10,%esp
80101bf7:	8b 45 08             	mov    0x8(%ebp),%eax
80101bfa:	8b 40 08             	mov    0x8(%eax),%eax
80101bfd:	89 45 f4             	mov    %eax,-0xc(%ebp)
80101c00:	83 ec 0c             	sub    $0xc,%esp
80101c03:	68 80 2a 11 80       	push   $0x80112a80
80101c08:	e8 dc 38 00 00       	call   801054e9 <release>
80101c0d:	83 c4 10             	add    $0x10,%esp
80101c10:	83 7d f4 01          	cmpl   $0x1,-0xc(%ebp)
80101c14:	75 2f                	jne    80101c45 <iput+0x8c>
80101c16:	83 ec 0c             	sub    $0xc,%esp
80101c19:	ff 75 08             	pushl  0x8(%ebp)
80101c1c:	e8 b2 01 00 00       	call   80101dd3 <itrunc>
80101c21:	83 c4 10             	add    $0x10,%esp
80101c24:	8b 45 08             	mov    0x8(%ebp),%eax
80101c27:	66 c7 40 50 00 00    	movw   $0x0,0x50(%eax)
80101c2d:	83 ec 0c             	sub    $0xc,%esp
80101c30:	ff 75 08             	pushl  0x8(%ebp)
80101c33:	e8 43 fc ff ff       	call   8010187b <iupdate>
80101c38:	83 c4 10             	add    $0x10,%esp
80101c3b:	8b 45 08             	mov    0x8(%ebp),%eax
80101c3e:	c7 40 4c 00 00 00 00 	movl   $0x0,0x4c(%eax)
80101c45:	8b 45 08             	mov    0x8(%ebp),%eax
80101c48:	83 c0 0c             	add    $0xc,%eax
80101c4b:	83 ec 0c             	sub    $0xc,%esp
80101c4e:	50                   	push   %eax
80101c4f:	e8 48 37 00 00       	call   8010539c <releasesleep>
80101c54:	83 c4 10             	add    $0x10,%esp
80101c57:	83 ec 0c             	sub    $0xc,%esp
80101c5a:	68 80 2a 11 80       	push   $0x80112a80
80101c5f:	e8 17 38 00 00       	call   8010547b <acquire>
80101c64:	83 c4 10             	add    $0x10,%esp
80101c67:	8b 45 08             	mov    0x8(%ebp),%eax
80101c6a:	8b 40 08             	mov    0x8(%eax),%eax
80101c6d:	8d 50 ff             	lea    -0x1(%eax),%edx
80101c70:	8b 45 08             	mov    0x8(%ebp),%eax
80101c73:	89 50 08             	mov    %edx,0x8(%eax)
80101c76:	83 ec 0c             	sub    $0xc,%esp
80101c79:	68 80 2a 11 80       	push   $0x80112a80
80101c7e:	e8 66 38 00 00       	call   801054e9 <release>
80101c83:	83 c4 10             	add    $0x10,%esp
80101c86:	90                   	nop
80101c87:	c9                   	leave  
80101c88:	c3                   	ret    

80101c89 <iunlockput>:
80101c89:	55                   	push   %ebp
80101c8a:	89 e5                	mov    %esp,%ebp
80101c8c:	83 ec 08             	sub    $0x8,%esp
80101c8f:	83 ec 0c             	sub    $0xc,%esp
80101c92:	ff 75 08             	pushl  0x8(%ebp)
80101c95:	e8 d1 fe ff ff       	call   80101b6b <iunlock>
80101c9a:	83 c4 10             	add    $0x10,%esp
80101c9d:	83 ec 0c             	sub    $0xc,%esp
80101ca0:	ff 75 08             	pushl  0x8(%ebp)
80101ca3:	e8 11 ff ff ff       	call   80101bb9 <iput>
80101ca8:	83 c4 10             	add    $0x10,%esp
80101cab:	90                   	nop
80101cac:	c9                   	leave  
80101cad:	c3                   	ret    

80101cae <bmap>:
80101cae:	55                   	push   %ebp
80101caf:	89 e5                	mov    %esp,%ebp
80101cb1:	53                   	push   %ebx
80101cb2:	83 ec 14             	sub    $0x14,%esp
80101cb5:	83 7d 0c 0b          	cmpl   $0xb,0xc(%ebp)
80101cb9:	77 42                	ja     80101cfd <bmap+0x4f>
80101cbb:	8b 45 08             	mov    0x8(%ebp),%eax
80101cbe:	8b 55 0c             	mov    0xc(%ebp),%edx
80101cc1:	83 c2 14             	add    $0x14,%edx
80101cc4:	8b 44 90 0c          	mov    0xc(%eax,%edx,4),%eax
80101cc8:	89 45 f4             	mov    %eax,-0xc(%ebp)
80101ccb:	83 7d f4 00          	cmpl   $0x0,-0xc(%ebp)
80101ccf:	75 24                	jne    80101cf5 <bmap+0x47>
80101cd1:	8b 45 08             	mov    0x8(%ebp),%eax
80101cd4:	8b 00                	mov    (%eax),%eax
80101cd6:	83 ec 0c             	sub    $0xc,%esp
80101cd9:	50                   	push   %eax
80101cda:	e8 e3 f7 ff ff       	call   801014c2 <balloc>
80101cdf:	83 c4 10             	add    $0x10,%esp
80101ce2:	89 45 f4             	mov    %eax,-0xc(%ebp)
80101ce5:	8b 45 08             	mov    0x8(%ebp),%eax
80101ce8:	8b 55 0c             	mov    0xc(%ebp),%edx
80101ceb:	8d 4a 14             	lea    0x14(%edx),%ecx
80101cee:	8b 55 f4             	mov    -0xc(%ebp),%edx
80101cf1:	89 54 88 0c          	mov    %edx,0xc(%eax,%ecx,4)
80101cf5:	8b 45 f4             	mov    -0xc(%ebp),%eax
80101cf8:	e9 d1 00 00 00       	jmp    80101dce <bmap+0x120>
80101cfd:	83 6d 0c 0c          	subl   $0xc,0xc(%ebp)
80101d01:	83 7d 0c 7f          	cmpl   $0x7f,0xc(%ebp)
80101d05:	0f 87 b6 00 00 00    	ja     80101dc1 <bmap+0x113>
80101d0b:	8b 45 08             	mov    0x8(%ebp),%eax
80101d0e:	8b 80 8c 00 00 00    	mov    0x8c(%eax),%eax
80101d14:	89 45 f4             	mov    %eax,-0xc(%ebp)
80101d17:	83 7d f4 00          	cmpl   $0x0,-0xc(%ebp)
80101d1b:	75 20                	jne    80101d3d <bmap+0x8f>
80101d1d:	8b 45 08             	mov    0x8(%ebp),%eax
80101d20:	8b 00                	mov    (%eax),%eax
80101d22:	83 ec 0c             	sub    $0xc,%esp
80101d25:	50                   	push   %eax
80101d26:	e8 97 f7 ff ff       	call   801014c2 <balloc>
80101d2b:	83 c4 10             	add    $0x10,%esp
80101d2e:	89 45 f4             	mov    %eax,-0xc(%ebp)
80101d31:	8b 45 08             	mov    0x8(%ebp),%eax
80101d34:	8b 55 f4             	mov    -0xc(%ebp),%edx
80101d37:	89 90 8c 00 00 00    	mov    %edx,0x8c(%eax)
80101d3d:	8b 45 08             	mov    0x8(%ebp),%eax
80101d40:	8b 00                	mov    (%eax),%eax
80101d42:	83 ec 08             	sub    $0x8,%esp
80101d45:	ff 75 f4             	pushl  -0xc(%ebp)
80101d48:	50                   	push   %eax
80101d49:	e8 80 e4 ff ff       	call   801001ce <bread>
80101d4e:	83 c4 10             	add    $0x10,%esp
80101d51:	89 45 f0             	mov    %eax,-0x10(%ebp)
80101d54:	8b 45 f0             	mov    -0x10(%ebp),%eax
80101d57:	83 c0 5c             	add    $0x5c,%eax
80101d5a:	89 45 ec             	mov    %eax,-0x14(%ebp)
80101d5d:	8b 45 0c             	mov    0xc(%ebp),%eax
80101d60:	8d 14 85 00 00 00 00 	lea    0x0(,%eax,4),%edx
80101d67:	8b 45 ec             	mov    -0x14(%ebp),%eax
80101d6a:	01 d0                	add    %edx,%eax
80101d6c:	8b 00                	mov    (%eax),%eax
80101d6e:	89 45 f4             	mov    %eax,-0xc(%ebp)
80101d71:	83 7d f4 00          	cmpl   $0x0,-0xc(%ebp)
80101d75:	75 37                	jne    80101dae <bmap+0x100>
80101d77:	8b 45 0c             	mov    0xc(%ebp),%eax
80101d7a:	8d 14 85 00 00 00 00 	lea    0x0(,%eax,4),%edx
80101d81:	8b 45 ec             	mov    -0x14(%ebp),%eax
80101d84:	8d 1c 02             	lea    (%edx,%eax,1),%ebx
80101d87:	8b 45 08             	mov    0x8(%ebp),%eax
80101d8a:	8b 00                	mov    (%eax),%eax
80101d8c:	83 ec 0c             	sub    $0xc,%esp
80101d8f:	50                   	push   %eax
80101d90:	e8 2d f7 ff ff       	call   801014c2 <balloc>
80101d95:	83 c4 10             	add    $0x10,%esp
80101d98:	89 45 f4             	mov    %eax,-0xc(%ebp)
80101d9b:	8b 45 f4             	mov    -0xc(%ebp),%eax
80101d9e:	89 03                	mov    %eax,(%ebx)
80101da0:	83 ec 0c             	sub    $0xc,%esp
80101da3:	ff 75 f0             	pushl  -0x10(%ebp)
80101da6:	e8 0a 1a 00 00       	call   801037b5 <log_write>
80101dab:	83 c4 10             	add    $0x10,%esp
80101dae:	83 ec 0c             	sub    $0xc,%esp
80101db1:	ff 75 f0             	pushl  -0x10(%ebp)
80101db4:	e8 97 e4 ff ff       	call   80100250 <brelse>
80101db9:	83 c4 10             	add    $0x10,%esp
80101dbc:	8b 45 f4             	mov    -0xc(%ebp),%eax
80101dbf:	eb 0d                	jmp    80101dce <bmap+0x120>
80101dc1:	83 ec 0c             	sub    $0xc,%esp
80101dc4:	68 ea 8e 10 80       	push   $0x80108eea
80101dc9:	e8 d2 e7 ff ff       	call   801005a0 <panic>
80101dce:	8b 5d fc             	mov    -0x4(%ebp),%ebx
80101dd1:	c9                   	leave  
80101dd2:	c3                   	ret    

80101dd3 <itrunc>:
80101dd3:	55                   	push   %ebp
80101dd4:	89 e5                	mov    %esp,%ebp
80101dd6:	83 ec 18             	sub    $0x18,%esp
80101dd9:	c7 45 f4 00 00 00 00 	movl   $0x0,-0xc(%ebp)
80101de0:	eb 45                	jmp    80101e27 <itrunc+0x54>
80101de2:	8b 45 08             	mov    0x8(%ebp),%eax
80101de5:	8b 55 f4             	mov    -0xc(%ebp),%edx
80101de8:	83 c2 14             	add    $0x14,%edx
80101deb:	8b 44 90 0c          	mov    0xc(%eax,%edx,4),%eax
80101def:	85 c0                	test   %eax,%eax
80101df1:	74 30                	je     80101e23 <itrunc+0x50>
80101df3:	8b 45 08             	mov    0x8(%ebp),%eax
80101df6:	8b 55 f4             	mov    -0xc(%ebp),%edx
80101df9:	83 c2 14             	add    $0x14,%edx
80101dfc:	8b 44 90 0c          	mov    0xc(%eax,%edx,4),%eax
80101e00:	8b 55 08             	mov    0x8(%ebp),%edx
80101e03:	8b 12                	mov    (%edx),%edx
80101e05:	83 ec 08             	sub    $0x8,%esp
80101e08:	50                   	push   %eax
80101e09:	52                   	push   %edx
80101e0a:	e8 ff f7 ff ff       	call   8010160e <bfree>
80101e0f:	83 c4 10             	add    $0x10,%esp
80101e12:	8b 45 08             	mov    0x8(%ebp),%eax
80101e15:	8b 55 f4             	mov    -0xc(%ebp),%edx
80101e18:	83 c2 14             	add    $0x14,%edx
80101e1b:	c7 44 90 0c 00 00 00 	movl   $0x0,0xc(%eax,%edx,4)
80101e22:	00 
80101e23:	83 45 f4 01          	addl   $0x1,-0xc(%ebp)
80101e27:	83 7d f4 0b          	cmpl   $0xb,-0xc(%ebp)
80101e2b:	7e b5                	jle    80101de2 <itrunc+0xf>
80101e2d:	8b 45 08             	mov    0x8(%ebp),%eax
80101e30:	8b 80 8c 00 00 00    	mov    0x8c(%eax),%eax
80101e36:	85 c0                	test   %eax,%eax
80101e38:	0f 84 aa 00 00 00    	je     80101ee8 <itrunc+0x115>
80101e3e:	8b 45 08             	mov    0x8(%ebp),%eax
80101e41:	8b 90 8c 00 00 00    	mov    0x8c(%eax),%edx
80101e47:	8b 45 08             	mov    0x8(%ebp),%eax
80101e4a:	8b 00                	mov    (%eax),%eax
80101e4c:	83 ec 08             	sub    $0x8,%esp
80101e4f:	52                   	push   %edx
80101e50:	50                   	push   %eax
80101e51:	e8 78 e3 ff ff       	call   801001ce <bread>
80101e56:	83 c4 10             	add    $0x10,%esp
80101e59:	89 45 ec             	mov    %eax,-0x14(%ebp)
80101e5c:	8b 45 ec             	mov    -0x14(%ebp),%eax
80101e5f:	83 c0 5c             	add    $0x5c,%eax
80101e62:	89 45 e8             	mov    %eax,-0x18(%ebp)
80101e65:	c7 45 f0 00 00 00 00 	movl   $0x0,-0x10(%ebp)
80101e6c:	eb 3c                	jmp    80101eaa <itrunc+0xd7>
80101e6e:	8b 45 f0             	mov    -0x10(%ebp),%eax
80101e71:	8d 14 85 00 00 00 00 	lea    0x0(,%eax,4),%edx
80101e78:	8b 45 e8             	mov    -0x18(%ebp),%eax
80101e7b:	01 d0                	add    %edx,%eax
80101e7d:	8b 00                	mov    (%eax),%eax
80101e7f:	85 c0                	test   %eax,%eax
80101e81:	74 23                	je     80101ea6 <itrunc+0xd3>
80101e83:	8b 45 f0             	mov    -0x10(%ebp),%eax
80101e86:	8d 14 85 00 00 00 00 	lea    0x0(,%eax,4),%edx
80101e8d:	8b 45 e8             	mov    -0x18(%ebp),%eax
80101e90:	01 d0                	add    %edx,%eax
80101e92:	8b 00                	mov    (%eax),%eax
80101e94:	8b 55 08             	mov    0x8(%ebp),%edx
80101e97:	8b 12                	mov    (%edx),%edx
80101e99:	83 ec 08             	sub    $0x8,%esp
80101e9c:	50                   	push   %eax
80101e9d:	52                   	push   %edx
80101e9e:	e8 6b f7 ff ff       	call   8010160e <bfree>
80101ea3:	83 c4 10             	add    $0x10,%esp
80101ea6:	83 45 f0 01          	addl   $0x1,-0x10(%ebp)
80101eaa:	8b 45 f0             	mov    -0x10(%ebp),%eax
80101ead:	83 f8 7f             	cmp    $0x7f,%eax
80101eb0:	76 bc                	jbe    80101e6e <itrunc+0x9b>
80101eb2:	83 ec 0c             	sub    $0xc,%esp
80101eb5:	ff 75 ec             	pushl  -0x14(%ebp)
80101eb8:	e8 93 e3 ff ff       	call   80100250 <brelse>
80101ebd:	83 c4 10             	add    $0x10,%esp
80101ec0:	8b 45 08             	mov    0x8(%ebp),%eax
80101ec3:	8b 80 8c 00 00 00    	mov    0x8c(%eax),%eax
80101ec9:	8b 55 08             	mov    0x8(%ebp),%edx
80101ecc:	8b 12                	mov    (%edx),%edx
80101ece:	83 ec 08             	sub    $0x8,%esp
80101ed1:	50                   	push   %eax
80101ed2:	52                   	push   %edx
80101ed3:	e8 36 f7 ff ff       	call   8010160e <bfree>
80101ed8:	83 c4 10             	add    $0x10,%esp
80101edb:	8b 45 08             	mov    0x8(%ebp),%eax
80101ede:	c7 80 8c 00 00 00 00 	movl   $0x0,0x8c(%eax)
80101ee5:	00 00 00 
80101ee8:	8b 45 08             	mov    0x8(%ebp),%eax
80101eeb:	c7 40 58 00 00 00 00 	movl   $0x0,0x58(%eax)
80101ef2:	83 ec 0c             	sub    $0xc,%esp
80101ef5:	ff 75 08             	pushl  0x8(%ebp)
80101ef8:	e8 7e f9 ff ff       	call   8010187b <iupdate>
80101efd:	83 c4 10             	add    $0x10,%esp
80101f00:	90                   	nop
80101f01:	c9                   	leave  
80101f02:	c3                   	ret    

80101f03 <stati>:
80101f03:	55                   	push   %ebp
80101f04:	89 e5                	mov    %esp,%ebp
80101f06:	8b 45 08             	mov    0x8(%ebp),%eax
80101f09:	8b 00                	mov    (%eax),%eax
80101f0b:	89 c2                	mov    %eax,%edx
80101f0d:	8b 45 0c             	mov    0xc(%ebp),%eax
80101f10:	89 50 04             	mov    %edx,0x4(%eax)
80101f13:	8b 45 08             	mov    0x8(%ebp),%eax
80101f16:	8b 50 04             	mov    0x4(%eax),%edx
80101f19:	8b 45 0c             	mov    0xc(%ebp),%eax
80101f1c:	89 50 08             	mov    %edx,0x8(%eax)
80101f1f:	8b 45 08             	mov    0x8(%ebp),%eax
80101f22:	0f b7 50 50          	movzwl 0x50(%eax),%edx
80101f26:	8b 45 0c             	mov    0xc(%ebp),%eax
80101f29:	66 89 10             	mov    %dx,(%eax)
80101f2c:	8b 45 08             	mov    0x8(%ebp),%eax
80101f2f:	0f b7 50 56          	movzwl 0x56(%eax),%edx
80101f33:	8b 45 0c             	mov    0xc(%ebp),%eax
80101f36:	66 89 50 0c          	mov    %dx,0xc(%eax)
80101f3a:	8b 45 08             	mov    0x8(%ebp),%eax
80101f3d:	8b 50 58             	mov    0x58(%eax),%edx
80101f40:	8b 45 0c             	mov    0xc(%ebp),%eax
80101f43:	89 50 10             	mov    %edx,0x10(%eax)
80101f46:	90                   	nop
80101f47:	5d                   	pop    %ebp
80101f48:	c3                   	ret    

80101f49 <readi>:
80101f49:	55                   	push   %ebp
80101f4a:	89 e5                	mov    %esp,%ebp
80101f4c:	83 ec 18             	sub    $0x18,%esp
80101f4f:	8b 45 08             	mov    0x8(%ebp),%eax
80101f52:	0f b7 40 50          	movzwl 0x50(%eax),%eax
80101f56:	66 83 f8 03          	cmp    $0x3,%ax
80101f5a:	75 5c                	jne    80101fb8 <readi+0x6f>
80101f5c:	8b 45 08             	mov    0x8(%ebp),%eax
80101f5f:	0f b7 40 52          	movzwl 0x52(%eax),%eax
80101f63:	66 85 c0             	test   %ax,%ax
80101f66:	78 20                	js     80101f88 <readi+0x3f>
80101f68:	8b 45 08             	mov    0x8(%ebp),%eax
80101f6b:	0f b7 40 52          	movzwl 0x52(%eax),%eax
80101f6f:	66 83 f8 09          	cmp    $0x9,%ax
80101f73:	7f 13                	jg     80101f88 <readi+0x3f>
80101f75:	8b 45 08             	mov    0x8(%ebp),%eax
80101f78:	0f b7 40 52          	movzwl 0x52(%eax),%eax
80101f7c:	98                   	cwtl   
80101f7d:	8b 04 c5 00 2a 11 80 	mov    -0x7feed600(,%eax,8),%eax
80101f84:	85 c0                	test   %eax,%eax
80101f86:	75 0a                	jne    80101f92 <readi+0x49>
80101f88:	b8 ff ff ff ff       	mov    $0xffffffff,%eax
80101f8d:	e9 0c 01 00 00       	jmp    8010209e <readi+0x155>
80101f92:	8b 45 08             	mov    0x8(%ebp),%eax
80101f95:	0f b7 40 52          	movzwl 0x52(%eax),%eax
80101f99:	98                   	cwtl   
80101f9a:	8b 04 c5 00 2a 11 80 	mov    -0x7feed600(,%eax,8),%eax
80101fa1:	8b 55 14             	mov    0x14(%ebp),%edx
80101fa4:	83 ec 04             	sub    $0x4,%esp
80101fa7:	52                   	push   %edx
80101fa8:	ff 75 0c             	pushl  0xc(%ebp)
80101fab:	ff 75 08             	pushl  0x8(%ebp)
80101fae:	ff d0                	call   *%eax
80101fb0:	83 c4 10             	add    $0x10,%esp
80101fb3:	e9 e6 00 00 00       	jmp    8010209e <readi+0x155>
80101fb8:	8b 45 08             	mov    0x8(%ebp),%eax
80101fbb:	8b 40 58             	mov    0x58(%eax),%eax
80101fbe:	3b 45 10             	cmp    0x10(%ebp),%eax
80101fc1:	72 0d                	jb     80101fd0 <readi+0x87>
80101fc3:	8b 55 10             	mov    0x10(%ebp),%edx
80101fc6:	8b 45 14             	mov    0x14(%ebp),%eax
80101fc9:	01 d0                	add    %edx,%eax
80101fcb:	3b 45 10             	cmp    0x10(%ebp),%eax
80101fce:	73 0a                	jae    80101fda <readi+0x91>
80101fd0:	b8 ff ff ff ff       	mov    $0xffffffff,%eax
80101fd5:	e9 c4 00 00 00       	jmp    8010209e <readi+0x155>
80101fda:	8b 55 10             	mov    0x10(%ebp),%edx
80101fdd:	8b 45 14             	mov    0x14(%ebp),%eax
80101fe0:	01 c2                	add    %eax,%edx
80101fe2:	8b 45 08             	mov    0x8(%ebp),%eax
80101fe5:	8b 40 58             	mov    0x58(%eax),%eax
80101fe8:	39 c2                	cmp    %eax,%edx
80101fea:	76 0c                	jbe    80101ff8 <readi+0xaf>
80101fec:	8b 45 08             	mov    0x8(%ebp),%eax
80101fef:	8b 40 58             	mov    0x58(%eax),%eax
80101ff2:	2b 45 10             	sub    0x10(%ebp),%eax
80101ff5:	89 45 14             	mov    %eax,0x14(%ebp)
80101ff8:	c7 45 f4 00 00 00 00 	movl   $0x0,-0xc(%ebp)
80101fff:	e9 8b 00 00 00       	jmp    8010208f <readi+0x146>
80102004:	8b 45 10             	mov    0x10(%ebp),%eax
80102007:	c1 e8 09             	shr    $0x9,%eax
8010200a:	83 ec 08             	sub    $0x8,%esp
8010200d:	50                   	push   %eax
8010200e:	ff 75 08             	pushl  0x8(%ebp)
80102011:	e8 98 fc ff ff       	call   80101cae <bmap>
80102016:	83 c4 10             	add    $0x10,%esp
80102019:	89 c2                	mov    %eax,%edx
8010201b:	8b 45 08             	mov    0x8(%ebp),%eax
8010201e:	8b 00                	mov    (%eax),%eax
80102020:	83 ec 08             	sub    $0x8,%esp
80102023:	52                   	push   %edx
80102024:	50                   	push   %eax
80102025:	e8 a4 e1 ff ff       	call   801001ce <bread>
8010202a:	83 c4 10             	add    $0x10,%esp
8010202d:	89 45 f0             	mov    %eax,-0x10(%ebp)
80102030:	8b 45 10             	mov    0x10(%ebp),%eax
80102033:	25 ff 01 00 00       	and    $0x1ff,%eax
80102038:	ba 00 02 00 00       	mov    $0x200,%edx
8010203d:	29 c2                	sub    %eax,%edx
8010203f:	8b 45 14             	mov    0x14(%ebp),%eax
80102042:	2b 45 f4             	sub    -0xc(%ebp),%eax
80102045:	39 c2                	cmp    %eax,%edx
80102047:	0f 46 c2             	cmovbe %edx,%eax
8010204a:	89 45 ec             	mov    %eax,-0x14(%ebp)
8010204d:	8b 45 f0             	mov    -0x10(%ebp),%eax
80102050:	8d 50 5c             	lea    0x5c(%eax),%edx
80102053:	8b 45 10             	mov    0x10(%ebp),%eax
80102056:	25 ff 01 00 00       	and    $0x1ff,%eax
8010205b:	01 d0                	add    %edx,%eax
8010205d:	83 ec 04             	sub    $0x4,%esp
80102060:	ff 75 ec             	pushl  -0x14(%ebp)
80102063:	50                   	push   %eax
80102064:	ff 75 0c             	pushl  0xc(%ebp)
80102067:	e8 45 37 00 00       	call   801057b1 <memmove>
8010206c:	83 c4 10             	add    $0x10,%esp
8010206f:	83 ec 0c             	sub    $0xc,%esp
80102072:	ff 75 f0             	pushl  -0x10(%ebp)
80102075:	e8 d6 e1 ff ff       	call   80100250 <brelse>
8010207a:	83 c4 10             	add    $0x10,%esp
8010207d:	8b 45 ec             	mov    -0x14(%ebp),%eax
80102080:	01 45 f4             	add    %eax,-0xc(%ebp)
80102083:	8b 45 ec             	mov    -0x14(%ebp),%eax
80102086:	01 45 10             	add    %eax,0x10(%ebp)
80102089:	8b 45 ec             	mov    -0x14(%ebp),%eax
8010208c:	01 45 0c             	add    %eax,0xc(%ebp)
8010208f:	8b 45 f4             	mov    -0xc(%ebp),%eax
80102092:	3b 45 14             	cmp    0x14(%ebp),%eax
80102095:	0f 82 69 ff ff ff    	jb     80102004 <readi+0xbb>
8010209b:	8b 45 14             	mov    0x14(%ebp),%eax
8010209e:	c9                   	leave  
8010209f:	c3                   	ret    

801020a0 <writei>:
801020a0:	55                   	push   %ebp
801020a1:	89 e5                	mov    %esp,%ebp
801020a3:	83 ec 18             	sub    $0x18,%esp
801020a6:	8b 45 08             	mov    0x8(%ebp),%eax
801020a9:	0f b7 40 50          	movzwl 0x50(%eax),%eax
801020ad:	66 83 f8 03          	cmp    $0x3,%ax
801020b1:	75 5c                	jne    8010210f <writei+0x6f>
801020b3:	8b 45 08             	mov    0x8(%ebp),%eax
801020b6:	0f b7 40 52          	movzwl 0x52(%eax),%eax
801020ba:	66 85 c0             	test   %ax,%ax
801020bd:	78 20                	js     801020df <writei+0x3f>
801020bf:	8b 45 08             	mov    0x8(%ebp),%eax
801020c2:	0f b7 40 52          	movzwl 0x52(%eax),%eax
801020c6:	66 83 f8 09          	cmp    $0x9,%ax
801020ca:	7f 13                	jg     801020df <writei+0x3f>
801020cc:	8b 45 08             	mov    0x8(%ebp),%eax
801020cf:	0f b7 40 52          	movzwl 0x52(%eax),%eax
801020d3:	98                   	cwtl   
801020d4:	8b 04 c5 04 2a 11 80 	mov    -0x7feed5fc(,%eax,8),%eax
801020db:	85 c0                	test   %eax,%eax
801020dd:	75 0a                	jne    801020e9 <writei+0x49>
801020df:	b8 ff ff ff ff       	mov    $0xffffffff,%eax
801020e4:	e9 3d 01 00 00       	jmp    80102226 <writei+0x186>
801020e9:	8b 45 08             	mov    0x8(%ebp),%eax
801020ec:	0f b7 40 52          	movzwl 0x52(%eax),%eax
801020f0:	98                   	cwtl   
801020f1:	8b 04 c5 04 2a 11 80 	mov    -0x7feed5fc(,%eax,8),%eax
801020f8:	8b 55 14             	mov    0x14(%ebp),%edx
801020fb:	83 ec 04             	sub    $0x4,%esp
801020fe:	52                   	push   %edx
801020ff:	ff 75 0c             	pushl  0xc(%ebp)
80102102:	ff 75 08             	pushl  0x8(%ebp)
80102105:	ff d0                	call   *%eax
80102107:	83 c4 10             	add    $0x10,%esp
8010210a:	e9 17 01 00 00       	jmp    80102226 <writei+0x186>
8010210f:	8b 45 08             	mov    0x8(%ebp),%eax
80102112:	8b 40 58             	mov    0x58(%eax),%eax
80102115:	3b 45 10             	cmp    0x10(%ebp),%eax
80102118:	72 0d                	jb     80102127 <writei+0x87>
8010211a:	8b 55 10             	mov    0x10(%ebp),%edx
8010211d:	8b 45 14             	mov    0x14(%ebp),%eax
80102120:	01 d0                	add    %edx,%eax
80102122:	3b 45 10             	cmp    0x10(%ebp),%eax
80102125:	73 0a                	jae    80102131 <writei+0x91>
80102127:	b8 ff ff ff ff       	mov    $0xffffffff,%eax
8010212c:	e9 f5 00 00 00       	jmp    80102226 <writei+0x186>
80102131:	8b 55 10             	mov    0x10(%ebp),%edx
80102134:	8b 45 14             	mov    0x14(%ebp),%eax
80102137:	01 d0                	add    %edx,%eax
80102139:	3d 00 18 01 00       	cmp    $0x11800,%eax
8010213e:	76 0a                	jbe    8010214a <writei+0xaa>
80102140:	b8 ff ff ff ff       	mov    $0xffffffff,%eax
80102145:	e9 dc 00 00 00       	jmp    80102226 <writei+0x186>
8010214a:	c7 45 f4 00 00 00 00 	movl   $0x0,-0xc(%ebp)
80102151:	e9 99 00 00 00       	jmp    801021ef <writei+0x14f>
80102156:	8b 45 10             	mov    0x10(%ebp),%eax
80102159:	c1 e8 09             	shr    $0x9,%eax
8010215c:	83 ec 08             	sub    $0x8,%esp
8010215f:	50                   	push   %eax
80102160:	ff 75 08             	pushl  0x8(%ebp)
80102163:	e8 46 fb ff ff       	call   80101cae <bmap>
80102168:	83 c4 10             	add    $0x10,%esp
8010216b:	89 c2                	mov    %eax,%edx
8010216d:	8b 45 08             	mov    0x8(%ebp),%eax
80102170:	8b 00                	mov    (%eax),%eax
80102172:	83 ec 08             	sub    $0x8,%esp
80102175:	52                   	push   %edx
80102176:	50                   	push   %eax
80102177:	e8 52 e0 ff ff       	call   801001ce <bread>
8010217c:	83 c4 10             	add    $0x10,%esp
8010217f:	89 45 f0             	mov    %eax,-0x10(%ebp)
80102182:	8b 45 10             	mov    0x10(%ebp),%eax
80102185:	25 ff 01 00 00       	and    $0x1ff,%eax
8010218a:	ba 00 02 00 00       	mov    $0x200,%edx
8010218f:	29 c2                	sub    %eax,%edx
80102191:	8b 45 14             	mov    0x14(%ebp),%eax
80102194:	2b 45 f4             	sub    -0xc(%ebp),%eax
80102197:	39 c2                	cmp    %eax,%edx
80102199:	0f 46 c2             	cmovbe %edx,%eax
8010219c:	89 45 ec             	mov    %eax,-0x14(%ebp)
8010219f:	8b 45 f0             	mov    -0x10(%ebp),%eax
801021a2:	8d 50 5c             	lea    0x5c(%eax),%edx
801021a5:	8b 45 10             	mov    0x10(%ebp),%eax
801021a8:	25 ff 01 00 00       	and    $0x1ff,%eax
801021ad:	01 d0                	add    %edx,%eax
801021af:	83 ec 04             	sub    $0x4,%esp
801021b2:	ff 75 ec             	pushl  -0x14(%ebp)
801021b5:	ff 75 0c             	pushl  0xc(%ebp)
801021b8:	50                   	push   %eax
801021b9:	e8 f3 35 00 00       	call   801057b1 <memmove>
801021be:	83 c4 10             	add    $0x10,%esp
801021c1:	83 ec 0c             	sub    $0xc,%esp
801021c4:	ff 75 f0             	pushl  -0x10(%ebp)
801021c7:	e8 e9 15 00 00       	call   801037b5 <log_write>
801021cc:	83 c4 10             	add    $0x10,%esp
801021cf:	83 ec 0c             	sub    $0xc,%esp
801021d2:	ff 75 f0             	pushl  -0x10(%ebp)
801021d5:	e8 76 e0 ff ff       	call   80100250 <brelse>
801021da:	83 c4 10             	add    $0x10,%esp
801021dd:	8b 45 ec             	mov    -0x14(%ebp),%eax
801021e0:	01 45 f4             	add    %eax,-0xc(%ebp)
801021e3:	8b 45 ec             	mov    -0x14(%ebp),%eax
801021e6:	01 45 10             	add    %eax,0x10(%ebp)
801021e9:	8b 45 ec             	mov    -0x14(%ebp),%eax
801021ec:	01 45 0c             	add    %eax,0xc(%ebp)
801021ef:	8b 45 f4             	mov    -0xc(%ebp),%eax
801021f2:	3b 45 14             	cmp    0x14(%ebp),%eax
801021f5:	0f 82 5b ff ff ff    	jb     80102156 <writei+0xb6>
801021fb:	83 7d 14 00          	cmpl   $0x0,0x14(%ebp)
801021ff:	74 22                	je     80102223 <writei+0x183>
80102201:	8b 45 08             	mov    0x8(%ebp),%eax
80102204:	8b 40 58             	mov    0x58(%eax),%eax
80102207:	3b 45 10             	cmp    0x10(%ebp),%eax
8010220a:	73 17                	jae    80102223 <writei+0x183>
8010220c:	8b 45 08             	mov    0x8(%ebp),%eax
8010220f:	8b 55 10             	mov    0x10(%ebp),%edx
80102212:	89 50 58             	mov    %edx,0x58(%eax)
80102215:	83 ec 0c             	sub    $0xc,%esp
80102218:	ff 75 08             	pushl  0x8(%ebp)
8010221b:	e8 5b f6 ff ff       	call   8010187b <iupdate>
80102220:	83 c4 10             	add    $0x10,%esp
80102223:	8b 45 14             	mov    0x14(%ebp),%eax
80102226:	c9                   	leave  
80102227:	c3                   	ret    

80102228 <namecmp>:
80102228:	55                   	push   %ebp
80102229:	89 e5                	mov    %esp,%ebp
8010222b:	83 ec 08             	sub    $0x8,%esp
8010222e:	83 ec 04             	sub    $0x4,%esp
80102231:	6a 0e                	push   $0xe
80102233:	ff 75 0c             	pushl  0xc(%ebp)
80102236:	ff 75 08             	pushl  0x8(%ebp)
80102239:	e8 09 36 00 00       	call   80105847 <strncmp>
8010223e:	83 c4 10             	add    $0x10,%esp
80102241:	c9                   	leave  
80102242:	c3                   	ret    

80102243 <dirlookup>:
80102243:	55                   	push   %ebp
80102244:	89 e5                	mov    %esp,%ebp
80102246:	83 ec 28             	sub    $0x28,%esp
80102249:	8b 45 08             	mov    0x8(%ebp),%eax
8010224c:	0f b7 40 50          	movzwl 0x50(%eax),%eax
80102250:	66 83 f8 01          	cmp    $0x1,%ax
80102254:	74 0d                	je     80102263 <dirlookup+0x20>
80102256:	83 ec 0c             	sub    $0xc,%esp
80102259:	68 fd 8e 10 80       	push   $0x80108efd
8010225e:	e8 3d e3 ff ff       	call   801005a0 <panic>
80102263:	c7 45 f4 00 00 00 00 	movl   $0x0,-0xc(%ebp)
8010226a:	eb 7b                	jmp    801022e7 <dirlookup+0xa4>
8010226c:	6a 10                	push   $0x10
8010226e:	ff 75 f4             	pushl  -0xc(%ebp)
80102271:	8d 45 e0             	lea    -0x20(%ebp),%eax
80102274:	50                   	push   %eax
80102275:	ff 75 08             	pushl  0x8(%ebp)
80102278:	e8 cc fc ff ff       	call   80101f49 <readi>
8010227d:	83 c4 10             	add    $0x10,%esp
80102280:	83 f8 10             	cmp    $0x10,%eax
80102283:	74 0d                	je     80102292 <dirlookup+0x4f>
80102285:	83 ec 0c             	sub    $0xc,%esp
80102288:	68 0f 8f 10 80       	push   $0x80108f0f
8010228d:	e8 0e e3 ff ff       	call   801005a0 <panic>
80102292:	0f b7 45 e0          	movzwl -0x20(%ebp),%eax
80102296:	66 85 c0             	test   %ax,%ax
80102299:	74 47                	je     801022e2 <dirlookup+0x9f>
8010229b:	83 ec 08             	sub    $0x8,%esp
8010229e:	8d 45 e0             	lea    -0x20(%ebp),%eax
801022a1:	83 c0 02             	add    $0x2,%eax
801022a4:	50                   	push   %eax
801022a5:	ff 75 0c             	pushl  0xc(%ebp)
801022a8:	e8 7b ff ff ff       	call   80102228 <namecmp>
801022ad:	83 c4 10             	add    $0x10,%esp
801022b0:	85 c0                	test   %eax,%eax
801022b2:	75 2f                	jne    801022e3 <dirlookup+0xa0>
801022b4:	83 7d 10 00          	cmpl   $0x0,0x10(%ebp)
801022b8:	74 08                	je     801022c2 <dirlookup+0x7f>
801022ba:	8b 45 10             	mov    0x10(%ebp),%eax
801022bd:	8b 55 f4             	mov    -0xc(%ebp),%edx
801022c0:	89 10                	mov    %edx,(%eax)
801022c2:	0f b7 45 e0          	movzwl -0x20(%ebp),%eax
801022c6:	0f b7 c0             	movzwl %ax,%eax
801022c9:	89 45 f0             	mov    %eax,-0x10(%ebp)
801022cc:	8b 45 08             	mov    0x8(%ebp),%eax
801022cf:	8b 00                	mov    (%eax),%eax
801022d1:	83 ec 08             	sub    $0x8,%esp
801022d4:	ff 75 f0             	pushl  -0x10(%ebp)
801022d7:	50                   	push   %eax
801022d8:	e8 5f f6 ff ff       	call   8010193c <iget>
801022dd:	83 c4 10             	add    $0x10,%esp
801022e0:	eb 19                	jmp    801022fb <dirlookup+0xb8>
801022e2:	90                   	nop
801022e3:	83 45 f4 10          	addl   $0x10,-0xc(%ebp)
801022e7:	8b 45 08             	mov    0x8(%ebp),%eax
801022ea:	8b 40 58             	mov    0x58(%eax),%eax
801022ed:	3b 45 f4             	cmp    -0xc(%ebp),%eax
801022f0:	0f 87 76 ff ff ff    	ja     8010226c <dirlookup+0x29>
801022f6:	b8 00 00 00 00       	mov    $0x0,%eax
801022fb:	c9                   	leave  
801022fc:	c3                   	ret    

801022fd <dirlink>:
801022fd:	55                   	push   %ebp
801022fe:	89 e5                	mov    %esp,%ebp
80102300:	83 ec 28             	sub    $0x28,%esp
80102303:	83 ec 04             	sub    $0x4,%esp
80102306:	6a 00                	push   $0x0
80102308:	ff 75 0c             	pushl  0xc(%ebp)
8010230b:	ff 75 08             	pushl  0x8(%ebp)
8010230e:	e8 30 ff ff ff       	call   80102243 <dirlookup>
80102313:	83 c4 10             	add    $0x10,%esp
80102316:	89 45 f0             	mov    %eax,-0x10(%ebp)
80102319:	83 7d f0 00          	cmpl   $0x0,-0x10(%ebp)
8010231d:	74 18                	je     80102337 <dirlink+0x3a>
8010231f:	83 ec 0c             	sub    $0xc,%esp
80102322:	ff 75 f0             	pushl  -0x10(%ebp)
80102325:	e8 8f f8 ff ff       	call   80101bb9 <iput>
8010232a:	83 c4 10             	add    $0x10,%esp
8010232d:	b8 ff ff ff ff       	mov    $0xffffffff,%eax
80102332:	e9 9c 00 00 00       	jmp    801023d3 <dirlink+0xd6>
80102337:	c7 45 f4 00 00 00 00 	movl   $0x0,-0xc(%ebp)
8010233e:	eb 39                	jmp    80102379 <dirlink+0x7c>
80102340:	8b 45 f4             	mov    -0xc(%ebp),%eax
80102343:	6a 10                	push   $0x10
80102345:	50                   	push   %eax
80102346:	8d 45 e0             	lea    -0x20(%ebp),%eax
80102349:	50                   	push   %eax
8010234a:	ff 75 08             	pushl  0x8(%ebp)
8010234d:	e8 f7 fb ff ff       	call   80101f49 <readi>
80102352:	83 c4 10             	add    $0x10,%esp
80102355:	83 f8 10             	cmp    $0x10,%eax
80102358:	74 0d                	je     80102367 <dirlink+0x6a>
8010235a:	83 ec 0c             	sub    $0xc,%esp
8010235d:	68 1e 8f 10 80       	push   $0x80108f1e
80102362:	e8 39 e2 ff ff       	call   801005a0 <panic>
80102367:	0f b7 45 e0          	movzwl -0x20(%ebp),%eax
8010236b:	66 85 c0             	test   %ax,%ax
8010236e:	74 18                	je     80102388 <dirlink+0x8b>
80102370:	8b 45 f4             	mov    -0xc(%ebp),%eax
80102373:	83 c0 10             	add    $0x10,%eax
80102376:	89 45 f4             	mov    %eax,-0xc(%ebp)
80102379:	8b 45 08             	mov    0x8(%ebp),%eax
8010237c:	8b 50 58             	mov    0x58(%eax),%edx
8010237f:	8b 45 f4             	mov    -0xc(%ebp),%eax
80102382:	39 c2                	cmp    %eax,%edx
80102384:	77 ba                	ja     80102340 <dirlink+0x43>
80102386:	eb 01                	jmp    80102389 <dirlink+0x8c>
80102388:	90                   	nop
80102389:	83 ec 04             	sub    $0x4,%esp
8010238c:	6a 0e                	push   $0xe
8010238e:	ff 75 0c             	pushl  0xc(%ebp)
80102391:	8d 45 e0             	lea    -0x20(%ebp),%eax
80102394:	83 c0 02             	add    $0x2,%eax
80102397:	50                   	push   %eax
80102398:	e8 00 35 00 00       	call   8010589d <strncpy>
8010239d:	83 c4 10             	add    $0x10,%esp
801023a0:	8b 45 10             	mov    0x10(%ebp),%eax
801023a3:	66 89 45 e0          	mov    %ax,-0x20(%ebp)
801023a7:	8b 45 f4             	mov    -0xc(%ebp),%eax
801023aa:	6a 10                	push   $0x10
801023ac:	50                   	push   %eax
801023ad:	8d 45 e0             	lea    -0x20(%ebp),%eax
801023b0:	50                   	push   %eax
801023b1:	ff 75 08             	pushl  0x8(%ebp)
801023b4:	e8 e7 fc ff ff       	call   801020a0 <writei>
801023b9:	83 c4 10             	add    $0x10,%esp
801023bc:	83 f8 10             	cmp    $0x10,%eax
801023bf:	74 0d                	je     801023ce <dirlink+0xd1>
801023c1:	83 ec 0c             	sub    $0xc,%esp
801023c4:	68 2b 8f 10 80       	push   $0x80108f2b
801023c9:	e8 d2 e1 ff ff       	call   801005a0 <panic>
801023ce:	b8 00 00 00 00       	mov    $0x0,%eax
801023d3:	c9                   	leave  
801023d4:	c3                   	ret    

801023d5 <skipelem>:
801023d5:	55                   	push   %ebp
801023d6:	89 e5                	mov    %esp,%ebp
801023d8:	83 ec 18             	sub    $0x18,%esp
801023db:	eb 04                	jmp    801023e1 <skipelem+0xc>
801023dd:	83 45 08 01          	addl   $0x1,0x8(%ebp)
801023e1:	8b 45 08             	mov    0x8(%ebp),%eax
801023e4:	0f b6 00             	movzbl (%eax),%eax
801023e7:	3c 2f                	cmp    $0x2f,%al
801023e9:	74 f2                	je     801023dd <skipelem+0x8>
801023eb:	8b 45 08             	mov    0x8(%ebp),%eax
801023ee:	0f b6 00             	movzbl (%eax),%eax
801023f1:	84 c0                	test   %al,%al
801023f3:	75 07                	jne    801023fc <skipelem+0x27>
801023f5:	b8 00 00 00 00       	mov    $0x0,%eax
801023fa:	eb 7b                	jmp    80102477 <skipelem+0xa2>
801023fc:	8b 45 08             	mov    0x8(%ebp),%eax
801023ff:	89 45 f4             	mov    %eax,-0xc(%ebp)
80102402:	eb 04                	jmp    80102408 <skipelem+0x33>
80102404:	83 45 08 01          	addl   $0x1,0x8(%ebp)
80102408:	8b 45 08             	mov    0x8(%ebp),%eax
8010240b:	0f b6 00             	movzbl (%eax),%eax
8010240e:	3c 2f                	cmp    $0x2f,%al
80102410:	74 0a                	je     8010241c <skipelem+0x47>
80102412:	8b 45 08             	mov    0x8(%ebp),%eax
80102415:	0f b6 00             	movzbl (%eax),%eax
80102418:	84 c0                	test   %al,%al
8010241a:	75 e8                	jne    80102404 <skipelem+0x2f>
8010241c:	8b 55 08             	mov    0x8(%ebp),%edx
8010241f:	8b 45 f4             	mov    -0xc(%ebp),%eax
80102422:	29 c2                	sub    %eax,%edx
80102424:	89 d0                	mov    %edx,%eax
80102426:	89 45 f0             	mov    %eax,-0x10(%ebp)
80102429:	83 7d f0 0d          	cmpl   $0xd,-0x10(%ebp)
8010242d:	7e 15                	jle    80102444 <skipelem+0x6f>
8010242f:	83 ec 04             	sub    $0x4,%esp
80102432:	6a 0e                	push   $0xe
80102434:	ff 75 f4             	pushl  -0xc(%ebp)
80102437:	ff 75 0c             	pushl  0xc(%ebp)
8010243a:	e8 72 33 00 00       	call   801057b1 <memmove>
8010243f:	83 c4 10             	add    $0x10,%esp
80102442:	eb 26                	jmp    8010246a <skipelem+0x95>
80102444:	8b 45 f0             	mov    -0x10(%ebp),%eax
80102447:	83 ec 04             	sub    $0x4,%esp
8010244a:	50                   	push   %eax
8010244b:	ff 75 f4             	pushl  -0xc(%ebp)
8010244e:	ff 75 0c             	pushl  0xc(%ebp)
80102451:	e8 5b 33 00 00       	call   801057b1 <memmove>
80102456:	83 c4 10             	add    $0x10,%esp
80102459:	8b 55 f0             	mov    -0x10(%ebp),%edx
8010245c:	8b 45 0c             	mov    0xc(%ebp),%eax
8010245f:	01 d0                	add    %edx,%eax
80102461:	c6 00 00             	movb   $0x0,(%eax)
80102464:	eb 04                	jmp    8010246a <skipelem+0x95>
80102466:	83 45 08 01          	addl   $0x1,0x8(%ebp)
8010246a:	8b 45 08             	mov    0x8(%ebp),%eax
8010246d:	0f b6 00             	movzbl (%eax),%eax
80102470:	3c 2f                	cmp    $0x2f,%al
80102472:	74 f2                	je     80102466 <skipelem+0x91>
80102474:	8b 45 08             	mov    0x8(%ebp),%eax
80102477:	c9                   	leave  
80102478:	c3                   	ret    

80102479 <namex>:
80102479:	55                   	push   %ebp
8010247a:	89 e5                	mov    %esp,%ebp
8010247c:	83 ec 18             	sub    $0x18,%esp
8010247f:	8b 45 08             	mov    0x8(%ebp),%eax
80102482:	0f b6 00             	movzbl (%eax),%eax
80102485:	3c 2f                	cmp    $0x2f,%al
80102487:	75 17                	jne    801024a0 <namex+0x27>
80102489:	83 ec 08             	sub    $0x8,%esp
8010248c:	6a 01                	push   $0x1
8010248e:	6a 01                	push   $0x1
80102490:	e8 a7 f4 ff ff       	call   8010193c <iget>
80102495:	83 c4 10             	add    $0x10,%esp
80102498:	89 45 f4             	mov    %eax,-0xc(%ebp)
8010249b:	e9 ba 00 00 00       	jmp    8010255a <namex+0xe1>
801024a0:	e8 61 1e 00 00       	call   80104306 <myproc>
801024a5:	8b 40 68             	mov    0x68(%eax),%eax
801024a8:	83 ec 0c             	sub    $0xc,%esp
801024ab:	50                   	push   %eax
801024ac:	e8 6d f5 ff ff       	call   80101a1e <idup>
801024b1:	83 c4 10             	add    $0x10,%esp
801024b4:	89 45 f4             	mov    %eax,-0xc(%ebp)
801024b7:	e9 9e 00 00 00       	jmp    8010255a <namex+0xe1>
801024bc:	83 ec 0c             	sub    $0xc,%esp
801024bf:	ff 75 f4             	pushl  -0xc(%ebp)
801024c2:	e8 91 f5 ff ff       	call   80101a58 <ilock>
801024c7:	83 c4 10             	add    $0x10,%esp
801024ca:	8b 45 f4             	mov    -0xc(%ebp),%eax
801024cd:	0f b7 40 50          	movzwl 0x50(%eax),%eax
801024d1:	66 83 f8 01          	cmp    $0x1,%ax
801024d5:	74 18                	je     801024ef <namex+0x76>
801024d7:	83 ec 0c             	sub    $0xc,%esp
801024da:	ff 75 f4             	pushl  -0xc(%ebp)
801024dd:	e8 a7 f7 ff ff       	call   80101c89 <iunlockput>
801024e2:	83 c4 10             	add    $0x10,%esp
801024e5:	b8 00 00 00 00       	mov    $0x0,%eax
801024ea:	e9 a7 00 00 00       	jmp    80102596 <namex+0x11d>
801024ef:	83 7d 0c 00          	cmpl   $0x0,0xc(%ebp)
801024f3:	74 20                	je     80102515 <namex+0x9c>
801024f5:	8b 45 08             	mov    0x8(%ebp),%eax
801024f8:	0f b6 00             	movzbl (%eax),%eax
801024fb:	84 c0                	test   %al,%al
801024fd:	75 16                	jne    80102515 <namex+0x9c>
801024ff:	83 ec 0c             	sub    $0xc,%esp
80102502:	ff 75 f4             	pushl  -0xc(%ebp)
80102505:	e8 61 f6 ff ff       	call   80101b6b <iunlock>
8010250a:	83 c4 10             	add    $0x10,%esp
8010250d:	8b 45 f4             	mov    -0xc(%ebp),%eax
80102510:	e9 81 00 00 00       	jmp    80102596 <namex+0x11d>
80102515:	83 ec 04             	sub    $0x4,%esp
80102518:	6a 00                	push   $0x0
8010251a:	ff 75 10             	pushl  0x10(%ebp)
8010251d:	ff 75 f4             	pushl  -0xc(%ebp)
80102520:	e8 1e fd ff ff       	call   80102243 <dirlookup>
80102525:	83 c4 10             	add    $0x10,%esp
80102528:	89 45 f0             	mov    %eax,-0x10(%ebp)
8010252b:	83 7d f0 00          	cmpl   $0x0,-0x10(%ebp)
8010252f:	75 15                	jne    80102546 <namex+0xcd>
80102531:	83 ec 0c             	sub    $0xc,%esp
80102534:	ff 75 f4             	pushl  -0xc(%ebp)
80102537:	e8 4d f7 ff ff       	call   80101c89 <iunlockput>
8010253c:	83 c4 10             	add    $0x10,%esp
8010253f:	b8 00 00 00 00       	mov    $0x0,%eax
80102544:	eb 50                	jmp    80102596 <namex+0x11d>
80102546:	83 ec 0c             	sub    $0xc,%esp
80102549:	ff 75 f4             	pushl  -0xc(%ebp)
8010254c:	e8 38 f7 ff ff       	call   80101c89 <iunlockput>
80102551:	83 c4 10             	add    $0x10,%esp
80102554:	8b 45 f0             	mov    -0x10(%ebp),%eax
80102557:	89 45 f4             	mov    %eax,-0xc(%ebp)
8010255a:	83 ec 08             	sub    $0x8,%esp
8010255d:	ff 75 10             	pushl  0x10(%ebp)
80102560:	ff 75 08             	pushl  0x8(%ebp)
80102563:	e8 6d fe ff ff       	call   801023d5 <skipelem>
80102568:	83 c4 10             	add    $0x10,%esp
8010256b:	89 45 08             	mov    %eax,0x8(%ebp)
8010256e:	83 7d 08 00          	cmpl   $0x0,0x8(%ebp)
80102572:	0f 85 44 ff ff ff    	jne    801024bc <namex+0x43>
80102578:	83 7d 0c 00          	cmpl   $0x0,0xc(%ebp)
8010257c:	74 15                	je     80102593 <namex+0x11a>
8010257e:	83 ec 0c             	sub    $0xc,%esp
80102581:	ff 75 f4             	pushl  -0xc(%ebp)
80102584:	e8 30 f6 ff ff       	call   80101bb9 <iput>
80102589:	83 c4 10             	add    $0x10,%esp
8010258c:	b8 00 00 00 00       	mov    $0x0,%eax
80102591:	eb 03                	jmp    80102596 <namex+0x11d>
80102593:	8b 45 f4             	mov    -0xc(%ebp),%eax
80102596:	c9                   	leave  
80102597:	c3                   	ret    

80102598 <namei>:
80102598:	55                   	push   %ebp
80102599:	89 e5                	mov    %esp,%ebp
8010259b:	83 ec 18             	sub    $0x18,%esp
8010259e:	83 ec 04             	sub    $0x4,%esp
801025a1:	8d 45 ea             	lea    -0x16(%ebp),%eax
801025a4:	50                   	push   %eax
801025a5:	6a 00                	push   $0x0
801025a7:	ff 75 08             	pushl  0x8(%ebp)
801025aa:	e8 ca fe ff ff       	call   80102479 <namex>
801025af:	83 c4 10             	add    $0x10,%esp
801025b2:	c9                   	leave  
801025b3:	c3                   	ret    

801025b4 <nameiparent>:
801025b4:	55                   	push   %ebp
801025b5:	89 e5                	mov    %esp,%ebp
801025b7:	83 ec 08             	sub    $0x8,%esp
801025ba:	83 ec 04             	sub    $0x4,%esp
801025bd:	ff 75 0c             	pushl  0xc(%ebp)
801025c0:	6a 01                	push   $0x1
801025c2:	ff 75 08             	pushl  0x8(%ebp)
801025c5:	e8 af fe ff ff       	call   80102479 <namex>
801025ca:	83 c4 10             	add    $0x10,%esp
801025cd:	c9                   	leave  
801025ce:	c3                   	ret    

801025cf <inb>:
801025cf:	55                   	push   %ebp
801025d0:	89 e5                	mov    %esp,%ebp
801025d2:	83 ec 14             	sub    $0x14,%esp
801025d5:	8b 45 08             	mov    0x8(%ebp),%eax
801025d8:	66 89 45 ec          	mov    %ax,-0x14(%ebp)
801025dc:	0f b7 45 ec          	movzwl -0x14(%ebp),%eax
801025e0:	89 c2                	mov    %eax,%edx
801025e2:	ec                   	in     (%dx),%al
801025e3:	88 45 ff             	mov    %al,-0x1(%ebp)
801025e6:	0f b6 45 ff          	movzbl -0x1(%ebp),%eax
801025ea:	c9                   	leave  
801025eb:	c3                   	ret    

801025ec <insl>:
801025ec:	55                   	push   %ebp
801025ed:	89 e5                	mov    %esp,%ebp
801025ef:	57                   	push   %edi
801025f0:	53                   	push   %ebx
801025f1:	8b 55 08             	mov    0x8(%ebp),%edx
801025f4:	8b 4d 0c             	mov    0xc(%ebp),%ecx
801025f7:	8b 45 10             	mov    0x10(%ebp),%eax
801025fa:	89 cb                	mov    %ecx,%ebx
801025fc:	89 df                	mov    %ebx,%edi
801025fe:	89 c1                	mov    %eax,%ecx
80102600:	fc                   	cld    
80102601:	f3 6d                	rep insl (%dx),%es:(%edi)
80102603:	89 c8                	mov    %ecx,%eax
80102605:	89 fb                	mov    %edi,%ebx
80102607:	89 5d 0c             	mov    %ebx,0xc(%ebp)
8010260a:	89 45 10             	mov    %eax,0x10(%ebp)
8010260d:	90                   	nop
8010260e:	5b                   	pop    %ebx
8010260f:	5f                   	pop    %edi
80102610:	5d                   	pop    %ebp
80102611:	c3                   	ret    

80102612 <outb>:
80102612:	55                   	push   %ebp
80102613:	89 e5                	mov    %esp,%ebp
80102615:	83 ec 08             	sub    $0x8,%esp
80102618:	8b 55 08             	mov    0x8(%ebp),%edx
8010261b:	8b 45 0c             	mov    0xc(%ebp),%eax
8010261e:	66 89 55 fc          	mov    %dx,-0x4(%ebp)
80102622:	88 45 f8             	mov    %al,-0x8(%ebp)
80102625:	0f b6 45 f8          	movzbl -0x8(%ebp),%eax
80102629:	0f b7 55 fc          	movzwl -0x4(%ebp),%edx
8010262d:	ee                   	out    %al,(%dx)
8010262e:	90                   	nop
8010262f:	c9                   	leave  
80102630:	c3                   	ret    

80102631 <outsl>:
80102631:	55                   	push   %ebp
80102632:	89 e5                	mov    %esp,%ebp
80102634:	56                   	push   %esi
80102635:	53                   	push   %ebx
80102636:	8b 55 08             	mov    0x8(%ebp),%edx
80102639:	8b 4d 0c             	mov    0xc(%ebp),%ecx
8010263c:	8b 45 10             	mov    0x10(%ebp),%eax
8010263f:	89 cb                	mov    %ecx,%ebx
80102641:	89 de                	mov    %ebx,%esi
80102643:	89 c1                	mov    %eax,%ecx
80102645:	fc                   	cld    
80102646:	f3 6f                	rep outsl %ds:(%esi),(%dx)
80102648:	89 c8                	mov    %ecx,%eax
8010264a:	89 f3                	mov    %esi,%ebx
8010264c:	89 5d 0c             	mov    %ebx,0xc(%ebp)
8010264f:	89 45 10             	mov    %eax,0x10(%ebp)
80102652:	90                   	nop
80102653:	5b                   	pop    %ebx
80102654:	5e                   	pop    %esi
80102655:	5d                   	pop    %ebp
80102656:	c3                   	ret    

80102657 <idewait>:
80102657:	55                   	push   %ebp
80102658:	89 e5                	mov    %esp,%ebp
8010265a:	83 ec 10             	sub    $0x10,%esp
8010265d:	90                   	nop
8010265e:	68 f7 01 00 00       	push   $0x1f7
80102663:	e8 67 ff ff ff       	call   801025cf <inb>
80102668:	83 c4 04             	add    $0x4,%esp
8010266b:	0f b6 c0             	movzbl %al,%eax
8010266e:	89 45 fc             	mov    %eax,-0x4(%ebp)
80102671:	8b 45 fc             	mov    -0x4(%ebp),%eax
80102674:	25 c0 00 00 00       	and    $0xc0,%eax
80102679:	83 f8 40             	cmp    $0x40,%eax
8010267c:	75 e0                	jne    8010265e <idewait+0x7>
8010267e:	83 7d 08 00          	cmpl   $0x0,0x8(%ebp)
80102682:	74 11                	je     80102695 <idewait+0x3e>
80102684:	8b 45 fc             	mov    -0x4(%ebp),%eax
80102687:	83 e0 21             	and    $0x21,%eax
8010268a:	85 c0                	test   %eax,%eax
8010268c:	74 07                	je     80102695 <idewait+0x3e>
8010268e:	b8 ff ff ff ff       	mov    $0xffffffff,%eax
80102693:	eb 05                	jmp    8010269a <idewait+0x43>
80102695:	b8 00 00 00 00       	mov    $0x0,%eax
8010269a:	c9                   	leave  
8010269b:	c3                   	ret    

8010269c <ideinit>:
8010269c:	55                   	push   %ebp
8010269d:	89 e5                	mov    %esp,%ebp
8010269f:	83 ec 18             	sub    $0x18,%esp
801026a2:	83 ec 08             	sub    $0x8,%esp
801026a5:	68 33 8f 10 80       	push   $0x80108f33
801026aa:	68 00 c6 10 80       	push   $0x8010c600
801026af:	e8 a5 2d 00 00       	call   80105459 <initlock>
801026b4:	83 c4 10             	add    $0x10,%esp
801026b7:	a1 a0 4d 11 80       	mov    0x80114da0,%eax
801026bc:	83 e8 01             	sub    $0x1,%eax
801026bf:	83 ec 08             	sub    $0x8,%esp
801026c2:	50                   	push   %eax
801026c3:	6a 0e                	push   $0xe
801026c5:	e8 a2 04 00 00       	call   80102b6c <ioapicenable>
801026ca:	83 c4 10             	add    $0x10,%esp
801026cd:	83 ec 0c             	sub    $0xc,%esp
801026d0:	6a 00                	push   $0x0
801026d2:	e8 80 ff ff ff       	call   80102657 <idewait>
801026d7:	83 c4 10             	add    $0x10,%esp
801026da:	83 ec 08             	sub    $0x8,%esp
801026dd:	68 f0 00 00 00       	push   $0xf0
801026e2:	68 f6 01 00 00       	push   $0x1f6
801026e7:	e8 26 ff ff ff       	call   80102612 <outb>
801026ec:	83 c4 10             	add    $0x10,%esp
801026ef:	c7 45 f4 00 00 00 00 	movl   $0x0,-0xc(%ebp)
801026f6:	eb 24                	jmp    8010271c <ideinit+0x80>
801026f8:	83 ec 0c             	sub    $0xc,%esp
801026fb:	68 f7 01 00 00       	push   $0x1f7
80102700:	e8 ca fe ff ff       	call   801025cf <inb>
80102705:	83 c4 10             	add    $0x10,%esp
80102708:	84 c0                	test   %al,%al
8010270a:	74 0c                	je     80102718 <ideinit+0x7c>
8010270c:	c7 05 38 c6 10 80 01 	movl   $0x1,0x8010c638
80102713:	00 00 00 
80102716:	eb 0d                	jmp    80102725 <ideinit+0x89>
80102718:	83 45 f4 01          	addl   $0x1,-0xc(%ebp)
8010271c:	81 7d f4 e7 03 00 00 	cmpl   $0x3e7,-0xc(%ebp)
80102723:	7e d3                	jle    801026f8 <ideinit+0x5c>
80102725:	83 ec 08             	sub    $0x8,%esp
80102728:	68 e0 00 00 00       	push   $0xe0
8010272d:	68 f6 01 00 00       	push   $0x1f6
80102732:	e8 db fe ff ff       	call   80102612 <outb>
80102737:	83 c4 10             	add    $0x10,%esp
8010273a:	90                   	nop
8010273b:	c9                   	leave  
8010273c:	c3                   	ret    

8010273d <idestart>:
8010273d:	55                   	push   %ebp
8010273e:	89 e5                	mov    %esp,%ebp
80102740:	83 ec 18             	sub    $0x18,%esp
80102743:	83 7d 08 00          	cmpl   $0x0,0x8(%ebp)
80102747:	75 0d                	jne    80102756 <idestart+0x19>
80102749:	83 ec 0c             	sub    $0xc,%esp
8010274c:	68 37 8f 10 80       	push   $0x80108f37
80102751:	e8 4a de ff ff       	call   801005a0 <panic>
80102756:	8b 45 08             	mov    0x8(%ebp),%eax
80102759:	8b 40 08             	mov    0x8(%eax),%eax
8010275c:	3d e7 03 00 00       	cmp    $0x3e7,%eax
80102761:	76 0d                	jbe    80102770 <idestart+0x33>
80102763:	83 ec 0c             	sub    $0xc,%esp
80102766:	68 40 8f 10 80       	push   $0x80108f40
8010276b:	e8 30 de ff ff       	call   801005a0 <panic>
80102770:	c7 45 f4 01 00 00 00 	movl   $0x1,-0xc(%ebp)
80102777:	8b 45 08             	mov    0x8(%ebp),%eax
8010277a:	8b 50 08             	mov    0x8(%eax),%edx
8010277d:	8b 45 f4             	mov    -0xc(%ebp),%eax
80102780:	0f af c2             	imul   %edx,%eax
80102783:	89 45 f0             	mov    %eax,-0x10(%ebp)
80102786:	83 7d f4 01          	cmpl   $0x1,-0xc(%ebp)
8010278a:	75 07                	jne    80102793 <idestart+0x56>
8010278c:	b8 20 00 00 00       	mov    $0x20,%eax
80102791:	eb 05                	jmp    80102798 <idestart+0x5b>
80102793:	b8 c4 00 00 00       	mov    $0xc4,%eax
80102798:	89 45 ec             	mov    %eax,-0x14(%ebp)
8010279b:	83 7d f4 01          	cmpl   $0x1,-0xc(%ebp)
8010279f:	75 07                	jne    801027a8 <idestart+0x6b>
801027a1:	b8 30 00 00 00       	mov    $0x30,%eax
801027a6:	eb 05                	jmp    801027ad <idestart+0x70>
801027a8:	b8 c5 00 00 00       	mov    $0xc5,%eax
801027ad:	89 45 e8             	mov    %eax,-0x18(%ebp)
801027b0:	83 7d f4 07          	cmpl   $0x7,-0xc(%ebp)
801027b4:	7e 0d                	jle    801027c3 <idestart+0x86>
801027b6:	83 ec 0c             	sub    $0xc,%esp
801027b9:	68 37 8f 10 80       	push   $0x80108f37
801027be:	e8 dd dd ff ff       	call   801005a0 <panic>
801027c3:	83 ec 0c             	sub    $0xc,%esp
801027c6:	6a 00                	push   $0x0
801027c8:	e8 8a fe ff ff       	call   80102657 <idewait>
801027cd:	83 c4 10             	add    $0x10,%esp
801027d0:	83 ec 08             	sub    $0x8,%esp
801027d3:	6a 00                	push   $0x0
801027d5:	68 f6 03 00 00       	push   $0x3f6
801027da:	e8 33 fe ff ff       	call   80102612 <outb>
801027df:	83 c4 10             	add    $0x10,%esp
801027e2:	8b 45 f4             	mov    -0xc(%ebp),%eax
801027e5:	0f b6 c0             	movzbl %al,%eax
801027e8:	83 ec 08             	sub    $0x8,%esp
801027eb:	50                   	push   %eax
801027ec:	68 f2 01 00 00       	push   $0x1f2
801027f1:	e8 1c fe ff ff       	call   80102612 <outb>
801027f6:	83 c4 10             	add    $0x10,%esp
801027f9:	8b 45 f0             	mov    -0x10(%ebp),%eax
801027fc:	0f b6 c0             	movzbl %al,%eax
801027ff:	83 ec 08             	sub    $0x8,%esp
80102802:	50                   	push   %eax
80102803:	68 f3 01 00 00       	push   $0x1f3
80102808:	e8 05 fe ff ff       	call   80102612 <outb>
8010280d:	83 c4 10             	add    $0x10,%esp
80102810:	8b 45 f0             	mov    -0x10(%ebp),%eax
80102813:	c1 f8 08             	sar    $0x8,%eax
80102816:	0f b6 c0             	movzbl %al,%eax
80102819:	83 ec 08             	sub    $0x8,%esp
8010281c:	50                   	push   %eax
8010281d:	68 f4 01 00 00       	push   $0x1f4
80102822:	e8 eb fd ff ff       	call   80102612 <outb>
80102827:	83 c4 10             	add    $0x10,%esp
8010282a:	8b 45 f0             	mov    -0x10(%ebp),%eax
8010282d:	c1 f8 10             	sar    $0x10,%eax
80102830:	0f b6 c0             	movzbl %al,%eax
80102833:	83 ec 08             	sub    $0x8,%esp
80102836:	50                   	push   %eax
80102837:	68 f5 01 00 00       	push   $0x1f5
8010283c:	e8 d1 fd ff ff       	call   80102612 <outb>
80102841:	83 c4 10             	add    $0x10,%esp
80102844:	8b 45 08             	mov    0x8(%ebp),%eax
80102847:	8b 40 04             	mov    0x4(%eax),%eax
8010284a:	83 e0 01             	and    $0x1,%eax
8010284d:	c1 e0 04             	shl    $0x4,%eax
80102850:	89 c2                	mov    %eax,%edx
80102852:	8b 45 f0             	mov    -0x10(%ebp),%eax
80102855:	c1 f8 18             	sar    $0x18,%eax
80102858:	83 e0 0f             	and    $0xf,%eax
8010285b:	09 d0                	or     %edx,%eax
8010285d:	83 c8 e0             	or     $0xffffffe0,%eax
80102860:	0f b6 c0             	movzbl %al,%eax
80102863:	83 ec 08             	sub    $0x8,%esp
80102866:	50                   	push   %eax
80102867:	68 f6 01 00 00       	push   $0x1f6
8010286c:	e8 a1 fd ff ff       	call   80102612 <outb>
80102871:	83 c4 10             	add    $0x10,%esp
80102874:	8b 45 08             	mov    0x8(%ebp),%eax
80102877:	8b 00                	mov    (%eax),%eax
80102879:	83 e0 04             	and    $0x4,%eax
8010287c:	85 c0                	test   %eax,%eax
8010287e:	74 35                	je     801028b5 <idestart+0x178>
80102880:	8b 45 e8             	mov    -0x18(%ebp),%eax
80102883:	0f b6 c0             	movzbl %al,%eax
80102886:	83 ec 08             	sub    $0x8,%esp
80102889:	50                   	push   %eax
8010288a:	68 f7 01 00 00       	push   $0x1f7
8010288f:	e8 7e fd ff ff       	call   80102612 <outb>
80102894:	83 c4 10             	add    $0x10,%esp
80102897:	8b 45 08             	mov    0x8(%ebp),%eax
8010289a:	83 c0 5c             	add    $0x5c,%eax
8010289d:	83 ec 04             	sub    $0x4,%esp
801028a0:	68 80 00 00 00       	push   $0x80
801028a5:	50                   	push   %eax
801028a6:	68 f0 01 00 00       	push   $0x1f0
801028ab:	e8 81 fd ff ff       	call   80102631 <outsl>
801028b0:	83 c4 10             	add    $0x10,%esp
801028b3:	eb 17                	jmp    801028cc <idestart+0x18f>
801028b5:	8b 45 ec             	mov    -0x14(%ebp),%eax
801028b8:	0f b6 c0             	movzbl %al,%eax
801028bb:	83 ec 08             	sub    $0x8,%esp
801028be:	50                   	push   %eax
801028bf:	68 f7 01 00 00       	push   $0x1f7
801028c4:	e8 49 fd ff ff       	call   80102612 <outb>
801028c9:	83 c4 10             	add    $0x10,%esp
801028cc:	90                   	nop
801028cd:	c9                   	leave  
801028ce:	c3                   	ret    

801028cf <ideintr>:
801028cf:	55                   	push   %ebp
801028d0:	89 e5                	mov    %esp,%ebp
801028d2:	83 ec 18             	sub    $0x18,%esp
801028d5:	83 ec 0c             	sub    $0xc,%esp
801028d8:	68 00 c6 10 80       	push   $0x8010c600
801028dd:	e8 99 2b 00 00       	call   8010547b <acquire>
801028e2:	83 c4 10             	add    $0x10,%esp
801028e5:	a1 34 c6 10 80       	mov    0x8010c634,%eax
801028ea:	89 45 f4             	mov    %eax,-0xc(%ebp)
801028ed:	83 7d f4 00          	cmpl   $0x0,-0xc(%ebp)
801028f1:	75 15                	jne    80102908 <ideintr+0x39>
801028f3:	83 ec 0c             	sub    $0xc,%esp
801028f6:	68 00 c6 10 80       	push   $0x8010c600
801028fb:	e8 e9 2b 00 00       	call   801054e9 <release>
80102900:	83 c4 10             	add    $0x10,%esp
80102903:	e9 9a 00 00 00       	jmp    801029a2 <ideintr+0xd3>
80102908:	8b 45 f4             	mov    -0xc(%ebp),%eax
8010290b:	8b 40 58             	mov    0x58(%eax),%eax
8010290e:	a3 34 c6 10 80       	mov    %eax,0x8010c634
80102913:	8b 45 f4             	mov    -0xc(%ebp),%eax
80102916:	8b 00                	mov    (%eax),%eax
80102918:	83 e0 04             	and    $0x4,%eax
8010291b:	85 c0                	test   %eax,%eax
8010291d:	75 2d                	jne    8010294c <ideintr+0x7d>
8010291f:	83 ec 0c             	sub    $0xc,%esp
80102922:	6a 01                	push   $0x1
80102924:	e8 2e fd ff ff       	call   80102657 <idewait>
80102929:	83 c4 10             	add    $0x10,%esp
8010292c:	85 c0                	test   %eax,%eax
8010292e:	78 1c                	js     8010294c <ideintr+0x7d>
80102930:	8b 45 f4             	mov    -0xc(%ebp),%eax
80102933:	83 c0 5c             	add    $0x5c,%eax
80102936:	83 ec 04             	sub    $0x4,%esp
80102939:	68 80 00 00 00       	push   $0x80
8010293e:	50                   	push   %eax
8010293f:	68 f0 01 00 00       	push   $0x1f0
80102944:	e8 a3 fc ff ff       	call   801025ec <insl>
80102949:	83 c4 10             	add    $0x10,%esp
8010294c:	8b 45 f4             	mov    -0xc(%ebp),%eax
8010294f:	8b 00                	mov    (%eax),%eax
80102951:	83 c8 02             	or     $0x2,%eax
80102954:	89 c2                	mov    %eax,%edx
80102956:	8b 45 f4             	mov    -0xc(%ebp),%eax
80102959:	89 10                	mov    %edx,(%eax)
8010295b:	8b 45 f4             	mov    -0xc(%ebp),%eax
8010295e:	8b 00                	mov    (%eax),%eax
80102960:	83 e0 fb             	and    $0xfffffffb,%eax
80102963:	89 c2                	mov    %eax,%edx
80102965:	8b 45 f4             	mov    -0xc(%ebp),%eax
80102968:	89 10                	mov    %edx,(%eax)
8010296a:	83 ec 0c             	sub    $0xc,%esp
8010296d:	ff 75 f4             	pushl  -0xc(%ebp)
80102970:	e8 bf 24 00 00       	call   80104e34 <wakeup>
80102975:	83 c4 10             	add    $0x10,%esp
80102978:	a1 34 c6 10 80       	mov    0x8010c634,%eax
8010297d:	85 c0                	test   %eax,%eax
8010297f:	74 11                	je     80102992 <ideintr+0xc3>
80102981:	a1 34 c6 10 80       	mov    0x8010c634,%eax
80102986:	83 ec 0c             	sub    $0xc,%esp
80102989:	50                   	push   %eax
8010298a:	e8 ae fd ff ff       	call   8010273d <idestart>
8010298f:	83 c4 10             	add    $0x10,%esp
80102992:	83 ec 0c             	sub    $0xc,%esp
80102995:	68 00 c6 10 80       	push   $0x8010c600
8010299a:	e8 4a 2b 00 00       	call   801054e9 <release>
8010299f:	83 c4 10             	add    $0x10,%esp
801029a2:	c9                   	leave  
801029a3:	c3                   	ret    

801029a4 <iderw>:
801029a4:	55                   	push   %ebp
801029a5:	89 e5                	mov    %esp,%ebp
801029a7:	83 ec 18             	sub    $0x18,%esp
801029aa:	8b 45 08             	mov    0x8(%ebp),%eax
801029ad:	83 c0 0c             	add    $0xc,%eax
801029b0:	83 ec 0c             	sub    $0xc,%esp
801029b3:	50                   	push   %eax
801029b4:	e8 31 2a 00 00       	call   801053ea <holdingsleep>
801029b9:	83 c4 10             	add    $0x10,%esp
801029bc:	85 c0                	test   %eax,%eax
801029be:	75 0d                	jne    801029cd <iderw+0x29>
801029c0:	83 ec 0c             	sub    $0xc,%esp
801029c3:	68 52 8f 10 80       	push   $0x80108f52
801029c8:	e8 d3 db ff ff       	call   801005a0 <panic>
801029cd:	8b 45 08             	mov    0x8(%ebp),%eax
801029d0:	8b 00                	mov    (%eax),%eax
801029d2:	83 e0 06             	and    $0x6,%eax
801029d5:	83 f8 02             	cmp    $0x2,%eax
801029d8:	75 0d                	jne    801029e7 <iderw+0x43>
801029da:	83 ec 0c             	sub    $0xc,%esp
801029dd:	68 68 8f 10 80       	push   $0x80108f68
801029e2:	e8 b9 db ff ff       	call   801005a0 <panic>
801029e7:	8b 45 08             	mov    0x8(%ebp),%eax
801029ea:	8b 40 04             	mov    0x4(%eax),%eax
801029ed:	85 c0                	test   %eax,%eax
801029ef:	74 16                	je     80102a07 <iderw+0x63>
801029f1:	a1 38 c6 10 80       	mov    0x8010c638,%eax
801029f6:	85 c0                	test   %eax,%eax
801029f8:	75 0d                	jne    80102a07 <iderw+0x63>
801029fa:	83 ec 0c             	sub    $0xc,%esp
801029fd:	68 7d 8f 10 80       	push   $0x80108f7d
80102a02:	e8 99 db ff ff       	call   801005a0 <panic>
80102a07:	83 ec 0c             	sub    $0xc,%esp
80102a0a:	68 00 c6 10 80       	push   $0x8010c600
80102a0f:	e8 67 2a 00 00       	call   8010547b <acquire>
80102a14:	83 c4 10             	add    $0x10,%esp
80102a17:	8b 45 08             	mov    0x8(%ebp),%eax
80102a1a:	c7 40 58 00 00 00 00 	movl   $0x0,0x58(%eax)
80102a21:	c7 45 f4 34 c6 10 80 	movl   $0x8010c634,-0xc(%ebp)
80102a28:	eb 0b                	jmp    80102a35 <iderw+0x91>
80102a2a:	8b 45 f4             	mov    -0xc(%ebp),%eax
80102a2d:	8b 00                	mov    (%eax),%eax
80102a2f:	83 c0 58             	add    $0x58,%eax
80102a32:	89 45 f4             	mov    %eax,-0xc(%ebp)
80102a35:	8b 45 f4             	mov    -0xc(%ebp),%eax
80102a38:	8b 00                	mov    (%eax),%eax
80102a3a:	85 c0                	test   %eax,%eax
80102a3c:	75 ec                	jne    80102a2a <iderw+0x86>
80102a3e:	8b 45 f4             	mov    -0xc(%ebp),%eax
80102a41:	8b 55 08             	mov    0x8(%ebp),%edx
80102a44:	89 10                	mov    %edx,(%eax)
80102a46:	a1 34 c6 10 80       	mov    0x8010c634,%eax
80102a4b:	3b 45 08             	cmp    0x8(%ebp),%eax
80102a4e:	75 23                	jne    80102a73 <iderw+0xcf>
80102a50:	83 ec 0c             	sub    $0xc,%esp
80102a53:	ff 75 08             	pushl  0x8(%ebp)
80102a56:	e8 e2 fc ff ff       	call   8010273d <idestart>
80102a5b:	83 c4 10             	add    $0x10,%esp
80102a5e:	eb 13                	jmp    80102a73 <iderw+0xcf>
80102a60:	83 ec 08             	sub    $0x8,%esp
80102a63:	68 00 c6 10 80       	push   $0x8010c600
80102a68:	ff 75 08             	pushl  0x8(%ebp)
80102a6b:	e8 87 22 00 00       	call   80104cf7 <sleep>
80102a70:	83 c4 10             	add    $0x10,%esp
80102a73:	8b 45 08             	mov    0x8(%ebp),%eax
80102a76:	8b 00                	mov    (%eax),%eax
80102a78:	83 e0 06             	and    $0x6,%eax
80102a7b:	83 f8 02             	cmp    $0x2,%eax
80102a7e:	75 e0                	jne    80102a60 <iderw+0xbc>
80102a80:	83 ec 0c             	sub    $0xc,%esp
80102a83:	68 00 c6 10 80       	push   $0x8010c600
80102a88:	e8 5c 2a 00 00       	call   801054e9 <release>
80102a8d:	83 c4 10             	add    $0x10,%esp
80102a90:	90                   	nop
80102a91:	c9                   	leave  
80102a92:	c3                   	ret    

80102a93 <ioapicread>:
80102a93:	55                   	push   %ebp
80102a94:	89 e5                	mov    %esp,%ebp
80102a96:	a1 d4 46 11 80       	mov    0x801146d4,%eax
80102a9b:	8b 55 08             	mov    0x8(%ebp),%edx
80102a9e:	89 10                	mov    %edx,(%eax)
80102aa0:	a1 d4 46 11 80       	mov    0x801146d4,%eax
80102aa5:	8b 40 10             	mov    0x10(%eax),%eax
80102aa8:	5d                   	pop    %ebp
80102aa9:	c3                   	ret    

80102aaa <ioapicwrite>:
80102aaa:	55                   	push   %ebp
80102aab:	89 e5                	mov    %esp,%ebp
80102aad:	a1 d4 46 11 80       	mov    0x801146d4,%eax
80102ab2:	8b 55 08             	mov    0x8(%ebp),%edx
80102ab5:	89 10                	mov    %edx,(%eax)
80102ab7:	a1 d4 46 11 80       	mov    0x801146d4,%eax
80102abc:	8b 55 0c             	mov    0xc(%ebp),%edx
80102abf:	89 50 10             	mov    %edx,0x10(%eax)
80102ac2:	90                   	nop
80102ac3:	5d                   	pop    %ebp
80102ac4:	c3                   	ret    

80102ac5 <ioapicinit>:
80102ac5:	55                   	push   %ebp
80102ac6:	89 e5                	mov    %esp,%ebp
80102ac8:	83 ec 18             	sub    $0x18,%esp
80102acb:	c7 05 d4 46 11 80 00 	movl   $0xfec00000,0x801146d4
80102ad2:	00 c0 fe 
80102ad5:	6a 01                	push   $0x1
80102ad7:	e8 b7 ff ff ff       	call   80102a93 <ioapicread>
80102adc:	83 c4 04             	add    $0x4,%esp
80102adf:	c1 e8 10             	shr    $0x10,%eax
80102ae2:	25 ff 00 00 00       	and    $0xff,%eax
80102ae7:	89 45 f0             	mov    %eax,-0x10(%ebp)
80102aea:	6a 00                	push   $0x0
80102aec:	e8 a2 ff ff ff       	call   80102a93 <ioapicread>
80102af1:	83 c4 04             	add    $0x4,%esp
80102af4:	c1 e8 18             	shr    $0x18,%eax
80102af7:	89 45 ec             	mov    %eax,-0x14(%ebp)
80102afa:	0f b6 05 00 48 11 80 	movzbl 0x80114800,%eax
80102b01:	0f b6 c0             	movzbl %al,%eax
80102b04:	3b 45 ec             	cmp    -0x14(%ebp),%eax
80102b07:	74 10                	je     80102b19 <ioapicinit+0x54>
80102b09:	83 ec 0c             	sub    $0xc,%esp
80102b0c:	68 9c 8f 10 80       	push   $0x80108f9c
80102b11:	e8 ea d8 ff ff       	call   80100400 <cprintf>
80102b16:	83 c4 10             	add    $0x10,%esp
80102b19:	c7 45 f4 00 00 00 00 	movl   $0x0,-0xc(%ebp)
80102b20:	eb 3f                	jmp    80102b61 <ioapicinit+0x9c>
80102b22:	8b 45 f4             	mov    -0xc(%ebp),%eax
80102b25:	83 c0 20             	add    $0x20,%eax
80102b28:	0d 00 00 01 00       	or     $0x10000,%eax
80102b2d:	89 c2                	mov    %eax,%edx
80102b2f:	8b 45 f4             	mov    -0xc(%ebp),%eax
80102b32:	83 c0 08             	add    $0x8,%eax
80102b35:	01 c0                	add    %eax,%eax
80102b37:	83 ec 08             	sub    $0x8,%esp
80102b3a:	52                   	push   %edx
80102b3b:	50                   	push   %eax
80102b3c:	e8 69 ff ff ff       	call   80102aaa <ioapicwrite>
80102b41:	83 c4 10             	add    $0x10,%esp
80102b44:	8b 45 f4             	mov    -0xc(%ebp),%eax
80102b47:	83 c0 08             	add    $0x8,%eax
80102b4a:	01 c0                	add    %eax,%eax
80102b4c:	83 c0 01             	add    $0x1,%eax
80102b4f:	83 ec 08             	sub    $0x8,%esp
80102b52:	6a 00                	push   $0x0
80102b54:	50                   	push   %eax
80102b55:	e8 50 ff ff ff       	call   80102aaa <ioapicwrite>
80102b5a:	83 c4 10             	add    $0x10,%esp
80102b5d:	83 45 f4 01          	addl   $0x1,-0xc(%ebp)
80102b61:	8b 45 f4             	mov    -0xc(%ebp),%eax
80102b64:	3b 45 f0             	cmp    -0x10(%ebp),%eax
80102b67:	7e b9                	jle    80102b22 <ioapicinit+0x5d>
80102b69:	90                   	nop
80102b6a:	c9                   	leave  
80102b6b:	c3                   	ret    

80102b6c <ioapicenable>:
80102b6c:	55                   	push   %ebp
80102b6d:	89 e5                	mov    %esp,%ebp
80102b6f:	8b 45 08             	mov    0x8(%ebp),%eax
80102b72:	83 c0 20             	add    $0x20,%eax
80102b75:	89 c2                	mov    %eax,%edx
80102b77:	8b 45 08             	mov    0x8(%ebp),%eax
80102b7a:	83 c0 08             	add    $0x8,%eax
80102b7d:	01 c0                	add    %eax,%eax
80102b7f:	52                   	push   %edx
80102b80:	50                   	push   %eax
80102b81:	e8 24 ff ff ff       	call   80102aaa <ioapicwrite>
80102b86:	83 c4 08             	add    $0x8,%esp
80102b89:	8b 45 0c             	mov    0xc(%ebp),%eax
80102b8c:	c1 e0 18             	shl    $0x18,%eax
80102b8f:	89 c2                	mov    %eax,%edx
80102b91:	8b 45 08             	mov    0x8(%ebp),%eax
80102b94:	83 c0 08             	add    $0x8,%eax
80102b97:	01 c0                	add    %eax,%eax
80102b99:	83 c0 01             	add    $0x1,%eax
80102b9c:	52                   	push   %edx
80102b9d:	50                   	push   %eax
80102b9e:	e8 07 ff ff ff       	call   80102aaa <ioapicwrite>
80102ba3:	83 c4 08             	add    $0x8,%esp
80102ba6:	90                   	nop
80102ba7:	c9                   	leave  
80102ba8:	c3                   	ret    

80102ba9 <kinit1>:
80102ba9:	55                   	push   %ebp
80102baa:	89 e5                	mov    %esp,%ebp
80102bac:	83 ec 08             	sub    $0x8,%esp
80102baf:	83 ec 08             	sub    $0x8,%esp
80102bb2:	68 ce 8f 10 80       	push   $0x80108fce
80102bb7:	68 e0 46 11 80       	push   $0x801146e0
80102bbc:	e8 98 28 00 00       	call   80105459 <initlock>
80102bc1:	83 c4 10             	add    $0x10,%esp
80102bc4:	c7 05 14 47 11 80 00 	movl   $0x0,0x80114714
80102bcb:	00 00 00 
80102bce:	83 ec 08             	sub    $0x8,%esp
80102bd1:	ff 75 0c             	pushl  0xc(%ebp)
80102bd4:	ff 75 08             	pushl  0x8(%ebp)
80102bd7:	e8 2a 00 00 00       	call   80102c06 <freerange>
80102bdc:	83 c4 10             	add    $0x10,%esp
80102bdf:	90                   	nop
80102be0:	c9                   	leave  
80102be1:	c3                   	ret    

80102be2 <kinit2>:
80102be2:	55                   	push   %ebp
80102be3:	89 e5                	mov    %esp,%ebp
80102be5:	83 ec 08             	sub    $0x8,%esp
80102be8:	83 ec 08             	sub    $0x8,%esp
80102beb:	ff 75 0c             	pushl  0xc(%ebp)
80102bee:	ff 75 08             	pushl  0x8(%ebp)
80102bf1:	e8 10 00 00 00       	call   80102c06 <freerange>
80102bf6:	83 c4 10             	add    $0x10,%esp
80102bf9:	c7 05 14 47 11 80 01 	movl   $0x1,0x80114714
80102c00:	00 00 00 
80102c03:	90                   	nop
80102c04:	c9                   	leave  
80102c05:	c3                   	ret    

80102c06 <freerange>:
80102c06:	55                   	push   %ebp
80102c07:	89 e5                	mov    %esp,%ebp
80102c09:	83 ec 18             	sub    $0x18,%esp
80102c0c:	8b 45 08             	mov    0x8(%ebp),%eax
80102c0f:	05 ff 0f 00 00       	add    $0xfff,%eax
80102c14:	25 00 f0 ff ff       	and    $0xfffff000,%eax
80102c19:	89 45 f4             	mov    %eax,-0xc(%ebp)
80102c1c:	eb 15                	jmp    80102c33 <freerange+0x2d>
80102c1e:	83 ec 0c             	sub    $0xc,%esp
80102c21:	ff 75 f4             	pushl  -0xc(%ebp)
80102c24:	e8 1a 00 00 00       	call   80102c43 <kfree>
80102c29:	83 c4 10             	add    $0x10,%esp
80102c2c:	81 45 f4 00 10 00 00 	addl   $0x1000,-0xc(%ebp)
80102c33:	8b 45 f4             	mov    -0xc(%ebp),%eax
80102c36:	05 00 10 00 00       	add    $0x1000,%eax
80102c3b:	3b 45 0c             	cmp    0xc(%ebp),%eax
80102c3e:	76 de                	jbe    80102c1e <freerange+0x18>
80102c40:	90                   	nop
80102c41:	c9                   	leave  
80102c42:	c3                   	ret    

80102c43 <kfree>:
80102c43:	55                   	push   %ebp
80102c44:	89 e5                	mov    %esp,%ebp
80102c46:	83 ec 18             	sub    $0x18,%esp
80102c49:	8b 45 08             	mov    0x8(%ebp),%eax
80102c4c:	25 ff 0f 00 00       	and    $0xfff,%eax
80102c51:	85 c0                	test   %eax,%eax
80102c53:	75 18                	jne    80102c6d <kfree+0x2a>
80102c55:	81 7d 08 48 ae 11 80 	cmpl   $0x8011ae48,0x8(%ebp)
80102c5c:	72 0f                	jb     80102c6d <kfree+0x2a>
80102c5e:	8b 45 08             	mov    0x8(%ebp),%eax
80102c61:	05 00 00 00 80       	add    $0x80000000,%eax
80102c66:	3d ff ff ff 0d       	cmp    $0xdffffff,%eax
80102c6b:	76 0d                	jbe    80102c7a <kfree+0x37>
80102c6d:	83 ec 0c             	sub    $0xc,%esp
80102c70:	68 d3 8f 10 80       	push   $0x80108fd3
80102c75:	e8 26 d9 ff ff       	call   801005a0 <panic>
80102c7a:	83 ec 04             	sub    $0x4,%esp
80102c7d:	68 00 10 00 00       	push   $0x1000
80102c82:	6a 01                	push   $0x1
80102c84:	ff 75 08             	pushl  0x8(%ebp)
80102c87:	e8 66 2a 00 00       	call   801056f2 <memset>
80102c8c:	83 c4 10             	add    $0x10,%esp
80102c8f:	a1 14 47 11 80       	mov    0x80114714,%eax
80102c94:	85 c0                	test   %eax,%eax
80102c96:	74 10                	je     80102ca8 <kfree+0x65>
80102c98:	83 ec 0c             	sub    $0xc,%esp
80102c9b:	68 e0 46 11 80       	push   $0x801146e0
80102ca0:	e8 d6 27 00 00       	call   8010547b <acquire>
80102ca5:	83 c4 10             	add    $0x10,%esp
80102ca8:	8b 45 08             	mov    0x8(%ebp),%eax
80102cab:	89 45 f4             	mov    %eax,-0xc(%ebp)
80102cae:	8b 15 18 47 11 80    	mov    0x80114718,%edx
80102cb4:	8b 45 f4             	mov    -0xc(%ebp),%eax
80102cb7:	89 10                	mov    %edx,(%eax)
80102cb9:	8b 45 f4             	mov    -0xc(%ebp),%eax
80102cbc:	a3 18 47 11 80       	mov    %eax,0x80114718
80102cc1:	a1 14 47 11 80       	mov    0x80114714,%eax
80102cc6:	85 c0                	test   %eax,%eax
80102cc8:	74 10                	je     80102cda <kfree+0x97>
80102cca:	83 ec 0c             	sub    $0xc,%esp
80102ccd:	68 e0 46 11 80       	push   $0x801146e0
80102cd2:	e8 12 28 00 00       	call   801054e9 <release>
80102cd7:	83 c4 10             	add    $0x10,%esp
80102cda:	90                   	nop
80102cdb:	c9                   	leave  
80102cdc:	c3                   	ret    

80102cdd <kalloc>:
80102cdd:	55                   	push   %ebp
80102cde:	89 e5                	mov    %esp,%ebp
80102ce0:	83 ec 18             	sub    $0x18,%esp
80102ce3:	a1 14 47 11 80       	mov    0x80114714,%eax
80102ce8:	85 c0                	test   %eax,%eax
80102cea:	74 10                	je     80102cfc <kalloc+0x1f>
80102cec:	83 ec 0c             	sub    $0xc,%esp
80102cef:	68 e0 46 11 80       	push   $0x801146e0
80102cf4:	e8 82 27 00 00       	call   8010547b <acquire>
80102cf9:	83 c4 10             	add    $0x10,%esp
80102cfc:	a1 18 47 11 80       	mov    0x80114718,%eax
80102d01:	89 45 f4             	mov    %eax,-0xc(%ebp)
80102d04:	83 7d f4 00          	cmpl   $0x0,-0xc(%ebp)
80102d08:	74 0a                	je     80102d14 <kalloc+0x37>
80102d0a:	8b 45 f4             	mov    -0xc(%ebp),%eax
80102d0d:	8b 00                	mov    (%eax),%eax
80102d0f:	a3 18 47 11 80       	mov    %eax,0x80114718
80102d14:	a1 14 47 11 80       	mov    0x80114714,%eax
80102d19:	85 c0                	test   %eax,%eax
80102d1b:	74 10                	je     80102d2d <kalloc+0x50>
80102d1d:	83 ec 0c             	sub    $0xc,%esp
80102d20:	68 e0 46 11 80       	push   $0x801146e0
80102d25:	e8 bf 27 00 00       	call   801054e9 <release>
80102d2a:	83 c4 10             	add    $0x10,%esp
80102d2d:	8b 45 f4             	mov    -0xc(%ebp),%eax
80102d30:	c9                   	leave  
80102d31:	c3                   	ret    

80102d32 <inb>:
80102d32:	55                   	push   %ebp
80102d33:	89 e5                	mov    %esp,%ebp
80102d35:	83 ec 14             	sub    $0x14,%esp
80102d38:	8b 45 08             	mov    0x8(%ebp),%eax
80102d3b:	66 89 45 ec          	mov    %ax,-0x14(%ebp)
80102d3f:	0f b7 45 ec          	movzwl -0x14(%ebp),%eax
80102d43:	89 c2                	mov    %eax,%edx
80102d45:	ec                   	in     (%dx),%al
80102d46:	88 45 ff             	mov    %al,-0x1(%ebp)
80102d49:	0f b6 45 ff          	movzbl -0x1(%ebp),%eax
80102d4d:	c9                   	leave  
80102d4e:	c3                   	ret    

80102d4f <kbdgetc>:
80102d4f:	55                   	push   %ebp
80102d50:	89 e5                	mov    %esp,%ebp
80102d52:	83 ec 10             	sub    $0x10,%esp
80102d55:	6a 64                	push   $0x64
80102d57:	e8 d6 ff ff ff       	call   80102d32 <inb>
80102d5c:	83 c4 04             	add    $0x4,%esp
80102d5f:	0f b6 c0             	movzbl %al,%eax
80102d62:	89 45 f4             	mov    %eax,-0xc(%ebp)
80102d65:	8b 45 f4             	mov    -0xc(%ebp),%eax
80102d68:	83 e0 01             	and    $0x1,%eax
80102d6b:	85 c0                	test   %eax,%eax
80102d6d:	75 0a                	jne    80102d79 <kbdgetc+0x2a>
80102d6f:	b8 ff ff ff ff       	mov    $0xffffffff,%eax
80102d74:	e9 23 01 00 00       	jmp    80102e9c <kbdgetc+0x14d>
80102d79:	6a 60                	push   $0x60
80102d7b:	e8 b2 ff ff ff       	call   80102d32 <inb>
80102d80:	83 c4 04             	add    $0x4,%esp
80102d83:	0f b6 c0             	movzbl %al,%eax
80102d86:	89 45 fc             	mov    %eax,-0x4(%ebp)
80102d89:	81 7d fc e0 00 00 00 	cmpl   $0xe0,-0x4(%ebp)
80102d90:	75 17                	jne    80102da9 <kbdgetc+0x5a>
80102d92:	a1 3c c6 10 80       	mov    0x8010c63c,%eax
80102d97:	83 c8 40             	or     $0x40,%eax
80102d9a:	a3 3c c6 10 80       	mov    %eax,0x8010c63c
80102d9f:	b8 00 00 00 00       	mov    $0x0,%eax
80102da4:	e9 f3 00 00 00       	jmp    80102e9c <kbdgetc+0x14d>
80102da9:	8b 45 fc             	mov    -0x4(%ebp),%eax
80102dac:	25 80 00 00 00       	and    $0x80,%eax
80102db1:	85 c0                	test   %eax,%eax
80102db3:	74 45                	je     80102dfa <kbdgetc+0xab>
80102db5:	a1 3c c6 10 80       	mov    0x8010c63c,%eax
80102dba:	83 e0 40             	and    $0x40,%eax
80102dbd:	85 c0                	test   %eax,%eax
80102dbf:	75 08                	jne    80102dc9 <kbdgetc+0x7a>
80102dc1:	8b 45 fc             	mov    -0x4(%ebp),%eax
80102dc4:	83 e0 7f             	and    $0x7f,%eax
80102dc7:	eb 03                	jmp    80102dcc <kbdgetc+0x7d>
80102dc9:	8b 45 fc             	mov    -0x4(%ebp),%eax
80102dcc:	89 45 fc             	mov    %eax,-0x4(%ebp)
80102dcf:	8b 45 fc             	mov    -0x4(%ebp),%eax
80102dd2:	05 20 a0 10 80       	add    $0x8010a020,%eax
80102dd7:	0f b6 00             	movzbl (%eax),%eax
80102dda:	83 c8 40             	or     $0x40,%eax
80102ddd:	0f b6 c0             	movzbl %al,%eax
80102de0:	f7 d0                	not    %eax
80102de2:	89 c2                	mov    %eax,%edx
80102de4:	a1 3c c6 10 80       	mov    0x8010c63c,%eax
80102de9:	21 d0                	and    %edx,%eax
80102deb:	a3 3c c6 10 80       	mov    %eax,0x8010c63c
80102df0:	b8 00 00 00 00       	mov    $0x0,%eax
80102df5:	e9 a2 00 00 00       	jmp    80102e9c <kbdgetc+0x14d>
80102dfa:	a1 3c c6 10 80       	mov    0x8010c63c,%eax
80102dff:	83 e0 40             	and    $0x40,%eax
80102e02:	85 c0                	test   %eax,%eax
80102e04:	74 14                	je     80102e1a <kbdgetc+0xcb>
80102e06:	81 4d fc 80 00 00 00 	orl    $0x80,-0x4(%ebp)
80102e0d:	a1 3c c6 10 80       	mov    0x8010c63c,%eax
80102e12:	83 e0 bf             	and    $0xffffffbf,%eax
80102e15:	a3 3c c6 10 80       	mov    %eax,0x8010c63c
80102e1a:	8b 45 fc             	mov    -0x4(%ebp),%eax
80102e1d:	05 20 a0 10 80       	add    $0x8010a020,%eax
80102e22:	0f b6 00             	movzbl (%eax),%eax
80102e25:	0f b6 d0             	movzbl %al,%edx
80102e28:	a1 3c c6 10 80       	mov    0x8010c63c,%eax
80102e2d:	09 d0                	or     %edx,%eax
80102e2f:	a3 3c c6 10 80       	mov    %eax,0x8010c63c
80102e34:	8b 45 fc             	mov    -0x4(%ebp),%eax
80102e37:	05 20 a1 10 80       	add    $0x8010a120,%eax
80102e3c:	0f b6 00             	movzbl (%eax),%eax
80102e3f:	0f b6 d0             	movzbl %al,%edx
80102e42:	a1 3c c6 10 80       	mov    0x8010c63c,%eax
80102e47:	31 d0                	xor    %edx,%eax
80102e49:	a3 3c c6 10 80       	mov    %eax,0x8010c63c
80102e4e:	a1 3c c6 10 80       	mov    0x8010c63c,%eax
80102e53:	83 e0 03             	and    $0x3,%eax
80102e56:	8b 14 85 20 a5 10 80 	mov    -0x7fef5ae0(,%eax,4),%edx
80102e5d:	8b 45 fc             	mov    -0x4(%ebp),%eax
80102e60:	01 d0                	add    %edx,%eax
80102e62:	0f b6 00             	movzbl (%eax),%eax
80102e65:	0f b6 c0             	movzbl %al,%eax
80102e68:	89 45 f8             	mov    %eax,-0x8(%ebp)
80102e6b:	a1 3c c6 10 80       	mov    0x8010c63c,%eax
80102e70:	83 e0 08             	and    $0x8,%eax
80102e73:	85 c0                	test   %eax,%eax
80102e75:	74 22                	je     80102e99 <kbdgetc+0x14a>
80102e77:	83 7d f8 60          	cmpl   $0x60,-0x8(%ebp)
80102e7b:	76 0c                	jbe    80102e89 <kbdgetc+0x13a>
80102e7d:	83 7d f8 7a          	cmpl   $0x7a,-0x8(%ebp)
80102e81:	77 06                	ja     80102e89 <kbdgetc+0x13a>
80102e83:	83 6d f8 20          	subl   $0x20,-0x8(%ebp)
80102e87:	eb 10                	jmp    80102e99 <kbdgetc+0x14a>
80102e89:	83 7d f8 40          	cmpl   $0x40,-0x8(%ebp)
80102e8d:	76 0a                	jbe    80102e99 <kbdgetc+0x14a>
80102e8f:	83 7d f8 5a          	cmpl   $0x5a,-0x8(%ebp)
80102e93:	77 04                	ja     80102e99 <kbdgetc+0x14a>
80102e95:	83 45 f8 20          	addl   $0x20,-0x8(%ebp)
80102e99:	8b 45 f8             	mov    -0x8(%ebp),%eax
80102e9c:	c9                   	leave  
80102e9d:	c3                   	ret    

80102e9e <kbdintr>:
80102e9e:	55                   	push   %ebp
80102e9f:	89 e5                	mov    %esp,%ebp
80102ea1:	83 ec 08             	sub    $0x8,%esp
80102ea4:	83 ec 0c             	sub    $0xc,%esp
80102ea7:	68 4f 2d 10 80       	push   $0x80102d4f
80102eac:	e8 7b d9 ff ff       	call   8010082c <consoleintr>
80102eb1:	83 c4 10             	add    $0x10,%esp
80102eb4:	90                   	nop
80102eb5:	c9                   	leave  
80102eb6:	c3                   	ret    

80102eb7 <inb>:
80102eb7:	55                   	push   %ebp
80102eb8:	89 e5                	mov    %esp,%ebp
80102eba:	83 ec 14             	sub    $0x14,%esp
80102ebd:	8b 45 08             	mov    0x8(%ebp),%eax
80102ec0:	66 89 45 ec          	mov    %ax,-0x14(%ebp)
80102ec4:	0f b7 45 ec          	movzwl -0x14(%ebp),%eax
80102ec8:	89 c2                	mov    %eax,%edx
80102eca:	ec                   	in     (%dx),%al
80102ecb:	88 45 ff             	mov    %al,-0x1(%ebp)
80102ece:	0f b6 45 ff          	movzbl -0x1(%ebp),%eax
80102ed2:	c9                   	leave  
80102ed3:	c3                   	ret    

80102ed4 <outb>:
80102ed4:	55                   	push   %ebp
80102ed5:	89 e5                	mov    %esp,%ebp
80102ed7:	83 ec 08             	sub    $0x8,%esp
80102eda:	8b 55 08             	mov    0x8(%ebp),%edx
80102edd:	8b 45 0c             	mov    0xc(%ebp),%eax
80102ee0:	66 89 55 fc          	mov    %dx,-0x4(%ebp)
80102ee4:	88 45 f8             	mov    %al,-0x8(%ebp)
80102ee7:	0f b6 45 f8          	movzbl -0x8(%ebp),%eax
80102eeb:	0f b7 55 fc          	movzwl -0x4(%ebp),%edx
80102eef:	ee                   	out    %al,(%dx)
80102ef0:	90                   	nop
80102ef1:	c9                   	leave  
80102ef2:	c3                   	ret    

80102ef3 <lapicw>:
80102ef3:	55                   	push   %ebp
80102ef4:	89 e5                	mov    %esp,%ebp
80102ef6:	a1 1c 47 11 80       	mov    0x8011471c,%eax
80102efb:	8b 55 08             	mov    0x8(%ebp),%edx
80102efe:	c1 e2 02             	shl    $0x2,%edx
80102f01:	01 c2                	add    %eax,%edx
80102f03:	8b 45 0c             	mov    0xc(%ebp),%eax
80102f06:	89 02                	mov    %eax,(%edx)
80102f08:	a1 1c 47 11 80       	mov    0x8011471c,%eax
80102f0d:	83 c0 20             	add    $0x20,%eax
80102f10:	8b 00                	mov    (%eax),%eax
80102f12:	90                   	nop
80102f13:	5d                   	pop    %ebp
80102f14:	c3                   	ret    

80102f15 <lapicinit>:
80102f15:	55                   	push   %ebp
80102f16:	89 e5                	mov    %esp,%ebp
80102f18:	a1 1c 47 11 80       	mov    0x8011471c,%eax
80102f1d:	85 c0                	test   %eax,%eax
80102f1f:	0f 84 0b 01 00 00    	je     80103030 <lapicinit+0x11b>
80102f25:	68 3f 01 00 00       	push   $0x13f
80102f2a:	6a 3c                	push   $0x3c
80102f2c:	e8 c2 ff ff ff       	call   80102ef3 <lapicw>
80102f31:	83 c4 08             	add    $0x8,%esp
80102f34:	6a 0b                	push   $0xb
80102f36:	68 f8 00 00 00       	push   $0xf8
80102f3b:	e8 b3 ff ff ff       	call   80102ef3 <lapicw>
80102f40:	83 c4 08             	add    $0x8,%esp
80102f43:	68 20 00 02 00       	push   $0x20020
80102f48:	68 c8 00 00 00       	push   $0xc8
80102f4d:	e8 a1 ff ff ff       	call   80102ef3 <lapicw>
80102f52:	83 c4 08             	add    $0x8,%esp
80102f55:	68 80 96 98 00       	push   $0x989680
80102f5a:	68 e0 00 00 00       	push   $0xe0
80102f5f:	e8 8f ff ff ff       	call   80102ef3 <lapicw>
80102f64:	83 c4 08             	add    $0x8,%esp
80102f67:	68 00 00 01 00       	push   $0x10000
80102f6c:	68 d4 00 00 00       	push   $0xd4
80102f71:	e8 7d ff ff ff       	call   80102ef3 <lapicw>
80102f76:	83 c4 08             	add    $0x8,%esp
80102f79:	68 00 00 01 00       	push   $0x10000
80102f7e:	68 d8 00 00 00       	push   $0xd8
80102f83:	e8 6b ff ff ff       	call   80102ef3 <lapicw>
80102f88:	83 c4 08             	add    $0x8,%esp
80102f8b:	a1 1c 47 11 80       	mov    0x8011471c,%eax
80102f90:	83 c0 30             	add    $0x30,%eax
80102f93:	8b 00                	mov    (%eax),%eax
80102f95:	c1 e8 10             	shr    $0x10,%eax
80102f98:	0f b6 c0             	movzbl %al,%eax
80102f9b:	83 f8 03             	cmp    $0x3,%eax
80102f9e:	76 12                	jbe    80102fb2 <lapicinit+0x9d>
80102fa0:	68 00 00 01 00       	push   $0x10000
80102fa5:	68 d0 00 00 00       	push   $0xd0
80102faa:	e8 44 ff ff ff       	call   80102ef3 <lapicw>
80102faf:	83 c4 08             	add    $0x8,%esp
80102fb2:	6a 33                	push   $0x33
80102fb4:	68 dc 00 00 00       	push   $0xdc
80102fb9:	e8 35 ff ff ff       	call   80102ef3 <lapicw>
80102fbe:	83 c4 08             	add    $0x8,%esp
80102fc1:	6a 00                	push   $0x0
80102fc3:	68 a0 00 00 00       	push   $0xa0
80102fc8:	e8 26 ff ff ff       	call   80102ef3 <lapicw>
80102fcd:	83 c4 08             	add    $0x8,%esp
80102fd0:	6a 00                	push   $0x0
80102fd2:	68 a0 00 00 00       	push   $0xa0
80102fd7:	e8 17 ff ff ff       	call   80102ef3 <lapicw>
80102fdc:	83 c4 08             	add    $0x8,%esp
80102fdf:	6a 00                	push   $0x0
80102fe1:	6a 2c                	push   $0x2c
80102fe3:	e8 0b ff ff ff       	call   80102ef3 <lapicw>
80102fe8:	83 c4 08             	add    $0x8,%esp
80102feb:	6a 00                	push   $0x0
80102fed:	68 c4 00 00 00       	push   $0xc4
80102ff2:	e8 fc fe ff ff       	call   80102ef3 <lapicw>
80102ff7:	83 c4 08             	add    $0x8,%esp
80102ffa:	68 00 85 08 00       	push   $0x88500
80102fff:	68 c0 00 00 00       	push   $0xc0
80103004:	e8 ea fe ff ff       	call   80102ef3 <lapicw>
80103009:	83 c4 08             	add    $0x8,%esp
8010300c:	90                   	nop
8010300d:	a1 1c 47 11 80       	mov    0x8011471c,%eax
80103012:	05 00 03 00 00       	add    $0x300,%eax
80103017:	8b 00                	mov    (%eax),%eax
80103019:	25 00 10 00 00       	and    $0x1000,%eax
8010301e:	85 c0                	test   %eax,%eax
80103020:	75 eb                	jne    8010300d <lapicinit+0xf8>
80103022:	6a 00                	push   $0x0
80103024:	6a 20                	push   $0x20
80103026:	e8 c8 fe ff ff       	call   80102ef3 <lapicw>
8010302b:	83 c4 08             	add    $0x8,%esp
8010302e:	eb 01                	jmp    80103031 <lapicinit+0x11c>
80103030:	90                   	nop
80103031:	c9                   	leave  
80103032:	c3                   	ret    

80103033 <lapicid>:
80103033:	55                   	push   %ebp
80103034:	89 e5                	mov    %esp,%ebp
80103036:	a1 1c 47 11 80       	mov    0x8011471c,%eax
8010303b:	85 c0                	test   %eax,%eax
8010303d:	75 07                	jne    80103046 <lapicid+0x13>
8010303f:	b8 00 00 00 00       	mov    $0x0,%eax
80103044:	eb 0d                	jmp    80103053 <lapicid+0x20>
80103046:	a1 1c 47 11 80       	mov    0x8011471c,%eax
8010304b:	83 c0 20             	add    $0x20,%eax
8010304e:	8b 00                	mov    (%eax),%eax
80103050:	c1 e8 18             	shr    $0x18,%eax
80103053:	5d                   	pop    %ebp
80103054:	c3                   	ret    

80103055 <lapiceoi>:
80103055:	55                   	push   %ebp
80103056:	89 e5                	mov    %esp,%ebp
80103058:	a1 1c 47 11 80       	mov    0x8011471c,%eax
8010305d:	85 c0                	test   %eax,%eax
8010305f:	74 0c                	je     8010306d <lapiceoi+0x18>
80103061:	6a 00                	push   $0x0
80103063:	6a 2c                	push   $0x2c
80103065:	e8 89 fe ff ff       	call   80102ef3 <lapicw>
8010306a:	83 c4 08             	add    $0x8,%esp
8010306d:	90                   	nop
8010306e:	c9                   	leave  
8010306f:	c3                   	ret    

80103070 <microdelay>:
80103070:	55                   	push   %ebp
80103071:	89 e5                	mov    %esp,%ebp
80103073:	90                   	nop
80103074:	5d                   	pop    %ebp
80103075:	c3                   	ret    

80103076 <lapicstartap>:
80103076:	55                   	push   %ebp
80103077:	89 e5                	mov    %esp,%ebp
80103079:	83 ec 14             	sub    $0x14,%esp
8010307c:	8b 45 08             	mov    0x8(%ebp),%eax
8010307f:	88 45 ec             	mov    %al,-0x14(%ebp)
80103082:	6a 0f                	push   $0xf
80103084:	6a 70                	push   $0x70
80103086:	e8 49 fe ff ff       	call   80102ed4 <outb>
8010308b:	83 c4 08             	add    $0x8,%esp
8010308e:	6a 0a                	push   $0xa
80103090:	6a 71                	push   $0x71
80103092:	e8 3d fe ff ff       	call   80102ed4 <outb>
80103097:	83 c4 08             	add    $0x8,%esp
8010309a:	c7 45 f8 67 04 00 80 	movl   $0x80000467,-0x8(%ebp)
801030a1:	8b 45 f8             	mov    -0x8(%ebp),%eax
801030a4:	66 c7 00 00 00       	movw   $0x0,(%eax)
801030a9:	8b 45 f8             	mov    -0x8(%ebp),%eax
801030ac:	83 c0 02             	add    $0x2,%eax
801030af:	8b 55 0c             	mov    0xc(%ebp),%edx
801030b2:	c1 ea 04             	shr    $0x4,%edx
801030b5:	66 89 10             	mov    %dx,(%eax)
801030b8:	0f b6 45 ec          	movzbl -0x14(%ebp),%eax
801030bc:	c1 e0 18             	shl    $0x18,%eax
801030bf:	50                   	push   %eax
801030c0:	68 c4 00 00 00       	push   $0xc4
801030c5:	e8 29 fe ff ff       	call   80102ef3 <lapicw>
801030ca:	83 c4 08             	add    $0x8,%esp
801030cd:	68 00 c5 00 00       	push   $0xc500
801030d2:	68 c0 00 00 00       	push   $0xc0
801030d7:	e8 17 fe ff ff       	call   80102ef3 <lapicw>
801030dc:	83 c4 08             	add    $0x8,%esp
801030df:	68 c8 00 00 00       	push   $0xc8
801030e4:	e8 87 ff ff ff       	call   80103070 <microdelay>
801030e9:	83 c4 04             	add    $0x4,%esp
801030ec:	68 00 85 00 00       	push   $0x8500
801030f1:	68 c0 00 00 00       	push   $0xc0
801030f6:	e8 f8 fd ff ff       	call   80102ef3 <lapicw>
801030fb:	83 c4 08             	add    $0x8,%esp
801030fe:	6a 64                	push   $0x64
80103100:	e8 6b ff ff ff       	call   80103070 <microdelay>
80103105:	83 c4 04             	add    $0x4,%esp
80103108:	c7 45 fc 00 00 00 00 	movl   $0x0,-0x4(%ebp)
8010310f:	eb 3d                	jmp    8010314e <lapicstartap+0xd8>
80103111:	0f b6 45 ec          	movzbl -0x14(%ebp),%eax
80103115:	c1 e0 18             	shl    $0x18,%eax
80103118:	50                   	push   %eax
80103119:	68 c4 00 00 00       	push   $0xc4
8010311e:	e8 d0 fd ff ff       	call   80102ef3 <lapicw>
80103123:	83 c4 08             	add    $0x8,%esp
80103126:	8b 45 0c             	mov    0xc(%ebp),%eax
80103129:	c1 e8 0c             	shr    $0xc,%eax
8010312c:	80 cc 06             	or     $0x6,%ah
8010312f:	50                   	push   %eax
80103130:	68 c0 00 00 00       	push   $0xc0
80103135:	e8 b9 fd ff ff       	call   80102ef3 <lapicw>
8010313a:	83 c4 08             	add    $0x8,%esp
8010313d:	68 c8 00 00 00       	push   $0xc8
80103142:	e8 29 ff ff ff       	call   80103070 <microdelay>
80103147:	83 c4 04             	add    $0x4,%esp
8010314a:	83 45 fc 01          	addl   $0x1,-0x4(%ebp)
8010314e:	83 7d fc 01          	cmpl   $0x1,-0x4(%ebp)
80103152:	7e bd                	jle    80103111 <lapicstartap+0x9b>
80103154:	90                   	nop
80103155:	c9                   	leave  
80103156:	c3                   	ret    

80103157 <cmos_read>:
80103157:	55                   	push   %ebp
80103158:	89 e5                	mov    %esp,%ebp
8010315a:	8b 45 08             	mov    0x8(%ebp),%eax
8010315d:	0f b6 c0             	movzbl %al,%eax
80103160:	50                   	push   %eax
80103161:	6a 70                	push   $0x70
80103163:	e8 6c fd ff ff       	call   80102ed4 <outb>
80103168:	83 c4 08             	add    $0x8,%esp
8010316b:	68 c8 00 00 00       	push   $0xc8
80103170:	e8 fb fe ff ff       	call   80103070 <microdelay>
80103175:	83 c4 04             	add    $0x4,%esp
80103178:	6a 71                	push   $0x71
8010317a:	e8 38 fd ff ff       	call   80102eb7 <inb>
8010317f:	83 c4 04             	add    $0x4,%esp
80103182:	0f b6 c0             	movzbl %al,%eax
80103185:	c9                   	leave  
80103186:	c3                   	ret    

80103187 <fill_rtcdate>:
80103187:	55                   	push   %ebp
80103188:	89 e5                	mov    %esp,%ebp
8010318a:	6a 00                	push   $0x0
8010318c:	e8 c6 ff ff ff       	call   80103157 <cmos_read>
80103191:	83 c4 04             	add    $0x4,%esp
80103194:	89 c2                	mov    %eax,%edx
80103196:	8b 45 08             	mov    0x8(%ebp),%eax
80103199:	89 10                	mov    %edx,(%eax)
8010319b:	6a 02                	push   $0x2
8010319d:	e8 b5 ff ff ff       	call   80103157 <cmos_read>
801031a2:	83 c4 04             	add    $0x4,%esp
801031a5:	89 c2                	mov    %eax,%edx
801031a7:	8b 45 08             	mov    0x8(%ebp),%eax
801031aa:	89 50 04             	mov    %edx,0x4(%eax)
801031ad:	6a 04                	push   $0x4
801031af:	e8 a3 ff ff ff       	call   80103157 <cmos_read>
801031b4:	83 c4 04             	add    $0x4,%esp
801031b7:	89 c2                	mov    %eax,%edx
801031b9:	8b 45 08             	mov    0x8(%ebp),%eax
801031bc:	89 50 08             	mov    %edx,0x8(%eax)
801031bf:	6a 07                	push   $0x7
801031c1:	e8 91 ff ff ff       	call   80103157 <cmos_read>
801031c6:	83 c4 04             	add    $0x4,%esp
801031c9:	89 c2                	mov    %eax,%edx
801031cb:	8b 45 08             	mov    0x8(%ebp),%eax
801031ce:	89 50 0c             	mov    %edx,0xc(%eax)
801031d1:	6a 08                	push   $0x8
801031d3:	e8 7f ff ff ff       	call   80103157 <cmos_read>
801031d8:	83 c4 04             	add    $0x4,%esp
801031db:	89 c2                	mov    %eax,%edx
801031dd:	8b 45 08             	mov    0x8(%ebp),%eax
801031e0:	89 50 10             	mov    %edx,0x10(%eax)
801031e3:	6a 09                	push   $0x9
801031e5:	e8 6d ff ff ff       	call   80103157 <cmos_read>
801031ea:	83 c4 04             	add    $0x4,%esp
801031ed:	89 c2                	mov    %eax,%edx
801031ef:	8b 45 08             	mov    0x8(%ebp),%eax
801031f2:	89 50 14             	mov    %edx,0x14(%eax)
801031f5:	90                   	nop
801031f6:	c9                   	leave  
801031f7:	c3                   	ret    

801031f8 <cmostime>:
801031f8:	55                   	push   %ebp
801031f9:	89 e5                	mov    %esp,%ebp
801031fb:	83 ec 48             	sub    $0x48,%esp
801031fe:	6a 0b                	push   $0xb
80103200:	e8 52 ff ff ff       	call   80103157 <cmos_read>
80103205:	83 c4 04             	add    $0x4,%esp
80103208:	89 45 f4             	mov    %eax,-0xc(%ebp)
8010320b:	8b 45 f4             	mov    -0xc(%ebp),%eax
8010320e:	83 e0 04             	and    $0x4,%eax
80103211:	85 c0                	test   %eax,%eax
80103213:	0f 94 c0             	sete   %al
80103216:	0f b6 c0             	movzbl %al,%eax
80103219:	89 45 f0             	mov    %eax,-0x10(%ebp)
8010321c:	8d 45 d8             	lea    -0x28(%ebp),%eax
8010321f:	50                   	push   %eax
80103220:	e8 62 ff ff ff       	call   80103187 <fill_rtcdate>
80103225:	83 c4 04             	add    $0x4,%esp
80103228:	6a 0a                	push   $0xa
8010322a:	e8 28 ff ff ff       	call   80103157 <cmos_read>
8010322f:	83 c4 04             	add    $0x4,%esp
80103232:	25 80 00 00 00       	and    $0x80,%eax
80103237:	85 c0                	test   %eax,%eax
80103239:	75 27                	jne    80103262 <cmostime+0x6a>
8010323b:	8d 45 c0             	lea    -0x40(%ebp),%eax
8010323e:	50                   	push   %eax
8010323f:	e8 43 ff ff ff       	call   80103187 <fill_rtcdate>
80103244:	83 c4 04             	add    $0x4,%esp
80103247:	83 ec 04             	sub    $0x4,%esp
8010324a:	6a 18                	push   $0x18
8010324c:	8d 45 c0             	lea    -0x40(%ebp),%eax
8010324f:	50                   	push   %eax
80103250:	8d 45 d8             	lea    -0x28(%ebp),%eax
80103253:	50                   	push   %eax
80103254:	e8 00 25 00 00       	call   80105759 <memcmp>
80103259:	83 c4 10             	add    $0x10,%esp
8010325c:	85 c0                	test   %eax,%eax
8010325e:	74 05                	je     80103265 <cmostime+0x6d>
80103260:	eb ba                	jmp    8010321c <cmostime+0x24>
80103262:	90                   	nop
80103263:	eb b7                	jmp    8010321c <cmostime+0x24>
80103265:	90                   	nop
80103266:	83 7d f0 00          	cmpl   $0x0,-0x10(%ebp)
8010326a:	0f 84 b4 00 00 00    	je     80103324 <cmostime+0x12c>
80103270:	8b 45 d8             	mov    -0x28(%ebp),%eax
80103273:	c1 e8 04             	shr    $0x4,%eax
80103276:	89 c2                	mov    %eax,%edx
80103278:	89 d0                	mov    %edx,%eax
8010327a:	c1 e0 02             	shl    $0x2,%eax
8010327d:	01 d0                	add    %edx,%eax
8010327f:	01 c0                	add    %eax,%eax
80103281:	89 c2                	mov    %eax,%edx
80103283:	8b 45 d8             	mov    -0x28(%ebp),%eax
80103286:	83 e0 0f             	and    $0xf,%eax
80103289:	01 d0                	add    %edx,%eax
8010328b:	89 45 d8             	mov    %eax,-0x28(%ebp)
8010328e:	8b 45 dc             	mov    -0x24(%ebp),%eax
80103291:	c1 e8 04             	shr    $0x4,%eax
80103294:	89 c2                	mov    %eax,%edx
80103296:	89 d0                	mov    %edx,%eax
80103298:	c1 e0 02             	shl    $0x2,%eax
8010329b:	01 d0                	add    %edx,%eax
8010329d:	01 c0                	add    %eax,%eax
8010329f:	89 c2                	mov    %eax,%edx
801032a1:	8b 45 dc             	mov    -0x24(%ebp),%eax
801032a4:	83 e0 0f             	and    $0xf,%eax
801032a7:	01 d0                	add    %edx,%eax
801032a9:	89 45 dc             	mov    %eax,-0x24(%ebp)
801032ac:	8b 45 e0             	mov    -0x20(%ebp),%eax
801032af:	c1 e8 04             	shr    $0x4,%eax
801032b2:	89 c2                	mov    %eax,%edx
801032b4:	89 d0                	mov    %edx,%eax
801032b6:	c1 e0 02             	shl    $0x2,%eax
801032b9:	01 d0                	add    %edx,%eax
801032bb:	01 c0                	add    %eax,%eax
801032bd:	89 c2                	mov    %eax,%edx
801032bf:	8b 45 e0             	mov    -0x20(%ebp),%eax
801032c2:	83 e0 0f             	and    $0xf,%eax
801032c5:	01 d0                	add    %edx,%eax
801032c7:	89 45 e0             	mov    %eax,-0x20(%ebp)
801032ca:	8b 45 e4             	mov    -0x1c(%ebp),%eax
801032cd:	c1 e8 04             	shr    $0x4,%eax
801032d0:	89 c2                	mov    %eax,%edx
801032d2:	89 d0                	mov    %edx,%eax
801032d4:	c1 e0 02             	shl    $0x2,%eax
801032d7:	01 d0                	add    %edx,%eax
801032d9:	01 c0                	add    %eax,%eax
801032db:	89 c2                	mov    %eax,%edx
801032dd:	8b 45 e4             	mov    -0x1c(%ebp),%eax
801032e0:	83 e0 0f             	and    $0xf,%eax
801032e3:	01 d0                	add    %edx,%eax
801032e5:	89 45 e4             	mov    %eax,-0x1c(%ebp)
801032e8:	8b 45 e8             	mov    -0x18(%ebp),%eax
801032eb:	c1 e8 04             	shr    $0x4,%eax
801032ee:	89 c2                	mov    %eax,%edx
801032f0:	89 d0                	mov    %edx,%eax
801032f2:	c1 e0 02             	shl    $0x2,%eax
801032f5:	01 d0                	add    %edx,%eax
801032f7:	01 c0                	add    %eax,%eax
801032f9:	89 c2                	mov    %eax,%edx
801032fb:	8b 45 e8             	mov    -0x18(%ebp),%eax
801032fe:	83 e0 0f             	and    $0xf,%eax
80103301:	01 d0                	add    %edx,%eax
80103303:	89 45 e8             	mov    %eax,-0x18(%ebp)
80103306:	8b 45 ec             	mov    -0x14(%ebp),%eax
80103309:	c1 e8 04             	shr    $0x4,%eax
8010330c:	89 c2                	mov    %eax,%edx
8010330e:	89 d0                	mov    %edx,%eax
80103310:	c1 e0 02             	shl    $0x2,%eax
80103313:	01 d0                	add    %edx,%eax
80103315:	01 c0                	add    %eax,%eax
80103317:	89 c2                	mov    %eax,%edx
80103319:	8b 45 ec             	mov    -0x14(%ebp),%eax
8010331c:	83 e0 0f             	and    $0xf,%eax
8010331f:	01 d0                	add    %edx,%eax
80103321:	89 45 ec             	mov    %eax,-0x14(%ebp)
80103324:	8b 45 08             	mov    0x8(%ebp),%eax
80103327:	8b 55 d8             	mov    -0x28(%ebp),%edx
8010332a:	89 10                	mov    %edx,(%eax)
8010332c:	8b 55 dc             	mov    -0x24(%ebp),%edx
8010332f:	89 50 04             	mov    %edx,0x4(%eax)
80103332:	8b 55 e0             	mov    -0x20(%ebp),%edx
80103335:	89 50 08             	mov    %edx,0x8(%eax)
80103338:	8b 55 e4             	mov    -0x1c(%ebp),%edx
8010333b:	89 50 0c             	mov    %edx,0xc(%eax)
8010333e:	8b 55 e8             	mov    -0x18(%ebp),%edx
80103341:	89 50 10             	mov    %edx,0x10(%eax)
80103344:	8b 55 ec             	mov    -0x14(%ebp),%edx
80103347:	89 50 14             	mov    %edx,0x14(%eax)
8010334a:	8b 45 08             	mov    0x8(%ebp),%eax
8010334d:	8b 40 14             	mov    0x14(%eax),%eax
80103350:	8d 90 d0 07 00 00    	lea    0x7d0(%eax),%edx
80103356:	8b 45 08             	mov    0x8(%ebp),%eax
80103359:	89 50 14             	mov    %edx,0x14(%eax)
8010335c:	90                   	nop
8010335d:	c9                   	leave  
8010335e:	c3                   	ret    

8010335f <initlog>:
8010335f:	55                   	push   %ebp
80103360:	89 e5                	mov    %esp,%ebp
80103362:	83 ec 28             	sub    $0x28,%esp
80103365:	83 ec 08             	sub    $0x8,%esp
80103368:	68 d9 8f 10 80       	push   $0x80108fd9
8010336d:	68 20 47 11 80       	push   $0x80114720
80103372:	e8 e2 20 00 00       	call   80105459 <initlock>
80103377:	83 c4 10             	add    $0x10,%esp
8010337a:	83 ec 08             	sub    $0x8,%esp
8010337d:	8d 45 dc             	lea    -0x24(%ebp),%eax
80103380:	50                   	push   %eax
80103381:	ff 75 08             	pushl  0x8(%ebp)
80103384:	e8 a3 e0 ff ff       	call   8010142c <readsb>
80103389:	83 c4 10             	add    $0x10,%esp
8010338c:	8b 45 ec             	mov    -0x14(%ebp),%eax
8010338f:	a3 54 47 11 80       	mov    %eax,0x80114754
80103394:	8b 45 e8             	mov    -0x18(%ebp),%eax
80103397:	a3 58 47 11 80       	mov    %eax,0x80114758
8010339c:	8b 45 08             	mov    0x8(%ebp),%eax
8010339f:	a3 64 47 11 80       	mov    %eax,0x80114764
801033a4:	e8 b2 01 00 00       	call   8010355b <recover_from_log>
801033a9:	90                   	nop
801033aa:	c9                   	leave  
801033ab:	c3                   	ret    

801033ac <install_trans>:
801033ac:	55                   	push   %ebp
801033ad:	89 e5                	mov    %esp,%ebp
801033af:	83 ec 18             	sub    $0x18,%esp
801033b2:	c7 45 f4 00 00 00 00 	movl   $0x0,-0xc(%ebp)
801033b9:	e9 95 00 00 00       	jmp    80103453 <install_trans+0xa7>
801033be:	8b 15 54 47 11 80    	mov    0x80114754,%edx
801033c4:	8b 45 f4             	mov    -0xc(%ebp),%eax
801033c7:	01 d0                	add    %edx,%eax
801033c9:	83 c0 01             	add    $0x1,%eax
801033cc:	89 c2                	mov    %eax,%edx
801033ce:	a1 64 47 11 80       	mov    0x80114764,%eax
801033d3:	83 ec 08             	sub    $0x8,%esp
801033d6:	52                   	push   %edx
801033d7:	50                   	push   %eax
801033d8:	e8 f1 cd ff ff       	call   801001ce <bread>
801033dd:	83 c4 10             	add    $0x10,%esp
801033e0:	89 45 f0             	mov    %eax,-0x10(%ebp)
801033e3:	8b 45 f4             	mov    -0xc(%ebp),%eax
801033e6:	83 c0 10             	add    $0x10,%eax
801033e9:	8b 04 85 2c 47 11 80 	mov    -0x7feeb8d4(,%eax,4),%eax
801033f0:	89 c2                	mov    %eax,%edx
801033f2:	a1 64 47 11 80       	mov    0x80114764,%eax
801033f7:	83 ec 08             	sub    $0x8,%esp
801033fa:	52                   	push   %edx
801033fb:	50                   	push   %eax
801033fc:	e8 cd cd ff ff       	call   801001ce <bread>
80103401:	83 c4 10             	add    $0x10,%esp
80103404:	89 45 ec             	mov    %eax,-0x14(%ebp)
80103407:	8b 45 f0             	mov    -0x10(%ebp),%eax
8010340a:	8d 50 5c             	lea    0x5c(%eax),%edx
8010340d:	8b 45 ec             	mov    -0x14(%ebp),%eax
80103410:	83 c0 5c             	add    $0x5c,%eax
80103413:	83 ec 04             	sub    $0x4,%esp
80103416:	68 00 02 00 00       	push   $0x200
8010341b:	52                   	push   %edx
8010341c:	50                   	push   %eax
8010341d:	e8 8f 23 00 00       	call   801057b1 <memmove>
80103422:	83 c4 10             	add    $0x10,%esp
80103425:	83 ec 0c             	sub    $0xc,%esp
80103428:	ff 75 ec             	pushl  -0x14(%ebp)
8010342b:	e8 d7 cd ff ff       	call   80100207 <bwrite>
80103430:	83 c4 10             	add    $0x10,%esp
80103433:	83 ec 0c             	sub    $0xc,%esp
80103436:	ff 75 f0             	pushl  -0x10(%ebp)
80103439:	e8 12 ce ff ff       	call   80100250 <brelse>
8010343e:	83 c4 10             	add    $0x10,%esp
80103441:	83 ec 0c             	sub    $0xc,%esp
80103444:	ff 75 ec             	pushl  -0x14(%ebp)
80103447:	e8 04 ce ff ff       	call   80100250 <brelse>
8010344c:	83 c4 10             	add    $0x10,%esp
8010344f:	83 45 f4 01          	addl   $0x1,-0xc(%ebp)
80103453:	a1 68 47 11 80       	mov    0x80114768,%eax
80103458:	3b 45 f4             	cmp    -0xc(%ebp),%eax
8010345b:	0f 8f 5d ff ff ff    	jg     801033be <install_trans+0x12>
80103461:	90                   	nop
80103462:	c9                   	leave  
80103463:	c3                   	ret    

80103464 <read_head>:
80103464:	55                   	push   %ebp
80103465:	89 e5                	mov    %esp,%ebp
80103467:	83 ec 18             	sub    $0x18,%esp
8010346a:	a1 54 47 11 80       	mov    0x80114754,%eax
8010346f:	89 c2                	mov    %eax,%edx
80103471:	a1 64 47 11 80       	mov    0x80114764,%eax
80103476:	83 ec 08             	sub    $0x8,%esp
80103479:	52                   	push   %edx
8010347a:	50                   	push   %eax
8010347b:	e8 4e cd ff ff       	call   801001ce <bread>
80103480:	83 c4 10             	add    $0x10,%esp
80103483:	89 45 f0             	mov    %eax,-0x10(%ebp)
80103486:	8b 45 f0             	mov    -0x10(%ebp),%eax
80103489:	83 c0 5c             	add    $0x5c,%eax
8010348c:	89 45 ec             	mov    %eax,-0x14(%ebp)
8010348f:	8b 45 ec             	mov    -0x14(%ebp),%eax
80103492:	8b 00                	mov    (%eax),%eax
80103494:	a3 68 47 11 80       	mov    %eax,0x80114768
80103499:	c7 45 f4 00 00 00 00 	movl   $0x0,-0xc(%ebp)
801034a0:	eb 1b                	jmp    801034bd <read_head+0x59>
801034a2:	8b 45 ec             	mov    -0x14(%ebp),%eax
801034a5:	8b 55 f4             	mov    -0xc(%ebp),%edx
801034a8:	8b 44 90 04          	mov    0x4(%eax,%edx,4),%eax
801034ac:	8b 55 f4             	mov    -0xc(%ebp),%edx
801034af:	83 c2 10             	add    $0x10,%edx
801034b2:	89 04 95 2c 47 11 80 	mov    %eax,-0x7feeb8d4(,%edx,4)
801034b9:	83 45 f4 01          	addl   $0x1,-0xc(%ebp)
801034bd:	a1 68 47 11 80       	mov    0x80114768,%eax
801034c2:	3b 45 f4             	cmp    -0xc(%ebp),%eax
801034c5:	7f db                	jg     801034a2 <read_head+0x3e>
801034c7:	83 ec 0c             	sub    $0xc,%esp
801034ca:	ff 75 f0             	pushl  -0x10(%ebp)
801034cd:	e8 7e cd ff ff       	call   80100250 <brelse>
801034d2:	83 c4 10             	add    $0x10,%esp
801034d5:	90                   	nop
801034d6:	c9                   	leave  
801034d7:	c3                   	ret    

801034d8 <write_head>:
801034d8:	55                   	push   %ebp
801034d9:	89 e5                	mov    %esp,%ebp
801034db:	83 ec 18             	sub    $0x18,%esp
801034de:	a1 54 47 11 80       	mov    0x80114754,%eax
801034e3:	89 c2                	mov    %eax,%edx
801034e5:	a1 64 47 11 80       	mov    0x80114764,%eax
801034ea:	83 ec 08             	sub    $0x8,%esp
801034ed:	52                   	push   %edx
801034ee:	50                   	push   %eax
801034ef:	e8 da cc ff ff       	call   801001ce <bread>
801034f4:	83 c4 10             	add    $0x10,%esp
801034f7:	89 45 f0             	mov    %eax,-0x10(%ebp)
801034fa:	8b 45 f0             	mov    -0x10(%ebp),%eax
801034fd:	83 c0 5c             	add    $0x5c,%eax
80103500:	89 45 ec             	mov    %eax,-0x14(%ebp)
80103503:	8b 15 68 47 11 80    	mov    0x80114768,%edx
80103509:	8b 45 ec             	mov    -0x14(%ebp),%eax
8010350c:	89 10                	mov    %edx,(%eax)
8010350e:	c7 45 f4 00 00 00 00 	movl   $0x0,-0xc(%ebp)
80103515:	eb 1b                	jmp    80103532 <write_head+0x5a>
80103517:	8b 45 f4             	mov    -0xc(%ebp),%eax
8010351a:	83 c0 10             	add    $0x10,%eax
8010351d:	8b 0c 85 2c 47 11 80 	mov    -0x7feeb8d4(,%eax,4),%ecx
80103524:	8b 45 ec             	mov    -0x14(%ebp),%eax
80103527:	8b 55 f4             	mov    -0xc(%ebp),%edx
8010352a:	89 4c 90 04          	mov    %ecx,0x4(%eax,%edx,4)
8010352e:	83 45 f4 01          	addl   $0x1,-0xc(%ebp)
80103532:	a1 68 47 11 80       	mov    0x80114768,%eax
80103537:	3b 45 f4             	cmp    -0xc(%ebp),%eax
8010353a:	7f db                	jg     80103517 <write_head+0x3f>
8010353c:	83 ec 0c             	sub    $0xc,%esp
8010353f:	ff 75 f0             	pushl  -0x10(%ebp)
80103542:	e8 c0 cc ff ff       	call   80100207 <bwrite>
80103547:	83 c4 10             	add    $0x10,%esp
8010354a:	83 ec 0c             	sub    $0xc,%esp
8010354d:	ff 75 f0             	pushl  -0x10(%ebp)
80103550:	e8 fb cc ff ff       	call   80100250 <brelse>
80103555:	83 c4 10             	add    $0x10,%esp
80103558:	90                   	nop
80103559:	c9                   	leave  
8010355a:	c3                   	ret    

8010355b <recover_from_log>:
8010355b:	55                   	push   %ebp
8010355c:	89 e5                	mov    %esp,%ebp
8010355e:	83 ec 08             	sub    $0x8,%esp
80103561:	e8 fe fe ff ff       	call   80103464 <read_head>
80103566:	e8 41 fe ff ff       	call   801033ac <install_trans>
8010356b:	c7 05 68 47 11 80 00 	movl   $0x0,0x80114768
80103572:	00 00 00 
80103575:	e8 5e ff ff ff       	call   801034d8 <write_head>
8010357a:	90                   	nop
8010357b:	c9                   	leave  
8010357c:	c3                   	ret    

8010357d <begin_op>:
8010357d:	55                   	push   %ebp
8010357e:	89 e5                	mov    %esp,%ebp
80103580:	83 ec 08             	sub    $0x8,%esp
80103583:	83 ec 0c             	sub    $0xc,%esp
80103586:	68 20 47 11 80       	push   $0x80114720
8010358b:	e8 eb 1e 00 00       	call   8010547b <acquire>
80103590:	83 c4 10             	add    $0x10,%esp
80103593:	a1 60 47 11 80       	mov    0x80114760,%eax
80103598:	85 c0                	test   %eax,%eax
8010359a:	74 17                	je     801035b3 <begin_op+0x36>
8010359c:	83 ec 08             	sub    $0x8,%esp
8010359f:	68 20 47 11 80       	push   $0x80114720
801035a4:	68 20 47 11 80       	push   $0x80114720
801035a9:	e8 49 17 00 00       	call   80104cf7 <sleep>
801035ae:	83 c4 10             	add    $0x10,%esp
801035b1:	eb e0                	jmp    80103593 <begin_op+0x16>
801035b3:	8b 0d 68 47 11 80    	mov    0x80114768,%ecx
801035b9:	a1 5c 47 11 80       	mov    0x8011475c,%eax
801035be:	8d 50 01             	lea    0x1(%eax),%edx
801035c1:	89 d0                	mov    %edx,%eax
801035c3:	c1 e0 02             	shl    $0x2,%eax
801035c6:	01 d0                	add    %edx,%eax
801035c8:	01 c0                	add    %eax,%eax
801035ca:	01 c8                	add    %ecx,%eax
801035cc:	83 f8 1e             	cmp    $0x1e,%eax
801035cf:	7e 17                	jle    801035e8 <begin_op+0x6b>
801035d1:	83 ec 08             	sub    $0x8,%esp
801035d4:	68 20 47 11 80       	push   $0x80114720
801035d9:	68 20 47 11 80       	push   $0x80114720
801035de:	e8 14 17 00 00       	call   80104cf7 <sleep>
801035e3:	83 c4 10             	add    $0x10,%esp
801035e6:	eb ab                	jmp    80103593 <begin_op+0x16>
801035e8:	a1 5c 47 11 80       	mov    0x8011475c,%eax
801035ed:	83 c0 01             	add    $0x1,%eax
801035f0:	a3 5c 47 11 80       	mov    %eax,0x8011475c
801035f5:	83 ec 0c             	sub    $0xc,%esp
801035f8:	68 20 47 11 80       	push   $0x80114720
801035fd:	e8 e7 1e 00 00       	call   801054e9 <release>
80103602:	83 c4 10             	add    $0x10,%esp
80103605:	90                   	nop
80103606:	90                   	nop
80103607:	c9                   	leave  
80103608:	c3                   	ret    

80103609 <end_op>:
80103609:	55                   	push   %ebp
8010360a:	89 e5                	mov    %esp,%ebp
8010360c:	83 ec 18             	sub    $0x18,%esp
8010360f:	c7 45 f4 00 00 00 00 	movl   $0x0,-0xc(%ebp)
80103616:	83 ec 0c             	sub    $0xc,%esp
80103619:	68 20 47 11 80       	push   $0x80114720
8010361e:	e8 58 1e 00 00       	call   8010547b <acquire>
80103623:	83 c4 10             	add    $0x10,%esp
80103626:	a1 5c 47 11 80       	mov    0x8011475c,%eax
8010362b:	83 e8 01             	sub    $0x1,%eax
8010362e:	a3 5c 47 11 80       	mov    %eax,0x8011475c
80103633:	a1 60 47 11 80       	mov    0x80114760,%eax
80103638:	85 c0                	test   %eax,%eax
8010363a:	74 0d                	je     80103649 <end_op+0x40>
8010363c:	83 ec 0c             	sub    $0xc,%esp
8010363f:	68 dd 8f 10 80       	push   $0x80108fdd
80103644:	e8 57 cf ff ff       	call   801005a0 <panic>
80103649:	a1 5c 47 11 80       	mov    0x8011475c,%eax
8010364e:	85 c0                	test   %eax,%eax
80103650:	75 13                	jne    80103665 <end_op+0x5c>
80103652:	c7 45 f4 01 00 00 00 	movl   $0x1,-0xc(%ebp)
80103659:	c7 05 60 47 11 80 01 	movl   $0x1,0x80114760
80103660:	00 00 00 
80103663:	eb 10                	jmp    80103675 <end_op+0x6c>
80103665:	83 ec 0c             	sub    $0xc,%esp
80103668:	68 20 47 11 80       	push   $0x80114720
8010366d:	e8 c2 17 00 00       	call   80104e34 <wakeup>
80103672:	83 c4 10             	add    $0x10,%esp
80103675:	83 ec 0c             	sub    $0xc,%esp
80103678:	68 20 47 11 80       	push   $0x80114720
8010367d:	e8 67 1e 00 00       	call   801054e9 <release>
80103682:	83 c4 10             	add    $0x10,%esp
80103685:	83 7d f4 00          	cmpl   $0x0,-0xc(%ebp)
80103689:	74 3f                	je     801036ca <end_op+0xc1>
8010368b:	e8 f5 00 00 00       	call   80103785 <commit>
80103690:	83 ec 0c             	sub    $0xc,%esp
80103693:	68 20 47 11 80       	push   $0x80114720
80103698:	e8 de 1d 00 00       	call   8010547b <acquire>
8010369d:	83 c4 10             	add    $0x10,%esp
801036a0:	c7 05 60 47 11 80 00 	movl   $0x0,0x80114760
801036a7:	00 00 00 
801036aa:	83 ec 0c             	sub    $0xc,%esp
801036ad:	68 20 47 11 80       	push   $0x80114720
801036b2:	e8 7d 17 00 00       	call   80104e34 <wakeup>
801036b7:	83 c4 10             	add    $0x10,%esp
801036ba:	83 ec 0c             	sub    $0xc,%esp
801036bd:	68 20 47 11 80       	push   $0x80114720
801036c2:	e8 22 1e 00 00       	call   801054e9 <release>
801036c7:	83 c4 10             	add    $0x10,%esp
801036ca:	90                   	nop
801036cb:	c9                   	leave  
801036cc:	c3                   	ret    

801036cd <write_log>:
801036cd:	55                   	push   %ebp
801036ce:	89 e5                	mov    %esp,%ebp
801036d0:	83 ec 18             	sub    $0x18,%esp
801036d3:	c7 45 f4 00 00 00 00 	movl   $0x0,-0xc(%ebp)
801036da:	e9 95 00 00 00       	jmp    80103774 <write_log+0xa7>
801036df:	8b 15 54 47 11 80    	mov    0x80114754,%edx
801036e5:	8b 45 f4             	mov    -0xc(%ebp),%eax
801036e8:	01 d0                	add    %edx,%eax
801036ea:	83 c0 01             	add    $0x1,%eax
801036ed:	89 c2                	mov    %eax,%edx
801036ef:	a1 64 47 11 80       	mov    0x80114764,%eax
801036f4:	83 ec 08             	sub    $0x8,%esp
801036f7:	52                   	push   %edx
801036f8:	50                   	push   %eax
801036f9:	e8 d0 ca ff ff       	call   801001ce <bread>
801036fe:	83 c4 10             	add    $0x10,%esp
80103701:	89 45 f0             	mov    %eax,-0x10(%ebp)
80103704:	8b 45 f4             	mov    -0xc(%ebp),%eax
80103707:	83 c0 10             	add    $0x10,%eax
8010370a:	8b 04 85 2c 47 11 80 	mov    -0x7feeb8d4(,%eax,4),%eax
80103711:	89 c2                	mov    %eax,%edx
80103713:	a1 64 47 11 80       	mov    0x80114764,%eax
80103718:	83 ec 08             	sub    $0x8,%esp
8010371b:	52                   	push   %edx
8010371c:	50                   	push   %eax
8010371d:	e8 ac ca ff ff       	call   801001ce <bread>
80103722:	83 c4 10             	add    $0x10,%esp
80103725:	89 45 ec             	mov    %eax,-0x14(%ebp)
80103728:	8b 45 ec             	mov    -0x14(%ebp),%eax
8010372b:	8d 50 5c             	lea    0x5c(%eax),%edx
8010372e:	8b 45 f0             	mov    -0x10(%ebp),%eax
80103731:	83 c0 5c             	add    $0x5c,%eax
80103734:	83 ec 04             	sub    $0x4,%esp
80103737:	68 00 02 00 00       	push   $0x200
8010373c:	52                   	push   %edx
8010373d:	50                   	push   %eax
8010373e:	e8 6e 20 00 00       	call   801057b1 <memmove>
80103743:	83 c4 10             	add    $0x10,%esp
80103746:	83 ec 0c             	sub    $0xc,%esp
80103749:	ff 75 f0             	pushl  -0x10(%ebp)
8010374c:	e8 b6 ca ff ff       	call   80100207 <bwrite>
80103751:	83 c4 10             	add    $0x10,%esp
80103754:	83 ec 0c             	sub    $0xc,%esp
80103757:	ff 75 ec             	pushl  -0x14(%ebp)
8010375a:	e8 f1 ca ff ff       	call   80100250 <brelse>
8010375f:	83 c4 10             	add    $0x10,%esp
80103762:	83 ec 0c             	sub    $0xc,%esp
80103765:	ff 75 f0             	pushl  -0x10(%ebp)
80103768:	e8 e3 ca ff ff       	call   80100250 <brelse>
8010376d:	83 c4 10             	add    $0x10,%esp
80103770:	83 45 f4 01          	addl   $0x1,-0xc(%ebp)
80103774:	a1 68 47 11 80       	mov    0x80114768,%eax
80103779:	3b 45 f4             	cmp    -0xc(%ebp),%eax
8010377c:	0f 8f 5d ff ff ff    	jg     801036df <write_log+0x12>
80103782:	90                   	nop
80103783:	c9                   	leave  
80103784:	c3                   	ret    

80103785 <commit>:
80103785:	55                   	push   %ebp
80103786:	89 e5                	mov    %esp,%ebp
80103788:	83 ec 08             	sub    $0x8,%esp
8010378b:	a1 68 47 11 80       	mov    0x80114768,%eax
80103790:	85 c0                	test   %eax,%eax
80103792:	7e 1e                	jle    801037b2 <commit+0x2d>
80103794:	e8 34 ff ff ff       	call   801036cd <write_log>
80103799:	e8 3a fd ff ff       	call   801034d8 <write_head>
8010379e:	e8 09 fc ff ff       	call   801033ac <install_trans>
801037a3:	c7 05 68 47 11 80 00 	movl   $0x0,0x80114768
801037aa:	00 00 00 
801037ad:	e8 26 fd ff ff       	call   801034d8 <write_head>
801037b2:	90                   	nop
801037b3:	c9                   	leave  
801037b4:	c3                   	ret    

801037b5 <log_write>:
801037b5:	55                   	push   %ebp
801037b6:	89 e5                	mov    %esp,%ebp
801037b8:	83 ec 18             	sub    $0x18,%esp
801037bb:	a1 68 47 11 80       	mov    0x80114768,%eax
801037c0:	83 f8 1d             	cmp    $0x1d,%eax
801037c3:	7f 12                	jg     801037d7 <log_write+0x22>
801037c5:	a1 68 47 11 80       	mov    0x80114768,%eax
801037ca:	8b 15 58 47 11 80    	mov    0x80114758,%edx
801037d0:	83 ea 01             	sub    $0x1,%edx
801037d3:	39 d0                	cmp    %edx,%eax
801037d5:	7c 0d                	jl     801037e4 <log_write+0x2f>
801037d7:	83 ec 0c             	sub    $0xc,%esp
801037da:	68 ec 8f 10 80       	push   $0x80108fec
801037df:	e8 bc cd ff ff       	call   801005a0 <panic>
801037e4:	a1 5c 47 11 80       	mov    0x8011475c,%eax
801037e9:	85 c0                	test   %eax,%eax
801037eb:	7f 0d                	jg     801037fa <log_write+0x45>
801037ed:	83 ec 0c             	sub    $0xc,%esp
801037f0:	68 02 90 10 80       	push   $0x80109002
801037f5:	e8 a6 cd ff ff       	call   801005a0 <panic>
801037fa:	83 ec 0c             	sub    $0xc,%esp
801037fd:	68 20 47 11 80       	push   $0x80114720
80103802:	e8 74 1c 00 00       	call   8010547b <acquire>
80103807:	83 c4 10             	add    $0x10,%esp
8010380a:	c7 45 f4 00 00 00 00 	movl   $0x0,-0xc(%ebp)
80103811:	eb 1d                	jmp    80103830 <log_write+0x7b>
80103813:	8b 45 f4             	mov    -0xc(%ebp),%eax
80103816:	83 c0 10             	add    $0x10,%eax
80103819:	8b 04 85 2c 47 11 80 	mov    -0x7feeb8d4(,%eax,4),%eax
80103820:	89 c2                	mov    %eax,%edx
80103822:	8b 45 08             	mov    0x8(%ebp),%eax
80103825:	8b 40 08             	mov    0x8(%eax),%eax
80103828:	39 c2                	cmp    %eax,%edx
8010382a:	74 10                	je     8010383c <log_write+0x87>
8010382c:	83 45 f4 01          	addl   $0x1,-0xc(%ebp)
80103830:	a1 68 47 11 80       	mov    0x80114768,%eax
80103835:	3b 45 f4             	cmp    -0xc(%ebp),%eax
80103838:	7f d9                	jg     80103813 <log_write+0x5e>
8010383a:	eb 01                	jmp    8010383d <log_write+0x88>
8010383c:	90                   	nop
8010383d:	8b 45 08             	mov    0x8(%ebp),%eax
80103840:	8b 40 08             	mov    0x8(%eax),%eax
80103843:	89 c2                	mov    %eax,%edx
80103845:	8b 45 f4             	mov    -0xc(%ebp),%eax
80103848:	83 c0 10             	add    $0x10,%eax
8010384b:	89 14 85 2c 47 11 80 	mov    %edx,-0x7feeb8d4(,%eax,4)
80103852:	a1 68 47 11 80       	mov    0x80114768,%eax
80103857:	3b 45 f4             	cmp    -0xc(%ebp),%eax
8010385a:	75 0d                	jne    80103869 <log_write+0xb4>
8010385c:	a1 68 47 11 80       	mov    0x80114768,%eax
80103861:	83 c0 01             	add    $0x1,%eax
80103864:	a3 68 47 11 80       	mov    %eax,0x80114768
80103869:	8b 45 08             	mov    0x8(%ebp),%eax
8010386c:	8b 00                	mov    (%eax),%eax
8010386e:	83 c8 04             	or     $0x4,%eax
80103871:	89 c2                	mov    %eax,%edx
80103873:	8b 45 08             	mov    0x8(%ebp),%eax
80103876:	89 10                	mov    %edx,(%eax)
80103878:	83 ec 0c             	sub    $0xc,%esp
8010387b:	68 20 47 11 80       	push   $0x80114720
80103880:	e8 64 1c 00 00       	call   801054e9 <release>
80103885:	83 c4 10             	add    $0x10,%esp
80103888:	90                   	nop
80103889:	c9                   	leave  
8010388a:	c3                   	ret    

8010388b <xchg>:
8010388b:	55                   	push   %ebp
8010388c:	89 e5                	mov    %esp,%ebp
8010388e:	83 ec 10             	sub    $0x10,%esp
80103891:	8b 55 08             	mov    0x8(%ebp),%edx
80103894:	8b 45 0c             	mov    0xc(%ebp),%eax
80103897:	8b 4d 08             	mov    0x8(%ebp),%ecx
8010389a:	f0 87 02             	lock xchg %eax,(%edx)
8010389d:	89 45 fc             	mov    %eax,-0x4(%ebp)
801038a0:	8b 45 fc             	mov    -0x4(%ebp),%eax
801038a3:	c9                   	leave  
801038a4:	c3                   	ret    

801038a5 <main>:
801038a5:	8d 4c 24 04          	lea    0x4(%esp),%ecx
801038a9:	83 e4 f0             	and    $0xfffffff0,%esp
801038ac:	ff 71 fc             	pushl  -0x4(%ecx)
801038af:	55                   	push   %ebp
801038b0:	89 e5                	mov    %esp,%ebp
801038b2:	51                   	push   %ecx
801038b3:	83 ec 04             	sub    $0x4,%esp
801038b6:	83 ec 08             	sub    $0x8,%esp
801038b9:	68 00 00 40 80       	push   $0x80400000
801038be:	68 48 ae 11 80       	push   $0x8011ae48
801038c3:	e8 e1 f2 ff ff       	call   80102ba9 <kinit1>
801038c8:	83 c4 10             	add    $0x10,%esp
801038cb:	e8 5b 49 00 00       	call   8010822b <kvmalloc>
801038d0:	e8 ba 03 00 00       	call   80103c8f <mpinit>
801038d5:	e8 3b f6 ff ff       	call   80102f15 <lapicinit>
801038da:	e8 37 44 00 00       	call   80107d16 <seginit>
801038df:	e8 fc 04 00 00       	call   80103de0 <picinit>
801038e4:	e8 dc f1 ff ff       	call   80102ac5 <ioapicinit>
801038e9:	e8 5d d2 ff ff       	call   80100b4b <consoleinit>
801038ee:	e8 bc 37 00 00       	call   801070af <uartinit>
801038f3:	e8 57 09 00 00       	call   8010424f <pinit>
801038f8:	e8 7b 33 00 00       	call   80106c78 <tvinit>
801038fd:	e8 32 c7 ff ff       	call   80100034 <binit>
80103902:	e8 16 d7 ff ff       	call   8010101d <fileinit>
80103907:	e8 90 ed ff ff       	call   8010269c <ideinit>
8010390c:	e8 80 00 00 00       	call   80103991 <startothers>
80103911:	83 ec 08             	sub    $0x8,%esp
80103914:	68 00 00 00 8e       	push   $0x8e000000
80103919:	68 00 00 40 80       	push   $0x80400000
8010391e:	e8 bf f2 ff ff       	call   80102be2 <kinit2>
80103923:	83 c4 10             	add    $0x10,%esp
80103926:	e8 86 0b 00 00       	call   801044b1 <userinit>
8010392b:	e8 1a 00 00 00       	call   8010394a <mpmain>

80103930 <mpenter>:
80103930:	55                   	push   %ebp
80103931:	89 e5                	mov    %esp,%ebp
80103933:	83 ec 08             	sub    $0x8,%esp
80103936:	e8 08 49 00 00       	call   80108243 <switchkvm>
8010393b:	e8 d6 43 00 00       	call   80107d16 <seginit>
80103940:	e8 d0 f5 ff ff       	call   80102f15 <lapicinit>
80103945:	e8 00 00 00 00       	call   8010394a <mpmain>

8010394a <mpmain>:
8010394a:	55                   	push   %ebp
8010394b:	89 e5                	mov    %esp,%ebp
8010394d:	53                   	push   %ebx
8010394e:	83 ec 04             	sub    $0x4,%esp
80103951:	e8 17 09 00 00       	call   8010426d <cpuid>
80103956:	89 c3                	mov    %eax,%ebx
80103958:	e8 10 09 00 00       	call   8010426d <cpuid>
8010395d:	83 ec 04             	sub    $0x4,%esp
80103960:	53                   	push   %ebx
80103961:	50                   	push   %eax
80103962:	68 1d 90 10 80       	push   $0x8010901d
80103967:	e8 94 ca ff ff       	call   80100400 <cprintf>
8010396c:	83 c4 10             	add    $0x10,%esp
8010396f:	e8 7a 34 00 00       	call   80106dee <idtinit>
80103974:	e8 15 09 00 00       	call   8010428e <mycpu>
80103979:	05 a0 00 00 00       	add    $0xa0,%eax
8010397e:	83 ec 08             	sub    $0x8,%esp
80103981:	6a 01                	push   $0x1
80103983:	50                   	push   %eax
80103984:	e8 02 ff ff ff       	call   8010388b <xchg>
80103989:	83 c4 10             	add    $0x10,%esp
8010398c:	e8 31 11 00 00       	call   80104ac2 <scheduler>

80103991 <startothers>:
80103991:	55                   	push   %ebp
80103992:	89 e5                	mov    %esp,%ebp
80103994:	83 ec 18             	sub    $0x18,%esp
80103997:	c7 45 f0 00 70 00 80 	movl   $0x80007000,-0x10(%ebp)
8010399e:	b8 8a 00 00 00       	mov    $0x8a,%eax
801039a3:	83 ec 04             	sub    $0x4,%esp
801039a6:	50                   	push   %eax
801039a7:	68 0c c5 10 80       	push   $0x8010c50c
801039ac:	ff 75 f0             	pushl  -0x10(%ebp)
801039af:	e8 fd 1d 00 00       	call   801057b1 <memmove>
801039b4:	83 c4 10             	add    $0x10,%esp
801039b7:	c7 45 f4 20 48 11 80 	movl   $0x80114820,-0xc(%ebp)
801039be:	eb 79                	jmp    80103a39 <startothers+0xa8>
801039c0:	e8 c9 08 00 00       	call   8010428e <mycpu>
801039c5:	3b 45 f4             	cmp    -0xc(%ebp),%eax
801039c8:	74 67                	je     80103a31 <startothers+0xa0>
801039ca:	e8 0e f3 ff ff       	call   80102cdd <kalloc>
801039cf:	89 45 ec             	mov    %eax,-0x14(%ebp)
801039d2:	8b 45 f0             	mov    -0x10(%ebp),%eax
801039d5:	83 e8 04             	sub    $0x4,%eax
801039d8:	8b 55 ec             	mov    -0x14(%ebp),%edx
801039db:	81 c2 00 10 00 00    	add    $0x1000,%edx
801039e1:	89 10                	mov    %edx,(%eax)
801039e3:	8b 45 f0             	mov    -0x10(%ebp),%eax
801039e6:	83 e8 08             	sub    $0x8,%eax
801039e9:	c7 00 30 39 10 80    	movl   $0x80103930,(%eax)
801039ef:	8b 45 f0             	mov    -0x10(%ebp),%eax
801039f2:	83 e8 0c             	sub    $0xc,%eax
801039f5:	ba 00 b0 10 80       	mov    $0x8010b000,%edx
801039fa:	81 c2 00 00 00 80    	add    $0x80000000,%edx
80103a00:	89 10                	mov    %edx,(%eax)
80103a02:	8b 45 f0             	mov    -0x10(%ebp),%eax
80103a05:	8d 90 00 00 00 80    	lea    -0x80000000(%eax),%edx
80103a0b:	8b 45 f4             	mov    -0xc(%ebp),%eax
80103a0e:	0f b6 00             	movzbl (%eax),%eax
80103a11:	0f b6 c0             	movzbl %al,%eax
80103a14:	83 ec 08             	sub    $0x8,%esp
80103a17:	52                   	push   %edx
80103a18:	50                   	push   %eax
80103a19:	e8 58 f6 ff ff       	call   80103076 <lapicstartap>
80103a1e:	83 c4 10             	add    $0x10,%esp
80103a21:	90                   	nop
80103a22:	8b 45 f4             	mov    -0xc(%ebp),%eax
80103a25:	8b 80 a0 00 00 00    	mov    0xa0(%eax),%eax
80103a2b:	85 c0                	test   %eax,%eax
80103a2d:	74 f3                	je     80103a22 <startothers+0x91>
80103a2f:	eb 01                	jmp    80103a32 <startothers+0xa1>
80103a31:	90                   	nop
80103a32:	81 45 f4 b0 00 00 00 	addl   $0xb0,-0xc(%ebp)
80103a39:	a1 a0 4d 11 80       	mov    0x80114da0,%eax
80103a3e:	69 c0 b0 00 00 00    	imul   $0xb0,%eax,%eax
80103a44:	05 20 48 11 80       	add    $0x80114820,%eax
80103a49:	3b 45 f4             	cmp    -0xc(%ebp),%eax
80103a4c:	0f 87 6e ff ff ff    	ja     801039c0 <startothers+0x2f>
80103a52:	90                   	nop
80103a53:	c9                   	leave  
80103a54:	c3                   	ret    

80103a55 <inb>:
80103a55:	55                   	push   %ebp
80103a56:	89 e5                	mov    %esp,%ebp
80103a58:	83 ec 14             	sub    $0x14,%esp
80103a5b:	8b 45 08             	mov    0x8(%ebp),%eax
80103a5e:	66 89 45 ec          	mov    %ax,-0x14(%ebp)
80103a62:	0f b7 45 ec          	movzwl -0x14(%ebp),%eax
80103a66:	89 c2                	mov    %eax,%edx
80103a68:	ec                   	in     (%dx),%al
80103a69:	88 45 ff             	mov    %al,-0x1(%ebp)
80103a6c:	0f b6 45 ff          	movzbl -0x1(%ebp),%eax
80103a70:	c9                   	leave  
80103a71:	c3                   	ret    

80103a72 <outb>:
80103a72:	55                   	push   %ebp
80103a73:	89 e5                	mov    %esp,%ebp
80103a75:	83 ec 08             	sub    $0x8,%esp
80103a78:	8b 55 08             	mov    0x8(%ebp),%edx
80103a7b:	8b 45 0c             	mov    0xc(%ebp),%eax
80103a7e:	66 89 55 fc          	mov    %dx,-0x4(%ebp)
80103a82:	88 45 f8             	mov    %al,-0x8(%ebp)
80103a85:	0f b6 45 f8          	movzbl -0x8(%ebp),%eax
80103a89:	0f b7 55 fc          	movzwl -0x4(%ebp),%edx
80103a8d:	ee                   	out    %al,(%dx)
80103a8e:	90                   	nop
80103a8f:	c9                   	leave  
80103a90:	c3                   	ret    

80103a91 <sum>:
80103a91:	55                   	push   %ebp
80103a92:	89 e5                	mov    %esp,%ebp
80103a94:	83 ec 10             	sub    $0x10,%esp
80103a97:	c7 45 f8 00 00 00 00 	movl   $0x0,-0x8(%ebp)
80103a9e:	c7 45 fc 00 00 00 00 	movl   $0x0,-0x4(%ebp)
80103aa5:	eb 15                	jmp    80103abc <sum+0x2b>
80103aa7:	8b 55 fc             	mov    -0x4(%ebp),%edx
80103aaa:	8b 45 08             	mov    0x8(%ebp),%eax
80103aad:	01 d0                	add    %edx,%eax
80103aaf:	0f b6 00             	movzbl (%eax),%eax
80103ab2:	0f b6 c0             	movzbl %al,%eax
80103ab5:	01 45 f8             	add    %eax,-0x8(%ebp)
80103ab8:	83 45 fc 01          	addl   $0x1,-0x4(%ebp)
80103abc:	8b 45 fc             	mov    -0x4(%ebp),%eax
80103abf:	3b 45 0c             	cmp    0xc(%ebp),%eax
80103ac2:	7c e3                	jl     80103aa7 <sum+0x16>
80103ac4:	8b 45 f8             	mov    -0x8(%ebp),%eax
80103ac7:	c9                   	leave  
80103ac8:	c3                   	ret    

80103ac9 <mpsearch1>:
80103ac9:	55                   	push   %ebp
80103aca:	89 e5                	mov    %esp,%ebp
80103acc:	83 ec 18             	sub    $0x18,%esp
80103acf:	8b 45 08             	mov    0x8(%ebp),%eax
80103ad2:	05 00 00 00 80       	add    $0x80000000,%eax
80103ad7:	89 45 f0             	mov    %eax,-0x10(%ebp)
80103ada:	8b 55 0c             	mov    0xc(%ebp),%edx
80103add:	8b 45 f0             	mov    -0x10(%ebp),%eax
80103ae0:	01 d0                	add    %edx,%eax
80103ae2:	89 45 ec             	mov    %eax,-0x14(%ebp)
80103ae5:	8b 45 f0             	mov    -0x10(%ebp),%eax
80103ae8:	89 45 f4             	mov    %eax,-0xc(%ebp)
80103aeb:	eb 36                	jmp    80103b23 <mpsearch1+0x5a>
80103aed:	83 ec 04             	sub    $0x4,%esp
80103af0:	6a 04                	push   $0x4
80103af2:	68 34 90 10 80       	push   $0x80109034
80103af7:	ff 75 f4             	pushl  -0xc(%ebp)
80103afa:	e8 5a 1c 00 00       	call   80105759 <memcmp>
80103aff:	83 c4 10             	add    $0x10,%esp
80103b02:	85 c0                	test   %eax,%eax
80103b04:	75 19                	jne    80103b1f <mpsearch1+0x56>
80103b06:	83 ec 08             	sub    $0x8,%esp
80103b09:	6a 10                	push   $0x10
80103b0b:	ff 75 f4             	pushl  -0xc(%ebp)
80103b0e:	e8 7e ff ff ff       	call   80103a91 <sum>
80103b13:	83 c4 10             	add    $0x10,%esp
80103b16:	84 c0                	test   %al,%al
80103b18:	75 05                	jne    80103b1f <mpsearch1+0x56>
80103b1a:	8b 45 f4             	mov    -0xc(%ebp),%eax
80103b1d:	eb 11                	jmp    80103b30 <mpsearch1+0x67>
80103b1f:	83 45 f4 10          	addl   $0x10,-0xc(%ebp)
80103b23:	8b 45 f4             	mov    -0xc(%ebp),%eax
80103b26:	3b 45 ec             	cmp    -0x14(%ebp),%eax
80103b29:	72 c2                	jb     80103aed <mpsearch1+0x24>
80103b2b:	b8 00 00 00 00       	mov    $0x0,%eax
80103b30:	c9                   	leave  
80103b31:	c3                   	ret    

80103b32 <mpsearch>:
80103b32:	55                   	push   %ebp
80103b33:	89 e5                	mov    %esp,%ebp
80103b35:	83 ec 18             	sub    $0x18,%esp
80103b38:	c7 45 f4 00 04 00 80 	movl   $0x80000400,-0xc(%ebp)
80103b3f:	8b 45 f4             	mov    -0xc(%ebp),%eax
80103b42:	83 c0 0f             	add    $0xf,%eax
80103b45:	0f b6 00             	movzbl (%eax),%eax
80103b48:	0f b6 c0             	movzbl %al,%eax
80103b4b:	c1 e0 08             	shl    $0x8,%eax
80103b4e:	89 c2                	mov    %eax,%edx
80103b50:	8b 45 f4             	mov    -0xc(%ebp),%eax
80103b53:	83 c0 0e             	add    $0xe,%eax
80103b56:	0f b6 00             	movzbl (%eax),%eax
80103b59:	0f b6 c0             	movzbl %al,%eax
80103b5c:	09 d0                	or     %edx,%eax
80103b5e:	c1 e0 04             	shl    $0x4,%eax
80103b61:	89 45 f0             	mov    %eax,-0x10(%ebp)
80103b64:	83 7d f0 00          	cmpl   $0x0,-0x10(%ebp)
80103b68:	74 21                	je     80103b8b <mpsearch+0x59>
80103b6a:	83 ec 08             	sub    $0x8,%esp
80103b6d:	68 00 04 00 00       	push   $0x400
80103b72:	ff 75 f0             	pushl  -0x10(%ebp)
80103b75:	e8 4f ff ff ff       	call   80103ac9 <mpsearch1>
80103b7a:	83 c4 10             	add    $0x10,%esp
80103b7d:	89 45 ec             	mov    %eax,-0x14(%ebp)
80103b80:	83 7d ec 00          	cmpl   $0x0,-0x14(%ebp)
80103b84:	74 51                	je     80103bd7 <mpsearch+0xa5>
80103b86:	8b 45 ec             	mov    -0x14(%ebp),%eax
80103b89:	eb 61                	jmp    80103bec <mpsearch+0xba>
80103b8b:	8b 45 f4             	mov    -0xc(%ebp),%eax
80103b8e:	83 c0 14             	add    $0x14,%eax
80103b91:	0f b6 00             	movzbl (%eax),%eax
80103b94:	0f b6 c0             	movzbl %al,%eax
80103b97:	c1 e0 08             	shl    $0x8,%eax
80103b9a:	89 c2                	mov    %eax,%edx
80103b9c:	8b 45 f4             	mov    -0xc(%ebp),%eax
80103b9f:	83 c0 13             	add    $0x13,%eax
80103ba2:	0f b6 00             	movzbl (%eax),%eax
80103ba5:	0f b6 c0             	movzbl %al,%eax
80103ba8:	09 d0                	or     %edx,%eax
80103baa:	c1 e0 0a             	shl    $0xa,%eax
80103bad:	89 45 f0             	mov    %eax,-0x10(%ebp)
80103bb0:	8b 45 f0             	mov    -0x10(%ebp),%eax
80103bb3:	2d 00 04 00 00       	sub    $0x400,%eax
80103bb8:	83 ec 08             	sub    $0x8,%esp
80103bbb:	68 00 04 00 00       	push   $0x400
80103bc0:	50                   	push   %eax
80103bc1:	e8 03 ff ff ff       	call   80103ac9 <mpsearch1>
80103bc6:	83 c4 10             	add    $0x10,%esp
80103bc9:	89 45 ec             	mov    %eax,-0x14(%ebp)
80103bcc:	83 7d ec 00          	cmpl   $0x0,-0x14(%ebp)
80103bd0:	74 05                	je     80103bd7 <mpsearch+0xa5>
80103bd2:	8b 45 ec             	mov    -0x14(%ebp),%eax
80103bd5:	eb 15                	jmp    80103bec <mpsearch+0xba>
80103bd7:	83 ec 08             	sub    $0x8,%esp
80103bda:	68 00 00 01 00       	push   $0x10000
80103bdf:	68 00 00 0f 00       	push   $0xf0000
80103be4:	e8 e0 fe ff ff       	call   80103ac9 <mpsearch1>
80103be9:	83 c4 10             	add    $0x10,%esp
80103bec:	c9                   	leave  
80103bed:	c3                   	ret    

80103bee <mpconfig>:
80103bee:	55                   	push   %ebp
80103bef:	89 e5                	mov    %esp,%ebp
80103bf1:	83 ec 18             	sub    $0x18,%esp
80103bf4:	e8 39 ff ff ff       	call   80103b32 <mpsearch>
80103bf9:	89 45 f4             	mov    %eax,-0xc(%ebp)
80103bfc:	83 7d f4 00          	cmpl   $0x0,-0xc(%ebp)
80103c00:	74 0a                	je     80103c0c <mpconfig+0x1e>
80103c02:	8b 45 f4             	mov    -0xc(%ebp),%eax
80103c05:	8b 40 04             	mov    0x4(%eax),%eax
80103c08:	85 c0                	test   %eax,%eax
80103c0a:	75 07                	jne    80103c13 <mpconfig+0x25>
80103c0c:	b8 00 00 00 00       	mov    $0x0,%eax
80103c11:	eb 7a                	jmp    80103c8d <mpconfig+0x9f>
80103c13:	8b 45 f4             	mov    -0xc(%ebp),%eax
80103c16:	8b 40 04             	mov    0x4(%eax),%eax
80103c19:	05 00 00 00 80       	add    $0x80000000,%eax
80103c1e:	89 45 f0             	mov    %eax,-0x10(%ebp)
80103c21:	83 ec 04             	sub    $0x4,%esp
80103c24:	6a 04                	push   $0x4
80103c26:	68 39 90 10 80       	push   $0x80109039
80103c2b:	ff 75 f0             	pushl  -0x10(%ebp)
80103c2e:	e8 26 1b 00 00       	call   80105759 <memcmp>
80103c33:	83 c4 10             	add    $0x10,%esp
80103c36:	85 c0                	test   %eax,%eax
80103c38:	74 07                	je     80103c41 <mpconfig+0x53>
80103c3a:	b8 00 00 00 00       	mov    $0x0,%eax
80103c3f:	eb 4c                	jmp    80103c8d <mpconfig+0x9f>
80103c41:	8b 45 f0             	mov    -0x10(%ebp),%eax
80103c44:	0f b6 40 06          	movzbl 0x6(%eax),%eax
80103c48:	3c 01                	cmp    $0x1,%al
80103c4a:	74 12                	je     80103c5e <mpconfig+0x70>
80103c4c:	8b 45 f0             	mov    -0x10(%ebp),%eax
80103c4f:	0f b6 40 06          	movzbl 0x6(%eax),%eax
80103c53:	3c 04                	cmp    $0x4,%al
80103c55:	74 07                	je     80103c5e <mpconfig+0x70>
80103c57:	b8 00 00 00 00       	mov    $0x0,%eax
80103c5c:	eb 2f                	jmp    80103c8d <mpconfig+0x9f>
80103c5e:	8b 45 f0             	mov    -0x10(%ebp),%eax
80103c61:	0f b7 40 04          	movzwl 0x4(%eax),%eax
80103c65:	0f b7 c0             	movzwl %ax,%eax
80103c68:	83 ec 08             	sub    $0x8,%esp
80103c6b:	50                   	push   %eax
80103c6c:	ff 75 f0             	pushl  -0x10(%ebp)
80103c6f:	e8 1d fe ff ff       	call   80103a91 <sum>
80103c74:	83 c4 10             	add    $0x10,%esp
80103c77:	84 c0                	test   %al,%al
80103c79:	74 07                	je     80103c82 <mpconfig+0x94>
80103c7b:	b8 00 00 00 00       	mov    $0x0,%eax
80103c80:	eb 0b                	jmp    80103c8d <mpconfig+0x9f>
80103c82:	8b 45 08             	mov    0x8(%ebp),%eax
80103c85:	8b 55 f4             	mov    -0xc(%ebp),%edx
80103c88:	89 10                	mov    %edx,(%eax)
80103c8a:	8b 45 f0             	mov    -0x10(%ebp),%eax
80103c8d:	c9                   	leave  
80103c8e:	c3                   	ret    

80103c8f <mpinit>:
80103c8f:	55                   	push   %ebp
80103c90:	89 e5                	mov    %esp,%ebp
80103c92:	83 ec 28             	sub    $0x28,%esp
80103c95:	83 ec 0c             	sub    $0xc,%esp
80103c98:	8d 45 dc             	lea    -0x24(%ebp),%eax
80103c9b:	50                   	push   %eax
80103c9c:	e8 4d ff ff ff       	call   80103bee <mpconfig>
80103ca1:	83 c4 10             	add    $0x10,%esp
80103ca4:	89 45 ec             	mov    %eax,-0x14(%ebp)
80103ca7:	83 7d ec 00          	cmpl   $0x0,-0x14(%ebp)
80103cab:	75 0d                	jne    80103cba <mpinit+0x2b>
80103cad:	83 ec 0c             	sub    $0xc,%esp
80103cb0:	68 3e 90 10 80       	push   $0x8010903e
80103cb5:	e8 e6 c8 ff ff       	call   801005a0 <panic>
80103cba:	c7 45 f0 01 00 00 00 	movl   $0x1,-0x10(%ebp)
80103cc1:	8b 45 ec             	mov    -0x14(%ebp),%eax
80103cc4:	8b 40 24             	mov    0x24(%eax),%eax
80103cc7:	a3 1c 47 11 80       	mov    %eax,0x8011471c
80103ccc:	8b 45 ec             	mov    -0x14(%ebp),%eax
80103ccf:	83 c0 2c             	add    $0x2c,%eax
80103cd2:	89 45 f4             	mov    %eax,-0xc(%ebp)
80103cd5:	8b 45 ec             	mov    -0x14(%ebp),%eax
80103cd8:	0f b7 40 04          	movzwl 0x4(%eax),%eax
80103cdc:	0f b7 d0             	movzwl %ax,%edx
80103cdf:	8b 45 ec             	mov    -0x14(%ebp),%eax
80103ce2:	01 d0                	add    %edx,%eax
80103ce4:	89 45 e8             	mov    %eax,-0x18(%ebp)
80103ce7:	eb 7b                	jmp    80103d64 <mpinit+0xd5>
80103ce9:	8b 45 f4             	mov    -0xc(%ebp),%eax
80103cec:	0f b6 00             	movzbl (%eax),%eax
80103cef:	0f b6 c0             	movzbl %al,%eax
80103cf2:	83 f8 04             	cmp    $0x4,%eax
80103cf5:	77 65                	ja     80103d5c <mpinit+0xcd>
80103cf7:	8b 04 85 78 90 10 80 	mov    -0x7fef6f88(,%eax,4),%eax
80103cfe:	ff e0                	jmp    *%eax
80103d00:	8b 45 f4             	mov    -0xc(%ebp),%eax
80103d03:	89 45 e4             	mov    %eax,-0x1c(%ebp)
80103d06:	a1 a0 4d 11 80       	mov    0x80114da0,%eax
80103d0b:	83 f8 07             	cmp    $0x7,%eax
80103d0e:	7f 28                	jg     80103d38 <mpinit+0xa9>
80103d10:	8b 15 a0 4d 11 80    	mov    0x80114da0,%edx
80103d16:	8b 45 e4             	mov    -0x1c(%ebp),%eax
80103d19:	0f b6 40 01          	movzbl 0x1(%eax),%eax
80103d1d:	69 d2 b0 00 00 00    	imul   $0xb0,%edx,%edx
80103d23:	81 c2 20 48 11 80    	add    $0x80114820,%edx
80103d29:	88 02                	mov    %al,(%edx)
80103d2b:	a1 a0 4d 11 80       	mov    0x80114da0,%eax
80103d30:	83 c0 01             	add    $0x1,%eax
80103d33:	a3 a0 4d 11 80       	mov    %eax,0x80114da0
80103d38:	83 45 f4 14          	addl   $0x14,-0xc(%ebp)
80103d3c:	eb 26                	jmp    80103d64 <mpinit+0xd5>
80103d3e:	8b 45 f4             	mov    -0xc(%ebp),%eax
80103d41:	89 45 e0             	mov    %eax,-0x20(%ebp)
80103d44:	8b 45 e0             	mov    -0x20(%ebp),%eax
80103d47:	0f b6 40 01          	movzbl 0x1(%eax),%eax
80103d4b:	a2 00 48 11 80       	mov    %al,0x80114800
80103d50:	83 45 f4 08          	addl   $0x8,-0xc(%ebp)
80103d54:	eb 0e                	jmp    80103d64 <mpinit+0xd5>
80103d56:	83 45 f4 08          	addl   $0x8,-0xc(%ebp)
80103d5a:	eb 08                	jmp    80103d64 <mpinit+0xd5>
80103d5c:	c7 45 f0 00 00 00 00 	movl   $0x0,-0x10(%ebp)
80103d63:	90                   	nop
80103d64:	8b 45 f4             	mov    -0xc(%ebp),%eax
80103d67:	3b 45 e8             	cmp    -0x18(%ebp),%eax
80103d6a:	0f 82 79 ff ff ff    	jb     80103ce9 <mpinit+0x5a>
80103d70:	83 7d f0 00          	cmpl   $0x0,-0x10(%ebp)
80103d74:	75 0d                	jne    80103d83 <mpinit+0xf4>
80103d76:	83 ec 0c             	sub    $0xc,%esp
80103d79:	68 58 90 10 80       	push   $0x80109058
80103d7e:	e8 1d c8 ff ff       	call   801005a0 <panic>
80103d83:	8b 45 dc             	mov    -0x24(%ebp),%eax
80103d86:	0f b6 40 0c          	movzbl 0xc(%eax),%eax
80103d8a:	84 c0                	test   %al,%al
80103d8c:	74 30                	je     80103dbe <mpinit+0x12f>
80103d8e:	83 ec 08             	sub    $0x8,%esp
80103d91:	6a 70                	push   $0x70
80103d93:	6a 22                	push   $0x22
80103d95:	e8 d8 fc ff ff       	call   80103a72 <outb>
80103d9a:	83 c4 10             	add    $0x10,%esp
80103d9d:	83 ec 0c             	sub    $0xc,%esp
80103da0:	6a 23                	push   $0x23
80103da2:	e8 ae fc ff ff       	call   80103a55 <inb>
80103da7:	83 c4 10             	add    $0x10,%esp
80103daa:	83 c8 01             	or     $0x1,%eax
80103dad:	0f b6 c0             	movzbl %al,%eax
80103db0:	83 ec 08             	sub    $0x8,%esp
80103db3:	50                   	push   %eax
80103db4:	6a 23                	push   $0x23
80103db6:	e8 b7 fc ff ff       	call   80103a72 <outb>
80103dbb:	83 c4 10             	add    $0x10,%esp
80103dbe:	90                   	nop
80103dbf:	c9                   	leave  
80103dc0:	c3                   	ret    

80103dc1 <outb>:
80103dc1:	55                   	push   %ebp
80103dc2:	89 e5                	mov    %esp,%ebp
80103dc4:	83 ec 08             	sub    $0x8,%esp
80103dc7:	8b 55 08             	mov    0x8(%ebp),%edx
80103dca:	8b 45 0c             	mov    0xc(%ebp),%eax
80103dcd:	66 89 55 fc          	mov    %dx,-0x4(%ebp)
80103dd1:	88 45 f8             	mov    %al,-0x8(%ebp)
80103dd4:	0f b6 45 f8          	movzbl -0x8(%ebp),%eax
80103dd8:	0f b7 55 fc          	movzwl -0x4(%ebp),%edx
80103ddc:	ee                   	out    %al,(%dx)
80103ddd:	90                   	nop
80103dde:	c9                   	leave  
80103ddf:	c3                   	ret    

80103de0 <picinit>:
80103de0:	55                   	push   %ebp
80103de1:	89 e5                	mov    %esp,%ebp
80103de3:	68 ff 00 00 00       	push   $0xff
80103de8:	6a 21                	push   $0x21
80103dea:	e8 d2 ff ff ff       	call   80103dc1 <outb>
80103def:	83 c4 08             	add    $0x8,%esp
80103df2:	68 ff 00 00 00       	push   $0xff
80103df7:	68 a1 00 00 00       	push   $0xa1
80103dfc:	e8 c0 ff ff ff       	call   80103dc1 <outb>
80103e01:	83 c4 08             	add    $0x8,%esp
80103e04:	90                   	nop
80103e05:	c9                   	leave  
80103e06:	c3                   	ret    

80103e07 <pipealloc>:
80103e07:	55                   	push   %ebp
80103e08:	89 e5                	mov    %esp,%ebp
80103e0a:	83 ec 18             	sub    $0x18,%esp
80103e0d:	c7 45 f4 00 00 00 00 	movl   $0x0,-0xc(%ebp)
80103e14:	8b 45 0c             	mov    0xc(%ebp),%eax
80103e17:	c7 00 00 00 00 00    	movl   $0x0,(%eax)
80103e1d:	8b 45 0c             	mov    0xc(%ebp),%eax
80103e20:	8b 10                	mov    (%eax),%edx
80103e22:	8b 45 08             	mov    0x8(%ebp),%eax
80103e25:	89 10                	mov    %edx,(%eax)
80103e27:	e8 0f d2 ff ff       	call   8010103b <filealloc>
80103e2c:	89 c2                	mov    %eax,%edx
80103e2e:	8b 45 08             	mov    0x8(%ebp),%eax
80103e31:	89 10                	mov    %edx,(%eax)
80103e33:	8b 45 08             	mov    0x8(%ebp),%eax
80103e36:	8b 00                	mov    (%eax),%eax
80103e38:	85 c0                	test   %eax,%eax
80103e3a:	0f 84 cb 00 00 00    	je     80103f0b <pipealloc+0x104>
80103e40:	e8 f6 d1 ff ff       	call   8010103b <filealloc>
80103e45:	89 c2                	mov    %eax,%edx
80103e47:	8b 45 0c             	mov    0xc(%ebp),%eax
80103e4a:	89 10                	mov    %edx,(%eax)
80103e4c:	8b 45 0c             	mov    0xc(%ebp),%eax
80103e4f:	8b 00                	mov    (%eax),%eax
80103e51:	85 c0                	test   %eax,%eax
80103e53:	0f 84 b2 00 00 00    	je     80103f0b <pipealloc+0x104>
80103e59:	e8 7f ee ff ff       	call   80102cdd <kalloc>
80103e5e:	89 45 f4             	mov    %eax,-0xc(%ebp)
80103e61:	83 7d f4 00          	cmpl   $0x0,-0xc(%ebp)
80103e65:	0f 84 9f 00 00 00    	je     80103f0a <pipealloc+0x103>
80103e6b:	8b 45 f4             	mov    -0xc(%ebp),%eax
80103e6e:	c7 80 3c 02 00 00 01 	movl   $0x1,0x23c(%eax)
80103e75:	00 00 00 
80103e78:	8b 45 f4             	mov    -0xc(%ebp),%eax
80103e7b:	c7 80 40 02 00 00 01 	movl   $0x1,0x240(%eax)
80103e82:	00 00 00 
80103e85:	8b 45 f4             	mov    -0xc(%ebp),%eax
80103e88:	c7 80 38 02 00 00 00 	movl   $0x0,0x238(%eax)
80103e8f:	00 00 00 
80103e92:	8b 45 f4             	mov    -0xc(%ebp),%eax
80103e95:	c7 80 34 02 00 00 00 	movl   $0x0,0x234(%eax)
80103e9c:	00 00 00 
80103e9f:	8b 45 f4             	mov    -0xc(%ebp),%eax
80103ea2:	83 ec 08             	sub    $0x8,%esp
80103ea5:	68 8c 90 10 80       	push   $0x8010908c
80103eaa:	50                   	push   %eax
80103eab:	e8 a9 15 00 00       	call   80105459 <initlock>
80103eb0:	83 c4 10             	add    $0x10,%esp
80103eb3:	8b 45 08             	mov    0x8(%ebp),%eax
80103eb6:	8b 00                	mov    (%eax),%eax
80103eb8:	c7 00 01 00 00 00    	movl   $0x1,(%eax)
80103ebe:	8b 45 08             	mov    0x8(%ebp),%eax
80103ec1:	8b 00                	mov    (%eax),%eax
80103ec3:	c6 40 08 01          	movb   $0x1,0x8(%eax)
80103ec7:	8b 45 08             	mov    0x8(%ebp),%eax
80103eca:	8b 00                	mov    (%eax),%eax
80103ecc:	c6 40 09 00          	movb   $0x0,0x9(%eax)
80103ed0:	8b 45 08             	mov    0x8(%ebp),%eax
80103ed3:	8b 00                	mov    (%eax),%eax
80103ed5:	8b 55 f4             	mov    -0xc(%ebp),%edx
80103ed8:	89 50 0c             	mov    %edx,0xc(%eax)
80103edb:	8b 45 0c             	mov    0xc(%ebp),%eax
80103ede:	8b 00                	mov    (%eax),%eax
80103ee0:	c7 00 01 00 00 00    	movl   $0x1,(%eax)
80103ee6:	8b 45 0c             	mov    0xc(%ebp),%eax
80103ee9:	8b 00                	mov    (%eax),%eax
80103eeb:	c6 40 08 00          	movb   $0x0,0x8(%eax)
80103eef:	8b 45 0c             	mov    0xc(%ebp),%eax
80103ef2:	8b 00                	mov    (%eax),%eax
80103ef4:	c6 40 09 01          	movb   $0x1,0x9(%eax)
80103ef8:	8b 45 0c             	mov    0xc(%ebp),%eax
80103efb:	8b 00                	mov    (%eax),%eax
80103efd:	8b 55 f4             	mov    -0xc(%ebp),%edx
80103f00:	89 50 0c             	mov    %edx,0xc(%eax)
80103f03:	b8 00 00 00 00       	mov    $0x0,%eax
80103f08:	eb 4e                	jmp    80103f58 <pipealloc+0x151>
80103f0a:	90                   	nop
80103f0b:	83 7d f4 00          	cmpl   $0x0,-0xc(%ebp)
80103f0f:	74 0e                	je     80103f1f <pipealloc+0x118>
80103f11:	83 ec 0c             	sub    $0xc,%esp
80103f14:	ff 75 f4             	pushl  -0xc(%ebp)
80103f17:	e8 27 ed ff ff       	call   80102c43 <kfree>
80103f1c:	83 c4 10             	add    $0x10,%esp
80103f1f:	8b 45 08             	mov    0x8(%ebp),%eax
80103f22:	8b 00                	mov    (%eax),%eax
80103f24:	85 c0                	test   %eax,%eax
80103f26:	74 11                	je     80103f39 <pipealloc+0x132>
80103f28:	8b 45 08             	mov    0x8(%ebp),%eax
80103f2b:	8b 00                	mov    (%eax),%eax
80103f2d:	83 ec 0c             	sub    $0xc,%esp
80103f30:	50                   	push   %eax
80103f31:	e8 c3 d1 ff ff       	call   801010f9 <fileclose>
80103f36:	83 c4 10             	add    $0x10,%esp
80103f39:	8b 45 0c             	mov    0xc(%ebp),%eax
80103f3c:	8b 00                	mov    (%eax),%eax
80103f3e:	85 c0                	test   %eax,%eax
80103f40:	74 11                	je     80103f53 <pipealloc+0x14c>
80103f42:	8b 45 0c             	mov    0xc(%ebp),%eax
80103f45:	8b 00                	mov    (%eax),%eax
80103f47:	83 ec 0c             	sub    $0xc,%esp
80103f4a:	50                   	push   %eax
80103f4b:	e8 a9 d1 ff ff       	call   801010f9 <fileclose>
80103f50:	83 c4 10             	add    $0x10,%esp
80103f53:	b8 ff ff ff ff       	mov    $0xffffffff,%eax
80103f58:	c9                   	leave  
80103f59:	c3                   	ret    

80103f5a <pipeclose>:
80103f5a:	55                   	push   %ebp
80103f5b:	89 e5                	mov    %esp,%ebp
80103f5d:	83 ec 08             	sub    $0x8,%esp
80103f60:	8b 45 08             	mov    0x8(%ebp),%eax
80103f63:	83 ec 0c             	sub    $0xc,%esp
80103f66:	50                   	push   %eax
80103f67:	e8 0f 15 00 00       	call   8010547b <acquire>
80103f6c:	83 c4 10             	add    $0x10,%esp
80103f6f:	83 7d 0c 00          	cmpl   $0x0,0xc(%ebp)
80103f73:	74 23                	je     80103f98 <pipeclose+0x3e>
80103f75:	8b 45 08             	mov    0x8(%ebp),%eax
80103f78:	c7 80 40 02 00 00 00 	movl   $0x0,0x240(%eax)
80103f7f:	00 00 00 
80103f82:	8b 45 08             	mov    0x8(%ebp),%eax
80103f85:	05 34 02 00 00       	add    $0x234,%eax
80103f8a:	83 ec 0c             	sub    $0xc,%esp
80103f8d:	50                   	push   %eax
80103f8e:	e8 a1 0e 00 00       	call   80104e34 <wakeup>
80103f93:	83 c4 10             	add    $0x10,%esp
80103f96:	eb 21                	jmp    80103fb9 <pipeclose+0x5f>
80103f98:	8b 45 08             	mov    0x8(%ebp),%eax
80103f9b:	c7 80 3c 02 00 00 00 	movl   $0x0,0x23c(%eax)
80103fa2:	00 00 00 
80103fa5:	8b 45 08             	mov    0x8(%ebp),%eax
80103fa8:	05 38 02 00 00       	add    $0x238,%eax
80103fad:	83 ec 0c             	sub    $0xc,%esp
80103fb0:	50                   	push   %eax
80103fb1:	e8 7e 0e 00 00       	call   80104e34 <wakeup>
80103fb6:	83 c4 10             	add    $0x10,%esp
80103fb9:	8b 45 08             	mov    0x8(%ebp),%eax
80103fbc:	8b 80 3c 02 00 00    	mov    0x23c(%eax),%eax
80103fc2:	85 c0                	test   %eax,%eax
80103fc4:	75 2c                	jne    80103ff2 <pipeclose+0x98>
80103fc6:	8b 45 08             	mov    0x8(%ebp),%eax
80103fc9:	8b 80 40 02 00 00    	mov    0x240(%eax),%eax
80103fcf:	85 c0                	test   %eax,%eax
80103fd1:	75 1f                	jne    80103ff2 <pipeclose+0x98>
80103fd3:	8b 45 08             	mov    0x8(%ebp),%eax
80103fd6:	83 ec 0c             	sub    $0xc,%esp
80103fd9:	50                   	push   %eax
80103fda:	e8 0a 15 00 00       	call   801054e9 <release>
80103fdf:	83 c4 10             	add    $0x10,%esp
80103fe2:	83 ec 0c             	sub    $0xc,%esp
80103fe5:	ff 75 08             	pushl  0x8(%ebp)
80103fe8:	e8 56 ec ff ff       	call   80102c43 <kfree>
80103fed:	83 c4 10             	add    $0x10,%esp
80103ff0:	eb 0f                	jmp    80104001 <pipeclose+0xa7>
80103ff2:	8b 45 08             	mov    0x8(%ebp),%eax
80103ff5:	83 ec 0c             	sub    $0xc,%esp
80103ff8:	50                   	push   %eax
80103ff9:	e8 eb 14 00 00       	call   801054e9 <release>
80103ffe:	83 c4 10             	add    $0x10,%esp
80104001:	90                   	nop
80104002:	c9                   	leave  
80104003:	c3                   	ret    

80104004 <pipewrite>:
80104004:	55                   	push   %ebp
80104005:	89 e5                	mov    %esp,%ebp
80104007:	83 ec 18             	sub    $0x18,%esp
8010400a:	8b 45 08             	mov    0x8(%ebp),%eax
8010400d:	83 ec 0c             	sub    $0xc,%esp
80104010:	50                   	push   %eax
80104011:	e8 65 14 00 00       	call   8010547b <acquire>
80104016:	83 c4 10             	add    $0x10,%esp
80104019:	c7 45 f4 00 00 00 00 	movl   $0x0,-0xc(%ebp)
80104020:	e9 ac 00 00 00       	jmp    801040d1 <pipewrite+0xcd>
80104025:	8b 45 08             	mov    0x8(%ebp),%eax
80104028:	8b 80 3c 02 00 00    	mov    0x23c(%eax),%eax
8010402e:	85 c0                	test   %eax,%eax
80104030:	74 0c                	je     8010403e <pipewrite+0x3a>
80104032:	e8 cf 02 00 00       	call   80104306 <myproc>
80104037:	8b 40 24             	mov    0x24(%eax),%eax
8010403a:	85 c0                	test   %eax,%eax
8010403c:	74 19                	je     80104057 <pipewrite+0x53>
8010403e:	8b 45 08             	mov    0x8(%ebp),%eax
80104041:	83 ec 0c             	sub    $0xc,%esp
80104044:	50                   	push   %eax
80104045:	e8 9f 14 00 00       	call   801054e9 <release>
8010404a:	83 c4 10             	add    $0x10,%esp
8010404d:	b8 ff ff ff ff       	mov    $0xffffffff,%eax
80104052:	e9 a8 00 00 00       	jmp    801040ff <pipewrite+0xfb>
80104057:	8b 45 08             	mov    0x8(%ebp),%eax
8010405a:	05 34 02 00 00       	add    $0x234,%eax
8010405f:	83 ec 0c             	sub    $0xc,%esp
80104062:	50                   	push   %eax
80104063:	e8 cc 0d 00 00       	call   80104e34 <wakeup>
80104068:	83 c4 10             	add    $0x10,%esp
8010406b:	8b 45 08             	mov    0x8(%ebp),%eax
8010406e:	8b 55 08             	mov    0x8(%ebp),%edx
80104071:	81 c2 38 02 00 00    	add    $0x238,%edx
80104077:	83 ec 08             	sub    $0x8,%esp
8010407a:	50                   	push   %eax
8010407b:	52                   	push   %edx
8010407c:	e8 76 0c 00 00       	call   80104cf7 <sleep>
80104081:	83 c4 10             	add    $0x10,%esp
80104084:	8b 45 08             	mov    0x8(%ebp),%eax
80104087:	8b 90 38 02 00 00    	mov    0x238(%eax),%edx
8010408d:	8b 45 08             	mov    0x8(%ebp),%eax
80104090:	8b 80 34 02 00 00    	mov    0x234(%eax),%eax
80104096:	05 00 02 00 00       	add    $0x200,%eax
8010409b:	39 c2                	cmp    %eax,%edx
8010409d:	74 86                	je     80104025 <pipewrite+0x21>
8010409f:	8b 45 08             	mov    0x8(%ebp),%eax
801040a2:	8b 80 38 02 00 00    	mov    0x238(%eax),%eax
801040a8:	8d 48 01             	lea    0x1(%eax),%ecx
801040ab:	8b 55 08             	mov    0x8(%ebp),%edx
801040ae:	89 8a 38 02 00 00    	mov    %ecx,0x238(%edx)
801040b4:	25 ff 01 00 00       	and    $0x1ff,%eax
801040b9:	89 c1                	mov    %eax,%ecx
801040bb:	8b 55 f4             	mov    -0xc(%ebp),%edx
801040be:	8b 45 0c             	mov    0xc(%ebp),%eax
801040c1:	01 d0                	add    %edx,%eax
801040c3:	0f b6 10             	movzbl (%eax),%edx
801040c6:	8b 45 08             	mov    0x8(%ebp),%eax
801040c9:	88 54 08 34          	mov    %dl,0x34(%eax,%ecx,1)
801040cd:	83 45 f4 01          	addl   $0x1,-0xc(%ebp)
801040d1:	8b 45 f4             	mov    -0xc(%ebp),%eax
801040d4:	3b 45 10             	cmp    0x10(%ebp),%eax
801040d7:	7c ab                	jl     80104084 <pipewrite+0x80>
801040d9:	8b 45 08             	mov    0x8(%ebp),%eax
801040dc:	05 34 02 00 00       	add    $0x234,%eax
801040e1:	83 ec 0c             	sub    $0xc,%esp
801040e4:	50                   	push   %eax
801040e5:	e8 4a 0d 00 00       	call   80104e34 <wakeup>
801040ea:	83 c4 10             	add    $0x10,%esp
801040ed:	8b 45 08             	mov    0x8(%ebp),%eax
801040f0:	83 ec 0c             	sub    $0xc,%esp
801040f3:	50                   	push   %eax
801040f4:	e8 f0 13 00 00       	call   801054e9 <release>
801040f9:	83 c4 10             	add    $0x10,%esp
801040fc:	8b 45 10             	mov    0x10(%ebp),%eax
801040ff:	c9                   	leave  
80104100:	c3                   	ret    

80104101 <piperead>:
80104101:	55                   	push   %ebp
80104102:	89 e5                	mov    %esp,%ebp
80104104:	53                   	push   %ebx
80104105:	83 ec 14             	sub    $0x14,%esp
80104108:	8b 45 08             	mov    0x8(%ebp),%eax
8010410b:	83 ec 0c             	sub    $0xc,%esp
8010410e:	50                   	push   %eax
8010410f:	e8 67 13 00 00       	call   8010547b <acquire>
80104114:	83 c4 10             	add    $0x10,%esp
80104117:	eb 3e                	jmp    80104157 <piperead+0x56>
80104119:	e8 e8 01 00 00       	call   80104306 <myproc>
8010411e:	8b 40 24             	mov    0x24(%eax),%eax
80104121:	85 c0                	test   %eax,%eax
80104123:	74 19                	je     8010413e <piperead+0x3d>
80104125:	8b 45 08             	mov    0x8(%ebp),%eax
80104128:	83 ec 0c             	sub    $0xc,%esp
8010412b:	50                   	push   %eax
8010412c:	e8 b8 13 00 00       	call   801054e9 <release>
80104131:	83 c4 10             	add    $0x10,%esp
80104134:	b8 ff ff ff ff       	mov    $0xffffffff,%eax
80104139:	e9 bf 00 00 00       	jmp    801041fd <piperead+0xfc>
8010413e:	8b 45 08             	mov    0x8(%ebp),%eax
80104141:	8b 55 08             	mov    0x8(%ebp),%edx
80104144:	81 c2 34 02 00 00    	add    $0x234,%edx
8010414a:	83 ec 08             	sub    $0x8,%esp
8010414d:	50                   	push   %eax
8010414e:	52                   	push   %edx
8010414f:	e8 a3 0b 00 00       	call   80104cf7 <sleep>
80104154:	83 c4 10             	add    $0x10,%esp
80104157:	8b 45 08             	mov    0x8(%ebp),%eax
8010415a:	8b 90 34 02 00 00    	mov    0x234(%eax),%edx
80104160:	8b 45 08             	mov    0x8(%ebp),%eax
80104163:	8b 80 38 02 00 00    	mov    0x238(%eax),%eax
80104169:	39 c2                	cmp    %eax,%edx
8010416b:	75 0d                	jne    8010417a <piperead+0x79>
8010416d:	8b 45 08             	mov    0x8(%ebp),%eax
80104170:	8b 80 40 02 00 00    	mov    0x240(%eax),%eax
80104176:	85 c0                	test   %eax,%eax
80104178:	75 9f                	jne    80104119 <piperead+0x18>
8010417a:	c7 45 f4 00 00 00 00 	movl   $0x0,-0xc(%ebp)
80104181:	eb 49                	jmp    801041cc <piperead+0xcb>
80104183:	8b 45 08             	mov    0x8(%ebp),%eax
80104186:	8b 90 34 02 00 00    	mov    0x234(%eax),%edx
8010418c:	8b 45 08             	mov    0x8(%ebp),%eax
8010418f:	8b 80 38 02 00 00    	mov    0x238(%eax),%eax
80104195:	39 c2                	cmp    %eax,%edx
80104197:	74 3d                	je     801041d6 <piperead+0xd5>
80104199:	8b 55 f4             	mov    -0xc(%ebp),%edx
8010419c:	8b 45 0c             	mov    0xc(%ebp),%eax
8010419f:	8d 1c 02             	lea    (%edx,%eax,1),%ebx
801041a2:	8b 45 08             	mov    0x8(%ebp),%eax
801041a5:	8b 80 34 02 00 00    	mov    0x234(%eax),%eax
801041ab:	8d 48 01             	lea    0x1(%eax),%ecx
801041ae:	8b 55 08             	mov    0x8(%ebp),%edx
801041b1:	89 8a 34 02 00 00    	mov    %ecx,0x234(%edx)
801041b7:	25 ff 01 00 00       	and    $0x1ff,%eax
801041bc:	89 c2                	mov    %eax,%edx
801041be:	8b 45 08             	mov    0x8(%ebp),%eax
801041c1:	0f b6 44 10 34       	movzbl 0x34(%eax,%edx,1),%eax
801041c6:	88 03                	mov    %al,(%ebx)
801041c8:	83 45 f4 01          	addl   $0x1,-0xc(%ebp)
801041cc:	8b 45 f4             	mov    -0xc(%ebp),%eax
801041cf:	3b 45 10             	cmp    0x10(%ebp),%eax
801041d2:	7c af                	jl     80104183 <piperead+0x82>
801041d4:	eb 01                	jmp    801041d7 <piperead+0xd6>
801041d6:	90                   	nop
801041d7:	8b 45 08             	mov    0x8(%ebp),%eax
801041da:	05 38 02 00 00       	add    $0x238,%eax
801041df:	83 ec 0c             	sub    $0xc,%esp
801041e2:	50                   	push   %eax
801041e3:	e8 4c 0c 00 00       	call   80104e34 <wakeup>
801041e8:	83 c4 10             	add    $0x10,%esp
801041eb:	8b 45 08             	mov    0x8(%ebp),%eax
801041ee:	83 ec 0c             	sub    $0xc,%esp
801041f1:	50                   	push   %eax
801041f2:	e8 f2 12 00 00       	call   801054e9 <release>
801041f7:	83 c4 10             	add    $0x10,%esp
801041fa:	8b 45 f4             	mov    -0xc(%ebp),%eax
801041fd:	8b 5d fc             	mov    -0x4(%ebp),%ebx
80104200:	c9                   	leave  
80104201:	c3                   	ret    

80104202 <cas>:
80104202:	55                   	push   %ebp
80104203:	89 e5                	mov    %esp,%ebp
80104205:	53                   	push   %ebx
80104206:	83 ec 10             	sub    $0x10,%esp
80104209:	8b 45 0c             	mov    0xc(%ebp),%eax
8010420c:	8b 55 08             	mov    0x8(%ebp),%edx
8010420f:	8b 5d 10             	mov    0x10(%ebp),%ebx
80104212:	89 d1                	mov    %edx,%ecx
80104214:	f0 0f b1 19          	lock cmpxchg %ebx,(%ecx)
80104218:	9c                   	pushf  
80104219:	58                   	pop    %eax
8010421a:	89 45 f8             	mov    %eax,-0x8(%ebp)
8010421d:	8b 45 f8             	mov    -0x8(%ebp),%eax
80104220:	83 e0 40             	and    $0x40,%eax
80104223:	89 45 f8             	mov    %eax,-0x8(%ebp)
80104226:	8b 45 f8             	mov    -0x8(%ebp),%eax
80104229:	c1 f8 06             	sar    $0x6,%eax
8010422c:	89 45 f8             	mov    %eax,-0x8(%ebp)
8010422f:	8b 45 f8             	mov    -0x8(%ebp),%eax
80104232:	83 c4 10             	add    $0x10,%esp
80104235:	5b                   	pop    %ebx
80104236:	5d                   	pop    %ebp
80104237:	c3                   	ret    

80104238 <readeflags>:
80104238:	55                   	push   %ebp
80104239:	89 e5                	mov    %esp,%ebp
8010423b:	83 ec 10             	sub    $0x10,%esp
8010423e:	9c                   	pushf  
8010423f:	58                   	pop    %eax
80104240:	89 45 fc             	mov    %eax,-0x4(%ebp)
80104243:	8b 45 fc             	mov    -0x4(%ebp),%eax
80104246:	c9                   	leave  
80104247:	c3                   	ret    

80104248 <sti>:
80104248:	55                   	push   %ebp
80104249:	89 e5                	mov    %esp,%ebp
8010424b:	fb                   	sti    
8010424c:	90                   	nop
8010424d:	5d                   	pop    %ebp
8010424e:	c3                   	ret    

8010424f <pinit>:
8010424f:	55                   	push   %ebp
80104250:	89 e5                	mov    %esp,%ebp
80104252:	83 ec 08             	sub    $0x8,%esp
80104255:	83 ec 08             	sub    $0x8,%esp
80104258:	68 94 90 10 80       	push   $0x80109094
8010425d:	68 c0 4d 11 80       	push   $0x80114dc0
80104262:	e8 f2 11 00 00       	call   80105459 <initlock>
80104267:	83 c4 10             	add    $0x10,%esp
8010426a:	90                   	nop
8010426b:	c9                   	leave  
8010426c:	c3                   	ret    

8010426d <cpuid>:
8010426d:	55                   	push   %ebp
8010426e:	89 e5                	mov    %esp,%ebp
80104270:	83 ec 08             	sub    $0x8,%esp
80104273:	e8 16 00 00 00       	call   8010428e <mycpu>
80104278:	89 c2                	mov    %eax,%edx
8010427a:	b8 20 48 11 80       	mov    $0x80114820,%eax
8010427f:	29 c2                	sub    %eax,%edx
80104281:	89 d0                	mov    %edx,%eax
80104283:	c1 f8 04             	sar    $0x4,%eax
80104286:	69 c0 a3 8b 2e ba    	imul   $0xba2e8ba3,%eax,%eax
8010428c:	c9                   	leave  
8010428d:	c3                   	ret    

8010428e <mycpu>:
8010428e:	55                   	push   %ebp
8010428f:	89 e5                	mov    %esp,%ebp
80104291:	83 ec 18             	sub    $0x18,%esp
80104294:	e8 9f ff ff ff       	call   80104238 <readeflags>
80104299:	25 00 02 00 00       	and    $0x200,%eax
8010429e:	85 c0                	test   %eax,%eax
801042a0:	74 0d                	je     801042af <mycpu+0x21>
801042a2:	83 ec 0c             	sub    $0xc,%esp
801042a5:	68 9c 90 10 80       	push   $0x8010909c
801042aa:	e8 f1 c2 ff ff       	call   801005a0 <panic>
801042af:	e8 7f ed ff ff       	call   80103033 <lapicid>
801042b4:	89 45 f0             	mov    %eax,-0x10(%ebp)
801042b7:	c7 45 f4 00 00 00 00 	movl   $0x0,-0xc(%ebp)
801042be:	eb 2d                	jmp    801042ed <mycpu+0x5f>
801042c0:	8b 45 f4             	mov    -0xc(%ebp),%eax
801042c3:	69 c0 b0 00 00 00    	imul   $0xb0,%eax,%eax
801042c9:	05 20 48 11 80       	add    $0x80114820,%eax
801042ce:	0f b6 00             	movzbl (%eax),%eax
801042d1:	0f b6 c0             	movzbl %al,%eax
801042d4:	3b 45 f0             	cmp    -0x10(%ebp),%eax
801042d7:	75 10                	jne    801042e9 <mycpu+0x5b>
801042d9:	8b 45 f4             	mov    -0xc(%ebp),%eax
801042dc:	69 c0 b0 00 00 00    	imul   $0xb0,%eax,%eax
801042e2:	05 20 48 11 80       	add    $0x80114820,%eax
801042e7:	eb 1b                	jmp    80104304 <mycpu+0x76>
801042e9:	83 45 f4 01          	addl   $0x1,-0xc(%ebp)
801042ed:	a1 a0 4d 11 80       	mov    0x80114da0,%eax
801042f2:	39 45 f4             	cmp    %eax,-0xc(%ebp)
801042f5:	7c c9                	jl     801042c0 <mycpu+0x32>
801042f7:	83 ec 0c             	sub    $0xc,%esp
801042fa:	68 c2 90 10 80       	push   $0x801090c2
801042ff:	e8 9c c2 ff ff       	call   801005a0 <panic>
80104304:	c9                   	leave  
80104305:	c3                   	ret    

80104306 <myproc>:
80104306:	55                   	push   %ebp
80104307:	89 e5                	mov    %esp,%ebp
80104309:	83 ec 18             	sub    $0x18,%esp
8010430c:	e8 d5 12 00 00       	call   801055e6 <pushcli>
80104311:	e8 78 ff ff ff       	call   8010428e <mycpu>
80104316:	89 45 f4             	mov    %eax,-0xc(%ebp)
80104319:	8b 45 f4             	mov    -0xc(%ebp),%eax
8010431c:	8b 80 ac 00 00 00    	mov    0xac(%eax),%eax
80104322:	89 45 f0             	mov    %eax,-0x10(%ebp)
80104325:	e8 0a 13 00 00       	call   80105634 <popcli>
8010432a:	8b 45 f0             	mov    -0x10(%ebp),%eax
8010432d:	c9                   	leave  
8010432e:	c3                   	ret    

8010432f <allocpid>:
8010432f:	55                   	push   %ebp
80104330:	89 e5                	mov    %esp,%ebp
80104332:	83 ec 18             	sub    $0x18,%esp
80104335:	e8 ac 12 00 00       	call   801055e6 <pushcli>
8010433a:	a1 44 c6 10 80       	mov    0x8010c644,%eax
8010433f:	89 45 f4             	mov    %eax,-0xc(%ebp)
80104342:	8b 45 f4             	mov    -0xc(%ebp),%eax
80104345:	83 c0 01             	add    $0x1,%eax
80104348:	83 ec 04             	sub    $0x4,%esp
8010434b:	50                   	push   %eax
8010434c:	ff 75 f4             	pushl  -0xc(%ebp)
8010434f:	68 44 c6 10 80       	push   $0x8010c644
80104354:	e8 a9 fe ff ff       	call   80104202 <cas>
80104359:	83 c4 10             	add    $0x10,%esp
8010435c:	85 c0                	test   %eax,%eax
8010435e:	74 da                	je     8010433a <allocpid+0xb>
80104360:	e8 cf 12 00 00       	call   80105634 <popcli>
80104365:	8b 45 f4             	mov    -0xc(%ebp),%eax
80104368:	83 c0 01             	add    $0x1,%eax
8010436b:	c9                   	leave  
8010436c:	c3                   	ret    

8010436d <allocproc>:
8010436d:	55                   	push   %ebp
8010436e:	89 e5                	mov    %esp,%ebp
80104370:	83 ec 18             	sub    $0x18,%esp
80104373:	e8 6e 12 00 00       	call   801055e6 <pushcli>
80104378:	c7 45 f4 f4 4d 11 80 	movl   $0x80114df4,-0xc(%ebp)
8010437f:	eb 21                	jmp    801043a2 <allocproc+0x35>
80104381:	8b 45 f4             	mov    -0xc(%ebp),%eax
80104384:	83 c0 0c             	add    $0xc,%eax
80104387:	83 ec 04             	sub    $0x4,%esp
8010438a:	6a 01                	push   $0x1
8010438c:	6a 00                	push   $0x0
8010438e:	50                   	push   %eax
8010438f:	e8 6e fe ff ff       	call   80104202 <cas>
80104394:	83 c4 10             	add    $0x10,%esp
80104397:	85 c0                	test   %eax,%eax
80104399:	75 1f                	jne    801043ba <allocproc+0x4d>
8010439b:	81 45 f4 14 01 00 00 	addl   $0x114,-0xc(%ebp)
801043a2:	81 7d f4 f4 92 11 80 	cmpl   $0x801192f4,-0xc(%ebp)
801043a9:	72 d6                	jb     80104381 <allocproc+0x14>
801043ab:	e8 84 12 00 00       	call   80105634 <popcli>
801043b0:	b8 00 00 00 00       	mov    $0x0,%eax
801043b5:	e9 f5 00 00 00       	jmp    801044af <allocproc+0x142>
801043ba:	90                   	nop
801043bb:	e8 74 12 00 00       	call   80105634 <popcli>
801043c0:	8b 45 f4             	mov    -0xc(%ebp),%eax
801043c3:	c6 80 84 00 00 00 00 	movb   $0x0,0x84(%eax)
801043ca:	e8 60 ff ff ff       	call   8010432f <allocpid>
801043cf:	89 c2                	mov    %eax,%edx
801043d1:	8b 45 f4             	mov    -0xc(%ebp),%eax
801043d4:	89 50 10             	mov    %edx,0x10(%eax)
801043d7:	e8 01 e9 ff ff       	call   80102cdd <kalloc>
801043dc:	89 c2                	mov    %eax,%edx
801043de:	8b 45 f4             	mov    -0xc(%ebp),%eax
801043e1:	89 50 08             	mov    %edx,0x8(%eax)
801043e4:	8b 45 f4             	mov    -0xc(%ebp),%eax
801043e7:	8b 40 08             	mov    0x8(%eax),%eax
801043ea:	85 c0                	test   %eax,%eax
801043ec:	75 14                	jne    80104402 <allocproc+0x95>
801043ee:	8b 45 f4             	mov    -0xc(%ebp),%eax
801043f1:	c7 40 0c 00 00 00 00 	movl   $0x0,0xc(%eax)
801043f8:	b8 00 00 00 00       	mov    $0x0,%eax
801043fd:	e9 ad 00 00 00       	jmp    801044af <allocproc+0x142>
80104402:	8b 45 f4             	mov    -0xc(%ebp),%eax
80104405:	8b 40 08             	mov    0x8(%eax),%eax
80104408:	05 00 10 00 00       	add    $0x1000,%eax
8010440d:	89 45 ec             	mov    %eax,-0x14(%ebp)
80104410:	83 6d ec 4c          	subl   $0x4c,-0x14(%ebp)
80104414:	8b 45 f4             	mov    -0xc(%ebp),%eax
80104417:	8b 55 ec             	mov    -0x14(%ebp),%edx
8010441a:	89 50 18             	mov    %edx,0x18(%eax)
8010441d:	8b 45 f4             	mov    -0xc(%ebp),%eax
80104420:	ba f4 4d 11 80       	mov    $0x80114df4,%edx
80104425:	29 d0                	sub    %edx,%eax
80104427:	c1 f8 02             	sar    $0x2,%eax
8010442a:	69 c0 8d 12 3f a3    	imul   $0xa33f128d,%eax,%eax
80104430:	6b c0 4c             	imul   $0x4c,%eax,%eax
80104433:	05 30 45 00 00       	add    $0x4530,%eax
80104438:	05 c0 4d 11 80       	add    $0x80114dc0,%eax
8010443d:	8d 50 04             	lea    0x4(%eax),%edx
80104440:	8b 45 f4             	mov    -0xc(%ebp),%eax
80104443:	89 90 0c 01 00 00    	mov    %edx,0x10c(%eax)
80104449:	83 6d ec 04          	subl   $0x4,-0x14(%ebp)
8010444d:	ba 22 6c 10 80       	mov    $0x80106c22,%edx
80104452:	8b 45 ec             	mov    -0x14(%ebp),%eax
80104455:	89 10                	mov    %edx,(%eax)
80104457:	83 6d ec 14          	subl   $0x14,-0x14(%ebp)
8010445b:	8b 45 f4             	mov    -0xc(%ebp),%eax
8010445e:	8b 55 ec             	mov    -0x14(%ebp),%edx
80104461:	89 50 1c             	mov    %edx,0x1c(%eax)
80104464:	8b 45 f4             	mov    -0xc(%ebp),%eax
80104467:	8b 40 1c             	mov    0x1c(%eax),%eax
8010446a:	83 ec 04             	sub    $0x4,%esp
8010446d:	6a 14                	push   $0x14
8010446f:	6a 00                	push   $0x0
80104471:	50                   	push   %eax
80104472:	e8 7b 12 00 00       	call   801056f2 <memset>
80104477:	83 c4 10             	add    $0x10,%esp
8010447a:	8b 45 f4             	mov    -0xc(%ebp),%eax
8010447d:	8b 40 1c             	mov    0x1c(%eax),%eax
80104480:	ba bc 4c 10 80       	mov    $0x80104cbc,%edx
80104485:	89 50 10             	mov    %edx,0x10(%eax)
80104488:	c7 45 f0 00 00 00 00 	movl   $0x0,-0x10(%ebp)
8010448f:	eb 15                	jmp    801044a6 <allocproc+0x139>
80104491:	8b 45 f4             	mov    -0xc(%ebp),%eax
80104494:	8b 55 f0             	mov    -0x10(%ebp),%edx
80104497:	83 c2 20             	add    $0x20,%edx
8010449a:	c7 44 90 0c ff ff ff 	movl   $0xffffffff,0xc(%eax,%edx,4)
801044a1:	ff 
801044a2:	83 45 f0 01          	addl   $0x1,-0x10(%ebp)
801044a6:	83 7d f0 1f          	cmpl   $0x1f,-0x10(%ebp)
801044aa:	7e e5                	jle    80104491 <allocproc+0x124>
801044ac:	8b 45 f4             	mov    -0xc(%ebp),%eax
801044af:	c9                   	leave  
801044b0:	c3                   	ret    

801044b1 <userinit>:
801044b1:	55                   	push   %ebp
801044b2:	89 e5                	mov    %esp,%ebp
801044b4:	83 ec 18             	sub    $0x18,%esp
801044b7:	e8 b1 fe ff ff       	call   8010436d <allocproc>
801044bc:	89 45 f4             	mov    %eax,-0xc(%ebp)
801044bf:	8b 45 f4             	mov    -0xc(%ebp),%eax
801044c2:	a3 40 c6 10 80       	mov    %eax,0x8010c640
801044c7:	e8 c6 3c 00 00       	call   80108192 <setupkvm>
801044cc:	89 c2                	mov    %eax,%edx
801044ce:	8b 45 f4             	mov    -0xc(%ebp),%eax
801044d1:	89 50 04             	mov    %edx,0x4(%eax)
801044d4:	8b 45 f4             	mov    -0xc(%ebp),%eax
801044d7:	8b 40 04             	mov    0x4(%eax),%eax
801044da:	85 c0                	test   %eax,%eax
801044dc:	75 0d                	jne    801044eb <userinit+0x3a>
801044de:	83 ec 0c             	sub    $0xc,%esp
801044e1:	68 d2 90 10 80       	push   $0x801090d2
801044e6:	e8 b5 c0 ff ff       	call   801005a0 <panic>
801044eb:	ba 2c 00 00 00       	mov    $0x2c,%edx
801044f0:	8b 45 f4             	mov    -0xc(%ebp),%eax
801044f3:	8b 40 04             	mov    0x4(%eax),%eax
801044f6:	83 ec 04             	sub    $0x4,%esp
801044f9:	52                   	push   %edx
801044fa:	68 e0 c4 10 80       	push   $0x8010c4e0
801044ff:	50                   	push   %eax
80104500:	e8 f5 3e 00 00       	call   801083fa <inituvm>
80104505:	83 c4 10             	add    $0x10,%esp
80104508:	8b 45 f4             	mov    -0xc(%ebp),%eax
8010450b:	c7 00 00 10 00 00    	movl   $0x1000,(%eax)
80104511:	8b 45 f4             	mov    -0xc(%ebp),%eax
80104514:	8b 40 18             	mov    0x18(%eax),%eax
80104517:	83 ec 04             	sub    $0x4,%esp
8010451a:	6a 4c                	push   $0x4c
8010451c:	6a 00                	push   $0x0
8010451e:	50                   	push   %eax
8010451f:	e8 ce 11 00 00       	call   801056f2 <memset>
80104524:	83 c4 10             	add    $0x10,%esp
80104527:	8b 45 f4             	mov    -0xc(%ebp),%eax
8010452a:	8b 40 18             	mov    0x18(%eax),%eax
8010452d:	66 c7 40 3c 1b 00    	movw   $0x1b,0x3c(%eax)
80104533:	8b 45 f4             	mov    -0xc(%ebp),%eax
80104536:	8b 40 18             	mov    0x18(%eax),%eax
80104539:	66 c7 40 2c 23 00    	movw   $0x23,0x2c(%eax)
8010453f:	8b 45 f4             	mov    -0xc(%ebp),%eax
80104542:	8b 40 18             	mov    0x18(%eax),%eax
80104545:	8b 55 f4             	mov    -0xc(%ebp),%edx
80104548:	8b 52 18             	mov    0x18(%edx),%edx
8010454b:	0f b7 52 2c          	movzwl 0x2c(%edx),%edx
8010454f:	66 89 50 28          	mov    %dx,0x28(%eax)
80104553:	8b 45 f4             	mov    -0xc(%ebp),%eax
80104556:	8b 40 18             	mov    0x18(%eax),%eax
80104559:	8b 55 f4             	mov    -0xc(%ebp),%edx
8010455c:	8b 52 18             	mov    0x18(%edx),%edx
8010455f:	0f b7 52 2c          	movzwl 0x2c(%edx),%edx
80104563:	66 89 50 48          	mov    %dx,0x48(%eax)
80104567:	8b 45 f4             	mov    -0xc(%ebp),%eax
8010456a:	8b 40 18             	mov    0x18(%eax),%eax
8010456d:	c7 40 40 00 02 00 00 	movl   $0x200,0x40(%eax)
80104574:	8b 45 f4             	mov    -0xc(%ebp),%eax
80104577:	8b 40 18             	mov    0x18(%eax),%eax
8010457a:	c7 40 44 00 10 00 00 	movl   $0x1000,0x44(%eax)
80104581:	8b 45 f4             	mov    -0xc(%ebp),%eax
80104584:	8b 40 18             	mov    0x18(%eax),%eax
80104587:	c7 40 38 00 00 00 00 	movl   $0x0,0x38(%eax)
8010458e:	8b 45 f4             	mov    -0xc(%ebp),%eax
80104591:	83 c0 6c             	add    $0x6c,%eax
80104594:	83 ec 04             	sub    $0x4,%esp
80104597:	6a 10                	push   $0x10
80104599:	68 eb 90 10 80       	push   $0x801090eb
8010459e:	50                   	push   %eax
8010459f:	e8 51 13 00 00       	call   801058f5 <safestrcpy>
801045a4:	83 c4 10             	add    $0x10,%esp
801045a7:	83 ec 0c             	sub    $0xc,%esp
801045aa:	68 f4 90 10 80       	push   $0x801090f4
801045af:	e8 e4 df ff ff       	call   80102598 <namei>
801045b4:	83 c4 10             	add    $0x10,%esp
801045b7:	89 c2                	mov    %eax,%edx
801045b9:	8b 45 f4             	mov    -0xc(%ebp),%eax
801045bc:	89 50 68             	mov    %edx,0x68(%eax)
801045bf:	e8 22 10 00 00       	call   801055e6 <pushcli>
801045c4:	8b 45 f4             	mov    -0xc(%ebp),%eax
801045c7:	83 c0 0c             	add    $0xc,%eax
801045ca:	83 ec 04             	sub    $0x4,%esp
801045cd:	6a 03                	push   $0x3
801045cf:	6a 01                	push   $0x1
801045d1:	50                   	push   %eax
801045d2:	e8 2b fc ff ff       	call   80104202 <cas>
801045d7:	83 c4 10             	add    $0x10,%esp
801045da:	85 c0                	test   %eax,%eax
801045dc:	75 0d                	jne    801045eb <userinit+0x13a>
801045de:	83 ec 0c             	sub    $0xc,%esp
801045e1:	68 f6 90 10 80       	push   $0x801090f6
801045e6:	e8 b5 bf ff ff       	call   801005a0 <panic>
801045eb:	e8 44 10 00 00       	call   80105634 <popcli>
801045f0:	90                   	nop
801045f1:	c9                   	leave  
801045f2:	c3                   	ret    

801045f3 <growproc>:
801045f3:	55                   	push   %ebp
801045f4:	89 e5                	mov    %esp,%ebp
801045f6:	83 ec 18             	sub    $0x18,%esp
801045f9:	e8 08 fd ff ff       	call   80104306 <myproc>
801045fe:	89 45 f0             	mov    %eax,-0x10(%ebp)
80104601:	8b 45 f0             	mov    -0x10(%ebp),%eax
80104604:	8b 00                	mov    (%eax),%eax
80104606:	89 45 f4             	mov    %eax,-0xc(%ebp)
80104609:	83 7d 08 00          	cmpl   $0x0,0x8(%ebp)
8010460d:	7e 2e                	jle    8010463d <growproc+0x4a>
8010460f:	8b 55 08             	mov    0x8(%ebp),%edx
80104612:	8b 45 f4             	mov    -0xc(%ebp),%eax
80104615:	01 c2                	add    %eax,%edx
80104617:	8b 45 f0             	mov    -0x10(%ebp),%eax
8010461a:	8b 40 04             	mov    0x4(%eax),%eax
8010461d:	83 ec 04             	sub    $0x4,%esp
80104620:	52                   	push   %edx
80104621:	ff 75 f4             	pushl  -0xc(%ebp)
80104624:	50                   	push   %eax
80104625:	e8 0d 3f 00 00       	call   80108537 <allocuvm>
8010462a:	83 c4 10             	add    $0x10,%esp
8010462d:	89 45 f4             	mov    %eax,-0xc(%ebp)
80104630:	83 7d f4 00          	cmpl   $0x0,-0xc(%ebp)
80104634:	75 3b                	jne    80104671 <growproc+0x7e>
80104636:	b8 ff ff ff ff       	mov    $0xffffffff,%eax
8010463b:	eb 4f                	jmp    8010468c <growproc+0x99>
8010463d:	83 7d 08 00          	cmpl   $0x0,0x8(%ebp)
80104641:	79 2e                	jns    80104671 <growproc+0x7e>
80104643:	8b 55 08             	mov    0x8(%ebp),%edx
80104646:	8b 45 f4             	mov    -0xc(%ebp),%eax
80104649:	01 c2                	add    %eax,%edx
8010464b:	8b 45 f0             	mov    -0x10(%ebp),%eax
8010464e:	8b 40 04             	mov    0x4(%eax),%eax
80104651:	83 ec 04             	sub    $0x4,%esp
80104654:	52                   	push   %edx
80104655:	ff 75 f4             	pushl  -0xc(%ebp)
80104658:	50                   	push   %eax
80104659:	e8 de 3f 00 00       	call   8010863c <deallocuvm>
8010465e:	83 c4 10             	add    $0x10,%esp
80104661:	89 45 f4             	mov    %eax,-0xc(%ebp)
80104664:	83 7d f4 00          	cmpl   $0x0,-0xc(%ebp)
80104668:	75 07                	jne    80104671 <growproc+0x7e>
8010466a:	b8 ff ff ff ff       	mov    $0xffffffff,%eax
8010466f:	eb 1b                	jmp    8010468c <growproc+0x99>
80104671:	8b 45 f0             	mov    -0x10(%ebp),%eax
80104674:	8b 55 f4             	mov    -0xc(%ebp),%edx
80104677:	89 10                	mov    %edx,(%eax)
80104679:	83 ec 0c             	sub    $0xc,%esp
8010467c:	ff 75 f0             	pushl  -0x10(%ebp)
8010467f:	e8 d8 3b 00 00       	call   8010825c <switchuvm>
80104684:	83 c4 10             	add    $0x10,%esp
80104687:	b8 00 00 00 00       	mov    $0x0,%eax
8010468c:	c9                   	leave  
8010468d:	c3                   	ret    

8010468e <fork>:
8010468e:	55                   	push   %ebp
8010468f:	89 e5                	mov    %esp,%ebp
80104691:	57                   	push   %edi
80104692:	56                   	push   %esi
80104693:	53                   	push   %ebx
80104694:	83 ec 1c             	sub    $0x1c,%esp
80104697:	e8 6a fc ff ff       	call   80104306 <myproc>
8010469c:	89 45 e0             	mov    %eax,-0x20(%ebp)
8010469f:	e8 c9 fc ff ff       	call   8010436d <allocproc>
801046a4:	89 45 dc             	mov    %eax,-0x24(%ebp)
801046a7:	83 7d dc 00          	cmpl   $0x0,-0x24(%ebp)
801046ab:	75 0a                	jne    801046b7 <fork+0x29>
801046ad:	b8 ff ff ff ff       	mov    $0xffffffff,%eax
801046b2:	e9 ae 01 00 00       	jmp    80104865 <fork+0x1d7>
801046b7:	8b 45 e0             	mov    -0x20(%ebp),%eax
801046ba:	8b 10                	mov    (%eax),%edx
801046bc:	8b 45 e0             	mov    -0x20(%ebp),%eax
801046bf:	8b 40 04             	mov    0x4(%eax),%eax
801046c2:	83 ec 08             	sub    $0x8,%esp
801046c5:	52                   	push   %edx
801046c6:	50                   	push   %eax
801046c7:	e8 0e 41 00 00       	call   801087da <copyuvm>
801046cc:	83 c4 10             	add    $0x10,%esp
801046cf:	89 c2                	mov    %eax,%edx
801046d1:	8b 45 dc             	mov    -0x24(%ebp),%eax
801046d4:	89 50 04             	mov    %edx,0x4(%eax)
801046d7:	8b 45 dc             	mov    -0x24(%ebp),%eax
801046da:	8b 40 04             	mov    0x4(%eax),%eax
801046dd:	85 c0                	test   %eax,%eax
801046df:	75 30                	jne    80104711 <fork+0x83>
801046e1:	8b 45 dc             	mov    -0x24(%ebp),%eax
801046e4:	8b 40 08             	mov    0x8(%eax),%eax
801046e7:	83 ec 0c             	sub    $0xc,%esp
801046ea:	50                   	push   %eax
801046eb:	e8 53 e5 ff ff       	call   80102c43 <kfree>
801046f0:	83 c4 10             	add    $0x10,%esp
801046f3:	8b 45 dc             	mov    -0x24(%ebp),%eax
801046f6:	c7 40 08 00 00 00 00 	movl   $0x0,0x8(%eax)
801046fd:	8b 45 dc             	mov    -0x24(%ebp),%eax
80104700:	c7 40 0c 00 00 00 00 	movl   $0x0,0xc(%eax)
80104707:	b8 ff ff ff ff       	mov    $0xffffffff,%eax
8010470c:	e9 54 01 00 00       	jmp    80104865 <fork+0x1d7>
80104711:	8b 45 e0             	mov    -0x20(%ebp),%eax
80104714:	8b 10                	mov    (%eax),%edx
80104716:	8b 45 dc             	mov    -0x24(%ebp),%eax
80104719:	89 10                	mov    %edx,(%eax)
8010471b:	8b 45 dc             	mov    -0x24(%ebp),%eax
8010471e:	8b 55 e0             	mov    -0x20(%ebp),%edx
80104721:	89 50 14             	mov    %edx,0x14(%eax)
80104724:	8b 45 dc             	mov    -0x24(%ebp),%eax
80104727:	8b 50 18             	mov    0x18(%eax),%edx
8010472a:	8b 45 e0             	mov    -0x20(%ebp),%eax
8010472d:	8b 40 18             	mov    0x18(%eax),%eax
80104730:	89 c3                	mov    %eax,%ebx
80104732:	b8 13 00 00 00       	mov    $0x13,%eax
80104737:	89 d7                	mov    %edx,%edi
80104739:	89 de                	mov    %ebx,%esi
8010473b:	89 c1                	mov    %eax,%ecx
8010473d:	f3 a5                	rep movsl %ds:(%esi),%es:(%edi)
8010473f:	8b 45 e0             	mov    -0x20(%ebp),%eax
80104742:	8b 90 80 00 00 00    	mov    0x80(%eax),%edx
80104748:	8b 45 dc             	mov    -0x24(%ebp),%eax
8010474b:	89 90 80 00 00 00    	mov    %edx,0x80(%eax)
80104751:	8b 45 e0             	mov    -0x20(%ebp),%eax
80104754:	8b 90 88 00 00 00    	mov    0x88(%eax),%edx
8010475a:	8b 45 dc             	mov    -0x24(%ebp),%eax
8010475d:	89 90 88 00 00 00    	mov    %edx,0x88(%eax)
80104763:	c7 45 e4 00 00 00 00 	movl   $0x0,-0x1c(%ebp)
8010476a:	eb 1e                	jmp    8010478a <fork+0xfc>
8010476c:	8b 45 e0             	mov    -0x20(%ebp),%eax
8010476f:	8b 55 e4             	mov    -0x1c(%ebp),%edx
80104772:	83 c2 20             	add    $0x20,%edx
80104775:	8b 54 90 0c          	mov    0xc(%eax,%edx,4),%edx
80104779:	8b 45 dc             	mov    -0x24(%ebp),%eax
8010477c:	8b 4d e4             	mov    -0x1c(%ebp),%ecx
8010477f:	83 c1 20             	add    $0x20,%ecx
80104782:	89 54 88 0c          	mov    %edx,0xc(%eax,%ecx,4)
80104786:	83 45 e4 01          	addl   $0x1,-0x1c(%ebp)
8010478a:	83 7d e4 1f          	cmpl   $0x1f,-0x1c(%ebp)
8010478e:	7e dc                	jle    8010476c <fork+0xde>
80104790:	8b 45 dc             	mov    -0x24(%ebp),%eax
80104793:	c7 40 7c 00 00 00 00 	movl   $0x0,0x7c(%eax)
8010479a:	8b 45 dc             	mov    -0x24(%ebp),%eax
8010479d:	8b 40 18             	mov    0x18(%eax),%eax
801047a0:	c7 40 1c 00 00 00 00 	movl   $0x0,0x1c(%eax)
801047a7:	c7 45 e4 00 00 00 00 	movl   $0x0,-0x1c(%ebp)
801047ae:	eb 3d                	jmp    801047ed <fork+0x15f>
801047b0:	8b 45 e0             	mov    -0x20(%ebp),%eax
801047b3:	8b 55 e4             	mov    -0x1c(%ebp),%edx
801047b6:	83 c2 08             	add    $0x8,%edx
801047b9:	8b 44 90 08          	mov    0x8(%eax,%edx,4),%eax
801047bd:	85 c0                	test   %eax,%eax
801047bf:	74 28                	je     801047e9 <fork+0x15b>
801047c1:	8b 45 e0             	mov    -0x20(%ebp),%eax
801047c4:	8b 55 e4             	mov    -0x1c(%ebp),%edx
801047c7:	83 c2 08             	add    $0x8,%edx
801047ca:	8b 44 90 08          	mov    0x8(%eax,%edx,4),%eax
801047ce:	83 ec 0c             	sub    $0xc,%esp
801047d1:	50                   	push   %eax
801047d2:	e8 d1 c8 ff ff       	call   801010a8 <filedup>
801047d7:	83 c4 10             	add    $0x10,%esp
801047da:	89 c1                	mov    %eax,%ecx
801047dc:	8b 45 dc             	mov    -0x24(%ebp),%eax
801047df:	8b 55 e4             	mov    -0x1c(%ebp),%edx
801047e2:	83 c2 08             	add    $0x8,%edx
801047e5:	89 4c 90 08          	mov    %ecx,0x8(%eax,%edx,4)
801047e9:	83 45 e4 01          	addl   $0x1,-0x1c(%ebp)
801047ed:	83 7d e4 0f          	cmpl   $0xf,-0x1c(%ebp)
801047f1:	7e bd                	jle    801047b0 <fork+0x122>
801047f3:	8b 45 e0             	mov    -0x20(%ebp),%eax
801047f6:	8b 40 68             	mov    0x68(%eax),%eax
801047f9:	83 ec 0c             	sub    $0xc,%esp
801047fc:	50                   	push   %eax
801047fd:	e8 1c d2 ff ff       	call   80101a1e <idup>
80104802:	83 c4 10             	add    $0x10,%esp
80104805:	89 c2                	mov    %eax,%edx
80104807:	8b 45 dc             	mov    -0x24(%ebp),%eax
8010480a:	89 50 68             	mov    %edx,0x68(%eax)
8010480d:	8b 45 e0             	mov    -0x20(%ebp),%eax
80104810:	8d 50 6c             	lea    0x6c(%eax),%edx
80104813:	8b 45 dc             	mov    -0x24(%ebp),%eax
80104816:	83 c0 6c             	add    $0x6c,%eax
80104819:	83 ec 04             	sub    $0x4,%esp
8010481c:	6a 10                	push   $0x10
8010481e:	52                   	push   %edx
8010481f:	50                   	push   %eax
80104820:	e8 d0 10 00 00       	call   801058f5 <safestrcpy>
80104825:	83 c4 10             	add    $0x10,%esp
80104828:	8b 45 dc             	mov    -0x24(%ebp),%eax
8010482b:	8b 40 10             	mov    0x10(%eax),%eax
8010482e:	89 45 d8             	mov    %eax,-0x28(%ebp)
80104831:	e8 b0 0d 00 00       	call   801055e6 <pushcli>
80104836:	8b 45 dc             	mov    -0x24(%ebp),%eax
80104839:	83 c0 0c             	add    $0xc,%eax
8010483c:	83 ec 04             	sub    $0x4,%esp
8010483f:	6a 03                	push   $0x3
80104841:	6a 01                	push   $0x1
80104843:	50                   	push   %eax
80104844:	e8 b9 f9 ff ff       	call   80104202 <cas>
80104849:	83 c4 10             	add    $0x10,%esp
8010484c:	85 c0                	test   %eax,%eax
8010484e:	75 0d                	jne    8010485d <fork+0x1cf>
80104850:	83 ec 0c             	sub    $0xc,%esp
80104853:	68 f6 90 10 80       	push   $0x801090f6
80104858:	e8 43 bd ff ff       	call   801005a0 <panic>
8010485d:	e8 d2 0d 00 00       	call   80105634 <popcli>
80104862:	8b 45 d8             	mov    -0x28(%ebp),%eax
80104865:	8d 65 f4             	lea    -0xc(%ebp),%esp
80104868:	5b                   	pop    %ebx
80104869:	5e                   	pop    %esi
8010486a:	5f                   	pop    %edi
8010486b:	5d                   	pop    %ebp
8010486c:	c3                   	ret    

8010486d <exit>:
8010486d:	55                   	push   %ebp
8010486e:	89 e5                	mov    %esp,%ebp
80104870:	83 ec 18             	sub    $0x18,%esp
80104873:	e8 8e fa ff ff       	call   80104306 <myproc>
80104878:	89 45 f0             	mov    %eax,-0x10(%ebp)
8010487b:	a1 40 c6 10 80       	mov    0x8010c640,%eax
80104880:	39 45 f0             	cmp    %eax,-0x10(%ebp)
80104883:	75 0d                	jne    80104892 <exit+0x25>
80104885:	83 ec 0c             	sub    $0xc,%esp
80104888:	68 ff 90 10 80       	push   $0x801090ff
8010488d:	e8 0e bd ff ff       	call   801005a0 <panic>
80104892:	c7 45 f4 00 00 00 00 	movl   $0x0,-0xc(%ebp)
80104899:	eb 3f                	jmp    801048da <exit+0x6d>
8010489b:	8b 45 f0             	mov    -0x10(%ebp),%eax
8010489e:	8b 55 f4             	mov    -0xc(%ebp),%edx
801048a1:	83 c2 08             	add    $0x8,%edx
801048a4:	8b 44 90 08          	mov    0x8(%eax,%edx,4),%eax
801048a8:	85 c0                	test   %eax,%eax
801048aa:	74 2a                	je     801048d6 <exit+0x69>
801048ac:	8b 45 f0             	mov    -0x10(%ebp),%eax
801048af:	8b 55 f4             	mov    -0xc(%ebp),%edx
801048b2:	83 c2 08             	add    $0x8,%edx
801048b5:	8b 44 90 08          	mov    0x8(%eax,%edx,4),%eax
801048b9:	83 ec 0c             	sub    $0xc,%esp
801048bc:	50                   	push   %eax
801048bd:	e8 37 c8 ff ff       	call   801010f9 <fileclose>
801048c2:	83 c4 10             	add    $0x10,%esp
801048c5:	8b 45 f0             	mov    -0x10(%ebp),%eax
801048c8:	8b 55 f4             	mov    -0xc(%ebp),%edx
801048cb:	83 c2 08             	add    $0x8,%edx
801048ce:	c7 44 90 08 00 00 00 	movl   $0x0,0x8(%eax,%edx,4)
801048d5:	00 
801048d6:	83 45 f4 01          	addl   $0x1,-0xc(%ebp)
801048da:	83 7d f4 0f          	cmpl   $0xf,-0xc(%ebp)
801048de:	7e bb                	jle    8010489b <exit+0x2e>
801048e0:	e8 98 ec ff ff       	call   8010357d <begin_op>
801048e5:	8b 45 f0             	mov    -0x10(%ebp),%eax
801048e8:	8b 40 68             	mov    0x68(%eax),%eax
801048eb:	83 ec 0c             	sub    $0xc,%esp
801048ee:	50                   	push   %eax
801048ef:	e8 c5 d2 ff ff       	call   80101bb9 <iput>
801048f4:	83 c4 10             	add    $0x10,%esp
801048f7:	e8 0d ed ff ff       	call   80103609 <end_op>
801048fc:	8b 45 f0             	mov    -0x10(%ebp),%eax
801048ff:	c7 40 68 00 00 00 00 	movl   $0x0,0x68(%eax)
80104906:	e8 db 0c 00 00       	call   801055e6 <pushcli>
8010490b:	8b 45 f0             	mov    -0x10(%ebp),%eax
8010490e:	83 c0 0c             	add    $0xc,%eax
80104911:	83 ec 04             	sub    $0x4,%esp
80104914:	6a fb                	push   $0xfffffffb
80104916:	6a 04                	push   $0x4
80104918:	50                   	push   %eax
80104919:	e8 e4 f8 ff ff       	call   80104202 <cas>
8010491e:	83 c4 10             	add    $0x10,%esp
80104921:	e8 b0 02 00 00       	call   80104bd6 <sched>
80104926:	83 ec 0c             	sub    $0xc,%esp
80104929:	68 0c 91 10 80       	push   $0x8010910c
8010492e:	e8 6d bc ff ff       	call   801005a0 <panic>

80104933 <wakeupParent>:
80104933:	55                   	push   %ebp
80104934:	89 e5                	mov    %esp,%ebp
80104936:	83 ec 08             	sub    $0x8,%esp
80104939:	8b 45 08             	mov    0x8(%ebp),%eax
8010493c:	8b 40 14             	mov    0x14(%eax),%eax
8010493f:	83 ec 0c             	sub    $0xc,%esp
80104942:	50                   	push   %eax
80104943:	e8 7c 04 00 00       	call   80104dc4 <wakeup1>
80104948:	83 c4 10             	add    $0x10,%esp
8010494b:	c7 45 08 f4 4d 11 80 	movl   $0x80114df4,0x8(%ebp)
80104952:	eb 45                	jmp    80104999 <wakeupParent+0x66>
80104954:	8b 45 08             	mov    0x8(%ebp),%eax
80104957:	8b 40 14             	mov    0x14(%eax),%eax
8010495a:	3b 45 08             	cmp    0x8(%ebp),%eax
8010495d:	75 33                	jne    80104992 <wakeupParent+0x5f>
8010495f:	8b 15 40 c6 10 80    	mov    0x8010c640,%edx
80104965:	8b 45 08             	mov    0x8(%ebp),%eax
80104968:	89 50 14             	mov    %edx,0x14(%eax)
8010496b:	8b 45 08             	mov    0x8(%ebp),%eax
8010496e:	8b 40 0c             	mov    0xc(%eax),%eax
80104971:	83 f8 05             	cmp    $0x5,%eax
80104974:	74 0b                	je     80104981 <wakeupParent+0x4e>
80104976:	8b 45 08             	mov    0x8(%ebp),%eax
80104979:	8b 40 0c             	mov    0xc(%eax),%eax
8010497c:	83 f8 fb             	cmp    $0xfffffffb,%eax
8010497f:	75 11                	jne    80104992 <wakeupParent+0x5f>
80104981:	a1 40 c6 10 80       	mov    0x8010c640,%eax
80104986:	83 ec 0c             	sub    $0xc,%esp
80104989:	50                   	push   %eax
8010498a:	e8 35 04 00 00       	call   80104dc4 <wakeup1>
8010498f:	83 c4 10             	add    $0x10,%esp
80104992:	81 45 08 14 01 00 00 	addl   $0x114,0x8(%ebp)
80104999:	81 7d 08 f4 92 11 80 	cmpl   $0x801192f4,0x8(%ebp)
801049a0:	72 b2                	jb     80104954 <wakeupParent+0x21>
801049a2:	90                   	nop
801049a3:	c9                   	leave  
801049a4:	c3                   	ret    

801049a5 <wait>:
801049a5:	55                   	push   %ebp
801049a6:	89 e5                	mov    %esp,%ebp
801049a8:	83 ec 18             	sub    $0x18,%esp
801049ab:	e8 56 f9 ff ff       	call   80104306 <myproc>
801049b0:	89 45 ec             	mov    %eax,-0x14(%ebp)
801049b3:	e8 2e 0c 00 00       	call   801055e6 <pushcli>
801049b8:	c7 45 f0 00 00 00 00 	movl   $0x0,-0x10(%ebp)
801049bf:	c7 45 f4 f4 4d 11 80 	movl   $0x80114df4,-0xc(%ebp)
801049c6:	e9 b4 00 00 00       	jmp    80104a7f <wait+0xda>
801049cb:	8b 45 f4             	mov    -0xc(%ebp),%eax
801049ce:	8b 40 14             	mov    0x14(%eax),%eax
801049d1:	3b 45 ec             	cmp    -0x14(%ebp),%eax
801049d4:	0f 85 9d 00 00 00    	jne    80104a77 <wait+0xd2>
801049da:	c7 45 f0 01 00 00 00 	movl   $0x1,-0x10(%ebp)
801049e1:	90                   	nop
801049e2:	8b 45 f4             	mov    -0xc(%ebp),%eax
801049e5:	8b 40 0c             	mov    0xc(%eax),%eax
801049e8:	83 f8 fb             	cmp    $0xfffffffb,%eax
801049eb:	74 f5                	je     801049e2 <wait+0x3d>
801049ed:	8b 45 f4             	mov    -0xc(%ebp),%eax
801049f0:	83 c0 0c             	add    $0xc,%eax
801049f3:	83 ec 04             	sub    $0x4,%esp
801049f6:	6a ff                	push   $0xffffffff
801049f8:	6a 05                	push   $0x5
801049fa:	50                   	push   %eax
801049fb:	e8 02 f8 ff ff       	call   80104202 <cas>
80104a00:	83 c4 10             	add    $0x10,%esp
80104a03:	85 c0                	test   %eax,%eax
80104a05:	74 71                	je     80104a78 <wait+0xd3>
80104a07:	8b 45 f4             	mov    -0xc(%ebp),%eax
80104a0a:	8b 40 10             	mov    0x10(%eax),%eax
80104a0d:	89 45 e8             	mov    %eax,-0x18(%ebp)
80104a10:	8b 45 f4             	mov    -0xc(%ebp),%eax
80104a13:	8b 40 08             	mov    0x8(%eax),%eax
80104a16:	83 ec 0c             	sub    $0xc,%esp
80104a19:	50                   	push   %eax
80104a1a:	e8 24 e2 ff ff       	call   80102c43 <kfree>
80104a1f:	83 c4 10             	add    $0x10,%esp
80104a22:	8b 45 f4             	mov    -0xc(%ebp),%eax
80104a25:	c7 40 08 00 00 00 00 	movl   $0x0,0x8(%eax)
80104a2c:	8b 45 f4             	mov    -0xc(%ebp),%eax
80104a2f:	8b 40 04             	mov    0x4(%eax),%eax
80104a32:	83 ec 0c             	sub    $0xc,%esp
80104a35:	50                   	push   %eax
80104a36:	e8 c5 3c 00 00       	call   80108700 <freevm>
80104a3b:	83 c4 10             	add    $0x10,%esp
80104a3e:	8b 45 f4             	mov    -0xc(%ebp),%eax
80104a41:	c7 40 10 00 00 00 00 	movl   $0x0,0x10(%eax)
80104a48:	8b 45 f4             	mov    -0xc(%ebp),%eax
80104a4b:	c7 40 14 00 00 00 00 	movl   $0x0,0x14(%eax)
80104a52:	8b 45 f4             	mov    -0xc(%ebp),%eax
80104a55:	c6 40 6c 00          	movb   $0x0,0x6c(%eax)
80104a59:	8b 45 f4             	mov    -0xc(%ebp),%eax
80104a5c:	c7 40 24 00 00 00 00 	movl   $0x0,0x24(%eax)
80104a63:	8b 45 f4             	mov    -0xc(%ebp),%eax
80104a66:	c7 40 0c 00 00 00 00 	movl   $0x0,0xc(%eax)
80104a6d:	e8 c2 0b 00 00       	call   80105634 <popcli>
80104a72:	8b 45 e8             	mov    -0x18(%ebp),%eax
80104a75:	eb 49                	jmp    80104ac0 <wait+0x11b>
80104a77:	90                   	nop
80104a78:	81 45 f4 14 01 00 00 	addl   $0x114,-0xc(%ebp)
80104a7f:	81 7d f4 f4 92 11 80 	cmpl   $0x801192f4,-0xc(%ebp)
80104a86:	0f 82 3f ff ff ff    	jb     801049cb <wait+0x26>
80104a8c:	83 7d f0 00          	cmpl   $0x0,-0x10(%ebp)
80104a90:	74 0a                	je     80104a9c <wait+0xf7>
80104a92:	8b 45 ec             	mov    -0x14(%ebp),%eax
80104a95:	8b 40 24             	mov    0x24(%eax),%eax
80104a98:	85 c0                	test   %eax,%eax
80104a9a:	74 0c                	je     80104aa8 <wait+0x103>
80104a9c:	e8 93 0b 00 00       	call   80105634 <popcli>
80104aa1:	b8 ff ff ff ff       	mov    $0xffffffff,%eax
80104aa6:	eb 18                	jmp    80104ac0 <wait+0x11b>
80104aa8:	83 ec 08             	sub    $0x8,%esp
80104aab:	68 c0 4d 11 80       	push   $0x80114dc0
80104ab0:	ff 75 ec             	pushl  -0x14(%ebp)
80104ab3:	e8 3f 02 00 00       	call   80104cf7 <sleep>
80104ab8:	83 c4 10             	add    $0x10,%esp
80104abb:	e9 f8 fe ff ff       	jmp    801049b8 <wait+0x13>
80104ac0:	c9                   	leave  
80104ac1:	c3                   	ret    

80104ac2 <scheduler>:
80104ac2:	55                   	push   %ebp
80104ac3:	89 e5                	mov    %esp,%ebp
80104ac5:	83 ec 18             	sub    $0x18,%esp
80104ac8:	e8 c1 f7 ff ff       	call   8010428e <mycpu>
80104acd:	89 45 f0             	mov    %eax,-0x10(%ebp)
80104ad0:	8b 45 f0             	mov    -0x10(%ebp),%eax
80104ad3:	c7 80 ac 00 00 00 00 	movl   $0x0,0xac(%eax)
80104ada:	00 00 00 
80104add:	e8 66 f7 ff ff       	call   80104248 <sti>
80104ae2:	e8 ff 0a 00 00       	call   801055e6 <pushcli>
80104ae7:	c7 45 f4 f4 4d 11 80 	movl   $0x80114df4,-0xc(%ebp)
80104aee:	e9 cc 00 00 00       	jmp    80104bbf <scheduler+0xfd>
80104af3:	8b 45 f4             	mov    -0xc(%ebp),%eax
80104af6:	83 c0 0c             	add    $0xc,%eax
80104af9:	83 ec 04             	sub    $0x4,%esp
80104afc:	6a 04                	push   $0x4
80104afe:	6a 03                	push   $0x3
80104b00:	50                   	push   %eax
80104b01:	e8 fc f6 ff ff       	call   80104202 <cas>
80104b06:	83 c4 10             	add    $0x10,%esp
80104b09:	85 c0                	test   %eax,%eax
80104b0b:	0f 84 a7 00 00 00    	je     80104bb8 <scheduler+0xf6>
80104b11:	8b 45 f0             	mov    -0x10(%ebp),%eax
80104b14:	8b 55 f4             	mov    -0xc(%ebp),%edx
80104b17:	89 90 ac 00 00 00    	mov    %edx,0xac(%eax)
80104b1d:	83 ec 0c             	sub    $0xc,%esp
80104b20:	ff 75 f4             	pushl  -0xc(%ebp)
80104b23:	e8 34 37 00 00       	call   8010825c <switchuvm>
80104b28:	83 c4 10             	add    $0x10,%esp
80104b2b:	8b 45 f4             	mov    -0xc(%ebp),%eax
80104b2e:	8b 40 1c             	mov    0x1c(%eax),%eax
80104b31:	8b 55 f0             	mov    -0x10(%ebp),%edx
80104b34:	83 c2 04             	add    $0x4,%edx
80104b37:	83 ec 08             	sub    $0x8,%esp
80104b3a:	50                   	push   %eax
80104b3b:	52                   	push   %edx
80104b3c:	e8 25 0e 00 00       	call   80105966 <swtch>
80104b41:	83 c4 10             	add    $0x10,%esp
80104b44:	e8 fa 36 00 00       	call   80108243 <switchkvm>
80104b49:	8b 45 f0             	mov    -0x10(%ebp),%eax
80104b4c:	c7 80 ac 00 00 00 00 	movl   $0x0,0xac(%eax)
80104b53:	00 00 00 
80104b56:	8b 45 f4             	mov    -0xc(%ebp),%eax
80104b59:	83 c0 0c             	add    $0xc,%eax
80104b5c:	83 ec 04             	sub    $0x4,%esp
80104b5f:	6a 02                	push   $0x2
80104b61:	6a fe                	push   $0xfffffffe
80104b63:	50                   	push   %eax
80104b64:	e8 99 f6 ff ff       	call   80104202 <cas>
80104b69:	83 c4 10             	add    $0x10,%esp
80104b6c:	85 c0                	test   %eax,%eax
80104b6e:	75 44                	jne    80104bb4 <scheduler+0xf2>
80104b70:	8b 45 f4             	mov    -0xc(%ebp),%eax
80104b73:	83 c0 0c             	add    $0xc,%eax
80104b76:	83 ec 04             	sub    $0x4,%esp
80104b79:	6a 03                	push   $0x3
80104b7b:	6a fd                	push   $0xfffffffd
80104b7d:	50                   	push   %eax
80104b7e:	e8 7f f6 ff ff       	call   80104202 <cas>
80104b83:	83 c4 10             	add    $0x10,%esp
80104b86:	85 c0                	test   %eax,%eax
80104b88:	75 2d                	jne    80104bb7 <scheduler+0xf5>
80104b8a:	8b 45 f4             	mov    -0xc(%ebp),%eax
80104b8d:	83 c0 0c             	add    $0xc,%eax
80104b90:	83 ec 04             	sub    $0x4,%esp
80104b93:	6a 05                	push   $0x5
80104b95:	6a fb                	push   $0xfffffffb
80104b97:	50                   	push   %eax
80104b98:	e8 65 f6 ff ff       	call   80104202 <cas>
80104b9d:	83 c4 10             	add    $0x10,%esp
80104ba0:	85 c0                	test   %eax,%eax
80104ba2:	74 14                	je     80104bb8 <scheduler+0xf6>
80104ba4:	83 ec 0c             	sub    $0xc,%esp
80104ba7:	ff 75 f4             	pushl  -0xc(%ebp)
80104baa:	e8 84 fd ff ff       	call   80104933 <wakeupParent>
80104baf:	83 c4 10             	add    $0x10,%esp
80104bb2:	eb 04                	jmp    80104bb8 <scheduler+0xf6>
80104bb4:	90                   	nop
80104bb5:	eb 01                	jmp    80104bb8 <scheduler+0xf6>
80104bb7:	90                   	nop
80104bb8:	81 45 f4 14 01 00 00 	addl   $0x114,-0xc(%ebp)
80104bbf:	81 7d f4 f4 92 11 80 	cmpl   $0x801192f4,-0xc(%ebp)
80104bc6:	0f 82 27 ff ff ff    	jb     80104af3 <scheduler+0x31>
80104bcc:	e8 63 0a 00 00       	call   80105634 <popcli>
80104bd1:	e9 07 ff ff ff       	jmp    80104add <scheduler+0x1b>

80104bd6 <sched>:
80104bd6:	55                   	push   %ebp
80104bd7:	89 e5                	mov    %esp,%ebp
80104bd9:	83 ec 18             	sub    $0x18,%esp
80104bdc:	e8 25 f7 ff ff       	call   80104306 <myproc>
80104be1:	89 45 f4             	mov    %eax,-0xc(%ebp)
80104be4:	e8 a5 f6 ff ff       	call   8010428e <mycpu>
80104be9:	8b 80 a4 00 00 00    	mov    0xa4(%eax),%eax
80104bef:	83 f8 01             	cmp    $0x1,%eax
80104bf2:	74 29                	je     80104c1d <sched+0x47>
80104bf4:	e8 95 f6 ff ff       	call   8010428e <mycpu>
80104bf9:	8b 80 a4 00 00 00    	mov    0xa4(%eax),%eax
80104bff:	83 ec 08             	sub    $0x8,%esp
80104c02:	50                   	push   %eax
80104c03:	68 18 91 10 80       	push   $0x80109118
80104c08:	e8 f3 b7 ff ff       	call   80100400 <cprintf>
80104c0d:	83 c4 10             	add    $0x10,%esp
80104c10:	83 ec 0c             	sub    $0xc,%esp
80104c13:	68 21 91 10 80       	push   $0x80109121
80104c18:	e8 83 b9 ff ff       	call   801005a0 <panic>
80104c1d:	8b 45 f4             	mov    -0xc(%ebp),%eax
80104c20:	8b 40 0c             	mov    0xc(%eax),%eax
80104c23:	83 f8 04             	cmp    $0x4,%eax
80104c26:	75 0d                	jne    80104c35 <sched+0x5f>
80104c28:	83 ec 0c             	sub    $0xc,%esp
80104c2b:	68 2d 91 10 80       	push   $0x8010912d
80104c30:	e8 6b b9 ff ff       	call   801005a0 <panic>
80104c35:	e8 fe f5 ff ff       	call   80104238 <readeflags>
80104c3a:	25 00 02 00 00       	and    $0x200,%eax
80104c3f:	85 c0                	test   %eax,%eax
80104c41:	74 0d                	je     80104c50 <sched+0x7a>
80104c43:	83 ec 0c             	sub    $0xc,%esp
80104c46:	68 3b 91 10 80       	push   $0x8010913b
80104c4b:	e8 50 b9 ff ff       	call   801005a0 <panic>
80104c50:	e8 39 f6 ff ff       	call   8010428e <mycpu>
80104c55:	8b 80 a8 00 00 00    	mov    0xa8(%eax),%eax
80104c5b:	89 45 f0             	mov    %eax,-0x10(%ebp)
80104c5e:	e8 2b f6 ff ff       	call   8010428e <mycpu>
80104c63:	8b 40 04             	mov    0x4(%eax),%eax
80104c66:	8b 55 f4             	mov    -0xc(%ebp),%edx
80104c69:	83 c2 1c             	add    $0x1c,%edx
80104c6c:	83 ec 08             	sub    $0x8,%esp
80104c6f:	50                   	push   %eax
80104c70:	52                   	push   %edx
80104c71:	e8 f0 0c 00 00       	call   80105966 <swtch>
80104c76:	83 c4 10             	add    $0x10,%esp
80104c79:	e8 10 f6 ff ff       	call   8010428e <mycpu>
80104c7e:	89 c2                	mov    %eax,%edx
80104c80:	8b 45 f0             	mov    -0x10(%ebp),%eax
80104c83:	89 82 a8 00 00 00    	mov    %eax,0xa8(%edx)
80104c89:	90                   	nop
80104c8a:	c9                   	leave  
80104c8b:	c3                   	ret    

80104c8c <yield>:
80104c8c:	55                   	push   %ebp
80104c8d:	89 e5                	mov    %esp,%ebp
80104c8f:	83 ec 08             	sub    $0x8,%esp
80104c92:	e8 4f 09 00 00       	call   801055e6 <pushcli>
80104c97:	e8 6a f6 ff ff       	call   80104306 <myproc>
80104c9c:	83 c0 0c             	add    $0xc,%eax
80104c9f:	83 ec 04             	sub    $0x4,%esp
80104ca2:	6a fd                	push   $0xfffffffd
80104ca4:	6a 04                	push   $0x4
80104ca6:	50                   	push   %eax
80104ca7:	e8 56 f5 ff ff       	call   80104202 <cas>
80104cac:	83 c4 10             	add    $0x10,%esp
80104caf:	e8 22 ff ff ff       	call   80104bd6 <sched>
80104cb4:	e8 7b 09 00 00       	call   80105634 <popcli>
80104cb9:	90                   	nop
80104cba:	c9                   	leave  
80104cbb:	c3                   	ret    

80104cbc <forkret>:
80104cbc:	55                   	push   %ebp
80104cbd:	89 e5                	mov    %esp,%ebp
80104cbf:	83 ec 08             	sub    $0x8,%esp
80104cc2:	e8 6d 09 00 00       	call   80105634 <popcli>
80104cc7:	a1 00 c0 10 80       	mov    0x8010c000,%eax
80104ccc:	85 c0                	test   %eax,%eax
80104cce:	74 24                	je     80104cf4 <forkret+0x38>
80104cd0:	c7 05 00 c0 10 80 00 	movl   $0x0,0x8010c000
80104cd7:	00 00 00 
80104cda:	83 ec 0c             	sub    $0xc,%esp
80104cdd:	6a 01                	push   $0x1
80104cdf:	e8 02 ca ff ff       	call   801016e6 <iinit>
80104ce4:	83 c4 10             	add    $0x10,%esp
80104ce7:	83 ec 0c             	sub    $0xc,%esp
80104cea:	6a 01                	push   $0x1
80104cec:	e8 6e e6 ff ff       	call   8010335f <initlog>
80104cf1:	83 c4 10             	add    $0x10,%esp
80104cf4:	90                   	nop
80104cf5:	c9                   	leave  
80104cf6:	c3                   	ret    

80104cf7 <sleep>:
80104cf7:	55                   	push   %ebp
80104cf8:	89 e5                	mov    %esp,%ebp
80104cfa:	83 ec 18             	sub    $0x18,%esp
80104cfd:	e8 04 f6 ff ff       	call   80104306 <myproc>
80104d02:	89 45 f4             	mov    %eax,-0xc(%ebp)
80104d05:	83 7d f4 00          	cmpl   $0x0,-0xc(%ebp)
80104d09:	75 0d                	jne    80104d18 <sleep+0x21>
80104d0b:	83 ec 0c             	sub    $0xc,%esp
80104d0e:	68 4f 91 10 80       	push   $0x8010914f
80104d13:	e8 88 b8 ff ff       	call   801005a0 <panic>
80104d18:	83 7d 0c 00          	cmpl   $0x0,0xc(%ebp)
80104d1c:	75 0d                	jne    80104d2b <sleep+0x34>
80104d1e:	83 ec 0c             	sub    $0xc,%esp
80104d21:	68 55 91 10 80       	push   $0x80109155
80104d26:	e8 75 b8 ff ff       	call   801005a0 <panic>
80104d2b:	81 7d 0c c0 4d 11 80 	cmpl   $0x80114dc0,0xc(%ebp)
80104d32:	74 05                	je     80104d39 <sleep+0x42>
80104d34:	e8 ad 08 00 00       	call   801055e6 <pushcli>
80104d39:	8b 45 08             	mov    0x8(%ebp),%eax
80104d3c:	8b 55 f4             	mov    -0xc(%ebp),%edx
80104d3f:	83 c2 20             	add    $0x20,%edx
80104d42:	83 ec 04             	sub    $0x4,%esp
80104d45:	50                   	push   %eax
80104d46:	6a 00                	push   $0x0
80104d48:	52                   	push   %edx
80104d49:	e8 b4 f4 ff ff       	call   80104202 <cas>
80104d4e:	83 c4 10             	add    $0x10,%esp
80104d51:	85 c0                	test   %eax,%eax
80104d53:	75 0d                	jne    80104d62 <sleep+0x6b>
80104d55:	83 ec 0c             	sub    $0xc,%esp
80104d58:	68 68 91 10 80       	push   $0x80109168
80104d5d:	e8 3e b8 ff ff       	call   801005a0 <panic>
80104d62:	8b 45 f4             	mov    -0xc(%ebp),%eax
80104d65:	83 c0 0c             	add    $0xc,%eax
80104d68:	83 ec 04             	sub    $0x4,%esp
80104d6b:	6a fe                	push   $0xfffffffe
80104d6d:	6a 04                	push   $0x4
80104d6f:	50                   	push   %eax
80104d70:	e8 8d f4 ff ff       	call   80104202 <cas>
80104d75:	83 c4 10             	add    $0x10,%esp
80104d78:	85 c0                	test   %eax,%eax
80104d7a:	75 0d                	jne    80104d89 <sleep+0x92>
80104d7c:	83 ec 0c             	sub    $0xc,%esp
80104d7f:	68 87 91 10 80       	push   $0x80109187
80104d84:	e8 17 b8 ff ff       	call   801005a0 <panic>
80104d89:	81 7d 0c c0 4d 11 80 	cmpl   $0x80114dc0,0xc(%ebp)
80104d90:	74 0e                	je     80104da0 <sleep+0xa9>
80104d92:	83 ec 0c             	sub    $0xc,%esp
80104d95:	ff 75 0c             	pushl  0xc(%ebp)
80104d98:	e8 4c 07 00 00       	call   801054e9 <release>
80104d9d:	83 c4 10             	add    $0x10,%esp
80104da0:	e8 31 fe ff ff       	call   80104bd6 <sched>
80104da5:	81 7d 0c c0 4d 11 80 	cmpl   $0x80114dc0,0xc(%ebp)
80104dac:	74 13                	je     80104dc1 <sleep+0xca>
80104dae:	e8 81 08 00 00       	call   80105634 <popcli>
80104db3:	83 ec 0c             	sub    $0xc,%esp
80104db6:	ff 75 0c             	pushl  0xc(%ebp)
80104db9:	e8 bd 06 00 00       	call   8010547b <acquire>
80104dbe:	83 c4 10             	add    $0x10,%esp
80104dc1:	90                   	nop
80104dc2:	c9                   	leave  
80104dc3:	c3                   	ret    

80104dc4 <wakeup1>:
80104dc4:	55                   	push   %ebp
80104dc5:	89 e5                	mov    %esp,%ebp
80104dc7:	83 ec 10             	sub    $0x10,%esp
80104dca:	c7 45 fc f4 4d 11 80 	movl   $0x80114df4,-0x4(%ebp)
80104dd1:	eb 55                	jmp    80104e28 <wakeup1+0x64>
80104dd3:	8b 45 fc             	mov    -0x4(%ebp),%eax
80104dd6:	8b 40 0c             	mov    0xc(%eax),%eax
80104dd9:	83 f8 02             	cmp    $0x2,%eax
80104ddc:	74 0b                	je     80104de9 <wakeup1+0x25>
80104dde:	8b 45 fc             	mov    -0x4(%ebp),%eax
80104de1:	8b 40 0c             	mov    0xc(%eax),%eax
80104de4:	83 f8 fe             	cmp    $0xfffffffe,%eax
80104de7:	75 38                	jne    80104e21 <wakeup1+0x5d>
80104de9:	8b 45 08             	mov    0x8(%ebp),%eax
80104dec:	8b 55 fc             	mov    -0x4(%ebp),%edx
80104def:	83 c2 20             	add    $0x20,%edx
80104df2:	6a 00                	push   $0x0
80104df4:	50                   	push   %eax
80104df5:	52                   	push   %edx
80104df6:	e8 07 f4 ff ff       	call   80104202 <cas>
80104dfb:	83 c4 0c             	add    $0xc,%esp
80104dfe:	85 c0                	test   %eax,%eax
80104e00:	74 1f                	je     80104e21 <wakeup1+0x5d>
80104e02:	90                   	nop
80104e03:	8b 45 fc             	mov    -0x4(%ebp),%eax
80104e06:	8b 40 0c             	mov    0xc(%eax),%eax
80104e09:	83 f8 fe             	cmp    $0xfffffffe,%eax
80104e0c:	74 f5                	je     80104e03 <wakeup1+0x3f>
80104e0e:	8b 45 fc             	mov    -0x4(%ebp),%eax
80104e11:	83 c0 0c             	add    $0xc,%eax
80104e14:	6a 03                	push   $0x3
80104e16:	6a 02                	push   $0x2
80104e18:	50                   	push   %eax
80104e19:	e8 e4 f3 ff ff       	call   80104202 <cas>
80104e1e:	83 c4 0c             	add    $0xc,%esp
80104e21:	81 45 fc 14 01 00 00 	addl   $0x114,-0x4(%ebp)
80104e28:	81 7d fc f4 92 11 80 	cmpl   $0x801192f4,-0x4(%ebp)
80104e2f:	72 a2                	jb     80104dd3 <wakeup1+0xf>
80104e31:	90                   	nop
80104e32:	c9                   	leave  
80104e33:	c3                   	ret    

80104e34 <wakeup>:
80104e34:	55                   	push   %ebp
80104e35:	89 e5                	mov    %esp,%ebp
80104e37:	83 ec 08             	sub    $0x8,%esp
80104e3a:	e8 a7 07 00 00       	call   801055e6 <pushcli>
80104e3f:	83 ec 0c             	sub    $0xc,%esp
80104e42:	ff 75 08             	pushl  0x8(%ebp)
80104e45:	e8 7a ff ff ff       	call   80104dc4 <wakeup1>
80104e4a:	83 c4 10             	add    $0x10,%esp
80104e4d:	e8 e2 07 00 00       	call   80105634 <popcli>
80104e52:	90                   	nop
80104e53:	c9                   	leave  
80104e54:	c3                   	ret    

80104e55 <kill>:
80104e55:	55                   	push   %ebp
80104e56:	89 e5                	mov    %esp,%ebp
80104e58:	83 ec 18             	sub    $0x18,%esp
80104e5b:	8b 45 0c             	mov    0xc(%ebp),%eax
80104e5e:	ba 01 00 00 00       	mov    $0x1,%edx
80104e63:	89 c1                	mov    %eax,%ecx
80104e65:	d3 e2                	shl    %cl,%edx
80104e67:	89 d0                	mov    %edx,%eax
80104e69:	89 45 ec             	mov    %eax,-0x14(%ebp)
80104e6c:	c7 45 f4 f4 4d 11 80 	movl   $0x80114df4,-0xc(%ebp)
80104e73:	e9 f6 00 00 00       	jmp    80104f6e <kill+0x119>
80104e78:	8b 45 f4             	mov    -0xc(%ebp),%eax
80104e7b:	8b 40 10             	mov    0x10(%eax),%eax
80104e7e:	3b 45 08             	cmp    0x8(%ebp),%eax
80104e81:	0f 85 e0 00 00 00    	jne    80104f67 <kill+0x112>
80104e87:	e8 5a 07 00 00       	call   801055e6 <pushcli>
80104e8c:	8b 45 f4             	mov    -0xc(%ebp),%eax
80104e8f:	8b 40 0c             	mov    0xc(%eax),%eax
80104e92:	83 f8 05             	cmp    $0x5,%eax
80104e95:	74 0a                	je     80104ea1 <kill+0x4c>
80104e97:	8b 45 f4             	mov    -0xc(%ebp),%eax
80104e9a:	8b 40 0c             	mov    0xc(%eax),%eax
80104e9d:	85 c0                	test   %eax,%eax
80104e9f:	75 0a                	jne    80104eab <kill+0x56>
80104ea1:	b8 ff ff ff ff       	mov    $0xffffffff,%eax
80104ea6:	e9 d5 00 00 00       	jmp    80104f80 <kill+0x12b>
80104eab:	8b 45 f4             	mov    -0xc(%ebp),%eax
80104eae:	8b 40 7c             	mov    0x7c(%eax),%eax
80104eb1:	89 45 f0             	mov    %eax,-0x10(%ebp)
80104eb4:	eb 09                	jmp    80104ebf <kill+0x6a>
80104eb6:	8b 45 f4             	mov    -0xc(%ebp),%eax
80104eb9:	8b 40 7c             	mov    0x7c(%eax),%eax
80104ebc:	89 45 f0             	mov    %eax,-0x10(%ebp)
80104ebf:	8b 45 f0             	mov    -0x10(%ebp),%eax
80104ec2:	0b 45 ec             	or     -0x14(%ebp),%eax
80104ec5:	89 c2                	mov    %eax,%edx
80104ec7:	8b 45 f4             	mov    -0xc(%ebp),%eax
80104eca:	83 c0 7c             	add    $0x7c,%eax
80104ecd:	83 ec 04             	sub    $0x4,%esp
80104ed0:	52                   	push   %edx
80104ed1:	ff 75 f0             	pushl  -0x10(%ebp)
80104ed4:	50                   	push   %eax
80104ed5:	e8 28 f3 ff ff       	call   80104202 <cas>
80104eda:	83 c4 10             	add    $0x10,%esp
80104edd:	85 c0                	test   %eax,%eax
80104edf:	74 d5                	je     80104eb6 <kill+0x61>
80104ee1:	8b 45 f4             	mov    -0xc(%ebp),%eax
80104ee4:	8b 55 0c             	mov    0xc(%ebp),%edx
80104ee7:	83 c2 20             	add    $0x20,%edx
80104eea:	8b 44 90 0c          	mov    0xc(%eax,%edx,4),%eax
80104eee:	83 f8 ff             	cmp    $0xffffffff,%eax
80104ef1:	75 68                	jne    80104f5b <kill+0x106>
80104ef3:	83 7d 0c 11          	cmpl   $0x11,0xc(%ebp)
80104ef7:	74 62                	je     80104f5b <kill+0x106>
80104ef9:	83 7d 0c 13          	cmpl   $0x13,0xc(%ebp)
80104efd:	74 5c                	je     80104f5b <kill+0x106>
80104eff:	8b 45 f4             	mov    -0xc(%ebp),%eax
80104f02:	8b 40 0c             	mov    0xc(%eax),%eax
80104f05:	83 f8 02             	cmp    $0x2,%eax
80104f08:	74 0b                	je     80104f15 <kill+0xc0>
80104f0a:	8b 45 f4             	mov    -0xc(%ebp),%eax
80104f0d:	8b 40 0c             	mov    0xc(%eax),%eax
80104f10:	83 f8 fe             	cmp    $0xfffffffe,%eax
80104f13:	75 46                	jne    80104f5b <kill+0x106>
80104f15:	8b 45 f4             	mov    -0xc(%ebp),%eax
80104f18:	8b 40 20             	mov    0x20(%eax),%eax
80104f1b:	89 45 e8             	mov    %eax,-0x18(%ebp)
80104f1e:	8b 45 f4             	mov    -0xc(%ebp),%eax
80104f21:	83 c0 20             	add    $0x20,%eax
80104f24:	83 ec 04             	sub    $0x4,%esp
80104f27:	6a 00                	push   $0x0
80104f29:	ff 75 e8             	pushl  -0x18(%ebp)
80104f2c:	50                   	push   %eax
80104f2d:	e8 d0 f2 ff ff       	call   80104202 <cas>
80104f32:	83 c4 10             	add    $0x10,%esp
80104f35:	85 c0                	test   %eax,%eax
80104f37:	74 22                	je     80104f5b <kill+0x106>
80104f39:	90                   	nop
80104f3a:	8b 45 f4             	mov    -0xc(%ebp),%eax
80104f3d:	8b 40 0c             	mov    0xc(%eax),%eax
80104f40:	83 f8 fe             	cmp    $0xfffffffe,%eax
80104f43:	74 f5                	je     80104f3a <kill+0xe5>
80104f45:	8b 45 f4             	mov    -0xc(%ebp),%eax
80104f48:	83 c0 0c             	add    $0xc,%eax
80104f4b:	83 ec 04             	sub    $0x4,%esp
80104f4e:	6a 03                	push   $0x3
80104f50:	6a 02                	push   $0x2
80104f52:	50                   	push   %eax
80104f53:	e8 aa f2 ff ff       	call   80104202 <cas>
80104f58:	83 c4 10             	add    $0x10,%esp
80104f5b:	e8 d4 06 00 00       	call   80105634 <popcli>
80104f60:	b8 00 00 00 00       	mov    $0x0,%eax
80104f65:	eb 19                	jmp    80104f80 <kill+0x12b>
80104f67:	81 45 f4 14 01 00 00 	addl   $0x114,-0xc(%ebp)
80104f6e:	81 7d f4 f4 92 11 80 	cmpl   $0x801192f4,-0xc(%ebp)
80104f75:	0f 82 fd fe ff ff    	jb     80104e78 <kill+0x23>
80104f7b:	b8 ff ff ff ff       	mov    $0xffffffff,%eax
80104f80:	c9                   	leave  
80104f81:	c3                   	ret    

80104f82 <procdump>:
80104f82:	55                   	push   %ebp
80104f83:	89 e5                	mov    %esp,%ebp
80104f85:	83 ec 48             	sub    $0x48,%esp
80104f88:	c7 45 f0 f4 4d 11 80 	movl   $0x80114df4,-0x10(%ebp)
80104f8f:	e9 da 00 00 00       	jmp    8010506e <procdump+0xec>
80104f94:	8b 45 f0             	mov    -0x10(%ebp),%eax
80104f97:	8b 40 0c             	mov    0xc(%eax),%eax
80104f9a:	85 c0                	test   %eax,%eax
80104f9c:	0f 84 c4 00 00 00    	je     80105066 <procdump+0xe4>
80104fa2:	8b 45 f0             	mov    -0x10(%ebp),%eax
80104fa5:	8b 40 0c             	mov    0xc(%eax),%eax
80104fa8:	83 f8 05             	cmp    $0x5,%eax
80104fab:	77 23                	ja     80104fd0 <procdump+0x4e>
80104fad:	8b 45 f0             	mov    -0x10(%ebp),%eax
80104fb0:	8b 40 0c             	mov    0xc(%eax),%eax
80104fb3:	8b 04 85 04 c0 10 80 	mov    -0x7fef3ffc(,%eax,4),%eax
80104fba:	85 c0                	test   %eax,%eax
80104fbc:	74 12                	je     80104fd0 <procdump+0x4e>
80104fbe:	8b 45 f0             	mov    -0x10(%ebp),%eax
80104fc1:	8b 40 0c             	mov    0xc(%eax),%eax
80104fc4:	8b 04 85 04 c0 10 80 	mov    -0x7fef3ffc(,%eax,4),%eax
80104fcb:	89 45 ec             	mov    %eax,-0x14(%ebp)
80104fce:	eb 07                	jmp    80104fd7 <procdump+0x55>
80104fd0:	c7 45 ec 95 91 10 80 	movl   $0x80109195,-0x14(%ebp)
80104fd7:	8b 45 f0             	mov    -0x10(%ebp),%eax
80104fda:	8d 50 6c             	lea    0x6c(%eax),%edx
80104fdd:	8b 45 f0             	mov    -0x10(%ebp),%eax
80104fe0:	8b 40 10             	mov    0x10(%eax),%eax
80104fe3:	52                   	push   %edx
80104fe4:	ff 75 ec             	pushl  -0x14(%ebp)
80104fe7:	50                   	push   %eax
80104fe8:	68 99 91 10 80       	push   $0x80109199
80104fed:	e8 0e b4 ff ff       	call   80100400 <cprintf>
80104ff2:	83 c4 10             	add    $0x10,%esp
80104ff5:	8b 45 f0             	mov    -0x10(%ebp),%eax
80104ff8:	8b 40 0c             	mov    0xc(%eax),%eax
80104ffb:	83 f8 02             	cmp    $0x2,%eax
80104ffe:	75 54                	jne    80105054 <procdump+0xd2>
80105000:	8b 45 f0             	mov    -0x10(%ebp),%eax
80105003:	8b 40 1c             	mov    0x1c(%eax),%eax
80105006:	8b 40 0c             	mov    0xc(%eax),%eax
80105009:	83 c0 08             	add    $0x8,%eax
8010500c:	89 c2                	mov    %eax,%edx
8010500e:	83 ec 08             	sub    $0x8,%esp
80105011:	8d 45 c4             	lea    -0x3c(%ebp),%eax
80105014:	50                   	push   %eax
80105015:	52                   	push   %edx
80105016:	e8 20 05 00 00       	call   8010553b <getcallerpcs>
8010501b:	83 c4 10             	add    $0x10,%esp
8010501e:	c7 45 f4 00 00 00 00 	movl   $0x0,-0xc(%ebp)
80105025:	eb 1c                	jmp    80105043 <procdump+0xc1>
80105027:	8b 45 f4             	mov    -0xc(%ebp),%eax
8010502a:	8b 44 85 c4          	mov    -0x3c(%ebp,%eax,4),%eax
8010502e:	83 ec 08             	sub    $0x8,%esp
80105031:	50                   	push   %eax
80105032:	68 a2 91 10 80       	push   $0x801091a2
80105037:	e8 c4 b3 ff ff       	call   80100400 <cprintf>
8010503c:	83 c4 10             	add    $0x10,%esp
8010503f:	83 45 f4 01          	addl   $0x1,-0xc(%ebp)
80105043:	83 7d f4 09          	cmpl   $0x9,-0xc(%ebp)
80105047:	7f 0b                	jg     80105054 <procdump+0xd2>
80105049:	8b 45 f4             	mov    -0xc(%ebp),%eax
8010504c:	8b 44 85 c4          	mov    -0x3c(%ebp,%eax,4),%eax
80105050:	85 c0                	test   %eax,%eax
80105052:	75 d3                	jne    80105027 <procdump+0xa5>
80105054:	83 ec 0c             	sub    $0xc,%esp
80105057:	68 a6 91 10 80       	push   $0x801091a6
8010505c:	e8 9f b3 ff ff       	call   80100400 <cprintf>
80105061:	83 c4 10             	add    $0x10,%esp
80105064:	eb 01                	jmp    80105067 <procdump+0xe5>
80105066:	90                   	nop
80105067:	81 45 f0 14 01 00 00 	addl   $0x114,-0x10(%ebp)
8010506e:	81 7d f0 f4 92 11 80 	cmpl   $0x801192f4,-0x10(%ebp)
80105075:	0f 82 19 ff ff ff    	jb     80104f94 <procdump+0x12>
8010507b:	90                   	nop
8010507c:	c9                   	leave  
8010507d:	c3                   	ret    

8010507e <isStopped>:
8010507e:	55                   	push   %ebp
8010507f:	89 e5                	mov    %esp,%ebp
80105081:	83 ec 10             	sub    $0x10,%esp
80105084:	c7 45 fc f4 4d 11 80 	movl   $0x80114df4,-0x4(%ebp)
8010508b:	eb 2c                	jmp    801050b9 <isStopped+0x3b>
8010508d:	8b 45 fc             	mov    -0x4(%ebp),%eax
80105090:	8b 40 0c             	mov    0xc(%eax),%eax
80105093:	85 c0                	test   %eax,%eax
80105095:	74 1a                	je     801050b1 <isStopped+0x33>
80105097:	8b 45 fc             	mov    -0x4(%ebp),%eax
8010509a:	8b 40 10             	mov    0x10(%eax),%eax
8010509d:	3b 45 08             	cmp    0x8(%ebp),%eax
801050a0:	75 10                	jne    801050b2 <isStopped+0x34>
801050a2:	8b 45 fc             	mov    -0x4(%ebp),%eax
801050a5:	0f b6 80 84 00 00 00 	movzbl 0x84(%eax),%eax
801050ac:	0f be c0             	movsbl %al,%eax
801050af:	eb 16                	jmp    801050c7 <isStopped+0x49>
801050b1:	90                   	nop
801050b2:	81 45 fc 14 01 00 00 	addl   $0x114,-0x4(%ebp)
801050b9:	81 7d fc f4 92 11 80 	cmpl   $0x801192f4,-0x4(%ebp)
801050c0:	72 cb                	jb     8010508d <isStopped+0xf>
801050c2:	b8 ff ff ff ff       	mov    $0xffffffff,%eax
801050c7:	c9                   	leave  
801050c8:	c3                   	ret    

801050c9 <handleKill>:
801050c9:	55                   	push   %ebp
801050ca:	89 e5                	mov    %esp,%ebp
801050cc:	83 ec 18             	sub    $0x18,%esp
801050cf:	e8 32 f2 ff ff       	call   80104306 <myproc>
801050d4:	89 45 f4             	mov    %eax,-0xc(%ebp)
801050d7:	8b 45 f4             	mov    -0xc(%ebp),%eax
801050da:	c7 40 24 01 00 00 00 	movl   $0x1,0x24(%eax)
801050e1:	b8 00 00 00 00       	mov    $0x0,%eax
801050e6:	c9                   	leave  
801050e7:	c3                   	ret    

801050e8 <handleStop>:
801050e8:	55                   	push   %ebp
801050e9:	89 e5                	mov    %esp,%ebp
801050eb:	83 ec 18             	sub    $0x18,%esp
801050ee:	e8 13 f2 ff ff       	call   80104306 <myproc>
801050f3:	89 45 f0             	mov    %eax,-0x10(%ebp)
801050f6:	8b 45 f0             	mov    -0x10(%ebp),%eax
801050f9:	8b 40 0c             	mov    0xc(%eax),%eax
801050fc:	83 f8 04             	cmp    $0x4,%eax
801050ff:	74 0f                	je     80105110 <handleStop+0x28>
80105101:	8b 45 f0             	mov    -0x10(%ebp),%eax
80105104:	8b 40 0c             	mov    0xc(%eax),%eax
80105107:	83 f8 03             	cmp    $0x3,%eax
8010510a:	0f 85 95 00 00 00    	jne    801051a5 <handleStop+0xbd>
80105110:	8b 45 f0             	mov    -0x10(%ebp),%eax
80105113:	0f b6 80 84 00 00 00 	movzbl 0x84(%eax),%eax
8010511a:	84 c0                	test   %al,%al
8010511c:	0f 85 83 00 00 00    	jne    801051a5 <handleStop+0xbd>
80105122:	8b 45 f0             	mov    -0x10(%ebp),%eax
80105125:	c6 80 84 00 00 00 01 	movb   $0x1,0x84(%eax)
8010512c:	c7 45 ec 00 00 08 00 	movl   $0x80000,-0x14(%ebp)
80105133:	c7 45 f4 01 00 00 00 	movl   $0x1,-0xc(%ebp)
8010513a:	8b 45 f0             	mov    -0x10(%ebp),%eax
8010513d:	8b 80 88 00 00 00    	mov    0x88(%eax),%eax
80105143:	83 ec 0c             	sub    $0xc,%esp
80105146:	50                   	push   %eax
80105147:	e8 c7 00 00 00       	call   80105213 <setSigMask>
8010514c:	83 c4 10             	add    $0x10,%esp
8010514f:	eb 47                	jmp    80105198 <handleStop+0xb0>
80105151:	8b 45 f0             	mov    -0x10(%ebp),%eax
80105154:	8b 50 7c             	mov    0x7c(%eax),%edx
80105157:	8b 45 ec             	mov    -0x14(%ebp),%eax
8010515a:	21 d0                	and    %edx,%eax
8010515c:	85 c0                	test   %eax,%eax
8010515e:	75 07                	jne    80105167 <handleStop+0x7f>
80105160:	e8 27 fb ff ff       	call   80104c8c <yield>
80105165:	eb 31                	jmp    80105198 <handleStop+0xb0>
80105167:	8b 45 f0             	mov    -0x10(%ebp),%eax
8010516a:	c6 80 84 00 00 00 00 	movb   $0x0,0x84(%eax)
80105171:	83 ec 08             	sub    $0x8,%esp
80105174:	ff 75 f0             	pushl  -0x10(%ebp)
80105177:	6a 11                	push   $0x11
80105179:	e8 67 39 00 00       	call   80108ae5 <turnOffBit>
8010517e:	83 c4 10             	add    $0x10,%esp
80105181:	83 ec 08             	sub    $0x8,%esp
80105184:	ff 75 f0             	pushl  -0x10(%ebp)
80105187:	6a 13                	push   $0x13
80105189:	e8 57 39 00 00       	call   80108ae5 <turnOffBit>
8010518e:	83 c4 10             	add    $0x10,%esp
80105191:	c7 45 f4 00 00 00 00 	movl   $0x0,-0xc(%ebp)
80105198:	83 7d f4 01          	cmpl   $0x1,-0xc(%ebp)
8010519c:	74 b3                	je     80105151 <handleStop+0x69>
8010519e:	b8 00 00 00 00       	mov    $0x0,%eax
801051a3:	eb 05                	jmp    801051aa <handleStop+0xc2>
801051a5:	b8 ff ff ff ff       	mov    $0xffffffff,%eax
801051aa:	c9                   	leave  
801051ab:	c3                   	ret    

801051ac <handleCont>:
801051ac:	55                   	push   %ebp
801051ad:	89 e5                	mov    %esp,%ebp
801051af:	83 ec 18             	sub    $0x18,%esp
801051b2:	e8 4f f1 ff ff       	call   80104306 <myproc>
801051b7:	89 45 f4             	mov    %eax,-0xc(%ebp)
801051ba:	8b 45 f4             	mov    -0xc(%ebp),%eax
801051bd:	0f b6 80 84 00 00 00 	movzbl 0x84(%eax),%eax
801051c4:	84 c0                	test   %al,%al
801051c6:	74 11                	je     801051d9 <handleCont+0x2d>
801051c8:	8b 45 f4             	mov    -0xc(%ebp),%eax
801051cb:	c6 80 84 00 00 00 00 	movb   $0x0,0x84(%eax)
801051d2:	b8 00 00 00 00       	mov    $0x0,%eax
801051d7:	eb 05                	jmp    801051de <handleCont+0x32>
801051d9:	b8 ff ff ff ff       	mov    $0xffffffff,%eax
801051de:	c9                   	leave  
801051df:	c3                   	ret    

801051e0 <setSignalHandler>:
801051e0:	55                   	push   %ebp
801051e1:	89 e5                	mov    %esp,%ebp
801051e3:	83 ec 18             	sub    $0x18,%esp
801051e6:	e8 1b f1 ff ff       	call   80104306 <myproc>
801051eb:	89 45 f4             	mov    %eax,-0xc(%ebp)
801051ee:	8b 45 f4             	mov    -0xc(%ebp),%eax
801051f1:	8b 55 08             	mov    0x8(%ebp),%edx
801051f4:	83 c2 20             	add    $0x20,%edx
801051f7:	8b 44 90 0c          	mov    0xc(%eax,%edx,4),%eax
801051fb:	89 45 f0             	mov    %eax,-0x10(%ebp)
801051fe:	8b 45 f4             	mov    -0xc(%ebp),%eax
80105201:	8b 55 08             	mov    0x8(%ebp),%edx
80105204:	8d 4a 20             	lea    0x20(%edx),%ecx
80105207:	8b 55 0c             	mov    0xc(%ebp),%edx
8010520a:	89 54 88 0c          	mov    %edx,0xc(%eax,%ecx,4)
8010520e:	8b 45 f0             	mov    -0x10(%ebp),%eax
80105211:	c9                   	leave  
80105212:	c3                   	ret    

80105213 <setSigMask>:
80105213:	55                   	push   %ebp
80105214:	89 e5                	mov    %esp,%ebp
80105216:	83 ec 18             	sub    $0x18,%esp
80105219:	e8 e8 f0 ff ff       	call   80104306 <myproc>
8010521e:	89 45 f4             	mov    %eax,-0xc(%ebp)
80105221:	8b 45 f4             	mov    -0xc(%ebp),%eax
80105224:	8b 80 80 00 00 00    	mov    0x80(%eax),%eax
8010522a:	89 45 f0             	mov    %eax,-0x10(%ebp)
8010522d:	8b 45 f4             	mov    -0xc(%ebp),%eax
80105230:	8b 55 08             	mov    0x8(%ebp),%edx
80105233:	89 90 80 00 00 00    	mov    %edx,0x80(%eax)
80105239:	8b 45 f0             	mov    -0x10(%ebp),%eax
8010523c:	c9                   	leave  
8010523d:	c3                   	ret    

8010523e <sigret>:
8010523e:	55                   	push   %ebp
8010523f:	89 e5                	mov    %esp,%ebp
80105241:	83 ec 18             	sub    $0x18,%esp
80105244:	e8 bd f0 ff ff       	call   80104306 <myproc>
80105249:	89 45 f4             	mov    %eax,-0xc(%ebp)
8010524c:	8b 45 f4             	mov    -0xc(%ebp),%eax
8010524f:	8b 80 10 01 00 00    	mov    0x110(%eax),%eax
80105255:	83 ec 08             	sub    $0x8,%esp
80105258:	50                   	push   %eax
80105259:	68 a8 91 10 80       	push   $0x801091a8
8010525e:	e8 9d b1 ff ff       	call   80100400 <cprintf>
80105263:	83 c4 10             	add    $0x10,%esp
80105266:	8b 45 f4             	mov    -0xc(%ebp),%eax
80105269:	8b 90 0c 01 00 00    	mov    0x10c(%eax),%edx
8010526f:	8b 45 f4             	mov    -0xc(%ebp),%eax
80105272:	8b 40 18             	mov    0x18(%eax),%eax
80105275:	83 ec 08             	sub    $0x8,%esp
80105278:	52                   	push   %edx
80105279:	50                   	push   %eax
8010527a:	e8 f2 37 00 00       	call   80108a71 <copyTF>
8010527f:	83 c4 10             	add    $0x10,%esp
80105282:	8b 45 f4             	mov    -0xc(%ebp),%eax
80105285:	c7 80 10 01 00 00 00 	movl   $0x0,0x110(%eax)
8010528c:	00 00 00 
8010528f:	90                   	nop
80105290:	c9                   	leave  
80105291:	c3                   	ret    

80105292 <printPtable>:
80105292:	55                   	push   %ebp
80105293:	89 e5                	mov    %esp,%ebp
80105295:	83 ec 18             	sub    $0x18,%esp
80105298:	83 ec 0c             	sub    $0xc,%esp
8010529b:	68 b3 91 10 80       	push   $0x801091b3
801052a0:	e8 5b b1 ff ff       	call   80100400 <cprintf>
801052a5:	83 c4 10             	add    $0x10,%esp
801052a8:	c7 45 f4 f4 4d 11 80 	movl   $0x80114df4,-0xc(%ebp)
801052af:	eb 2f                	jmp    801052e0 <printPtable+0x4e>
801052b1:	8b 45 f4             	mov    -0xc(%ebp),%eax
801052b4:	8b 40 0c             	mov    0xc(%eax),%eax
801052b7:	85 c0                	test   %eax,%eax
801052b9:	74 1e                	je     801052d9 <printPtable+0x47>
801052bb:	8b 45 f4             	mov    -0xc(%ebp),%eax
801052be:	8b 50 0c             	mov    0xc(%eax),%edx
801052c1:	8b 45 f4             	mov    -0xc(%ebp),%eax
801052c4:	8b 40 10             	mov    0x10(%eax),%eax
801052c7:	83 ec 04             	sub    $0x4,%esp
801052ca:	52                   	push   %edx
801052cb:	50                   	push   %eax
801052cc:	68 c5 91 10 80       	push   $0x801091c5
801052d1:	e8 2a b1 ff ff       	call   80100400 <cprintf>
801052d6:	83 c4 10             	add    $0x10,%esp
801052d9:	81 45 f4 14 01 00 00 	addl   $0x114,-0xc(%ebp)
801052e0:	81 7d f4 f4 92 11 80 	cmpl   $0x801192f4,-0xc(%ebp)
801052e7:	72 c8                	jb     801052b1 <printPtable+0x1f>
801052e9:	83 ec 0c             	sub    $0xc,%esp
801052ec:	68 de 91 10 80       	push   $0x801091de
801052f1:	e8 0a b1 ff ff       	call   80100400 <cprintf>
801052f6:	83 c4 10             	add    $0x10,%esp
801052f9:	90                   	nop
801052fa:	c9                   	leave  
801052fb:	c3                   	ret    

801052fc <initsleeplock>:
801052fc:	55                   	push   %ebp
801052fd:	89 e5                	mov    %esp,%ebp
801052ff:	83 ec 08             	sub    $0x8,%esp
80105302:	8b 45 08             	mov    0x8(%ebp),%eax
80105305:	83 c0 04             	add    $0x4,%eax
80105308:	83 ec 08             	sub    $0x8,%esp
8010530b:	68 1e 92 10 80       	push   $0x8010921e
80105310:	50                   	push   %eax
80105311:	e8 43 01 00 00       	call   80105459 <initlock>
80105316:	83 c4 10             	add    $0x10,%esp
80105319:	8b 45 08             	mov    0x8(%ebp),%eax
8010531c:	8b 55 0c             	mov    0xc(%ebp),%edx
8010531f:	89 50 38             	mov    %edx,0x38(%eax)
80105322:	8b 45 08             	mov    0x8(%ebp),%eax
80105325:	c7 00 00 00 00 00    	movl   $0x0,(%eax)
8010532b:	8b 45 08             	mov    0x8(%ebp),%eax
8010532e:	c7 40 3c 00 00 00 00 	movl   $0x0,0x3c(%eax)
80105335:	90                   	nop
80105336:	c9                   	leave  
80105337:	c3                   	ret    

80105338 <acquiresleep>:
80105338:	55                   	push   %ebp
80105339:	89 e5                	mov    %esp,%ebp
8010533b:	83 ec 08             	sub    $0x8,%esp
8010533e:	8b 45 08             	mov    0x8(%ebp),%eax
80105341:	83 c0 04             	add    $0x4,%eax
80105344:	83 ec 0c             	sub    $0xc,%esp
80105347:	50                   	push   %eax
80105348:	e8 2e 01 00 00       	call   8010547b <acquire>
8010534d:	83 c4 10             	add    $0x10,%esp
80105350:	eb 15                	jmp    80105367 <acquiresleep+0x2f>
80105352:	8b 45 08             	mov    0x8(%ebp),%eax
80105355:	83 c0 04             	add    $0x4,%eax
80105358:	83 ec 08             	sub    $0x8,%esp
8010535b:	50                   	push   %eax
8010535c:	ff 75 08             	pushl  0x8(%ebp)
8010535f:	e8 93 f9 ff ff       	call   80104cf7 <sleep>
80105364:	83 c4 10             	add    $0x10,%esp
80105367:	8b 45 08             	mov    0x8(%ebp),%eax
8010536a:	8b 00                	mov    (%eax),%eax
8010536c:	85 c0                	test   %eax,%eax
8010536e:	75 e2                	jne    80105352 <acquiresleep+0x1a>
80105370:	8b 45 08             	mov    0x8(%ebp),%eax
80105373:	c7 00 01 00 00 00    	movl   $0x1,(%eax)
80105379:	e8 88 ef ff ff       	call   80104306 <myproc>
8010537e:	8b 50 10             	mov    0x10(%eax),%edx
80105381:	8b 45 08             	mov    0x8(%ebp),%eax
80105384:	89 50 3c             	mov    %edx,0x3c(%eax)
80105387:	8b 45 08             	mov    0x8(%ebp),%eax
8010538a:	83 c0 04             	add    $0x4,%eax
8010538d:	83 ec 0c             	sub    $0xc,%esp
80105390:	50                   	push   %eax
80105391:	e8 53 01 00 00       	call   801054e9 <release>
80105396:	83 c4 10             	add    $0x10,%esp
80105399:	90                   	nop
8010539a:	c9                   	leave  
8010539b:	c3                   	ret    

8010539c <releasesleep>:
8010539c:	55                   	push   %ebp
8010539d:	89 e5                	mov    %esp,%ebp
8010539f:	83 ec 08             	sub    $0x8,%esp
801053a2:	8b 45 08             	mov    0x8(%ebp),%eax
801053a5:	83 c0 04             	add    $0x4,%eax
801053a8:	83 ec 0c             	sub    $0xc,%esp
801053ab:	50                   	push   %eax
801053ac:	e8 ca 00 00 00       	call   8010547b <acquire>
801053b1:	83 c4 10             	add    $0x10,%esp
801053b4:	8b 45 08             	mov    0x8(%ebp),%eax
801053b7:	c7 00 00 00 00 00    	movl   $0x0,(%eax)
801053bd:	8b 45 08             	mov    0x8(%ebp),%eax
801053c0:	c7 40 3c 00 00 00 00 	movl   $0x0,0x3c(%eax)
801053c7:	83 ec 0c             	sub    $0xc,%esp
801053ca:	ff 75 08             	pushl  0x8(%ebp)
801053cd:	e8 62 fa ff ff       	call   80104e34 <wakeup>
801053d2:	83 c4 10             	add    $0x10,%esp
801053d5:	8b 45 08             	mov    0x8(%ebp),%eax
801053d8:	83 c0 04             	add    $0x4,%eax
801053db:	83 ec 0c             	sub    $0xc,%esp
801053de:	50                   	push   %eax
801053df:	e8 05 01 00 00       	call   801054e9 <release>
801053e4:	83 c4 10             	add    $0x10,%esp
801053e7:	90                   	nop
801053e8:	c9                   	leave  
801053e9:	c3                   	ret    

801053ea <holdingsleep>:
801053ea:	55                   	push   %ebp
801053eb:	89 e5                	mov    %esp,%ebp
801053ed:	83 ec 18             	sub    $0x18,%esp
801053f0:	8b 45 08             	mov    0x8(%ebp),%eax
801053f3:	83 c0 04             	add    $0x4,%eax
801053f6:	83 ec 0c             	sub    $0xc,%esp
801053f9:	50                   	push   %eax
801053fa:	e8 7c 00 00 00       	call   8010547b <acquire>
801053ff:	83 c4 10             	add    $0x10,%esp
80105402:	8b 45 08             	mov    0x8(%ebp),%eax
80105405:	8b 00                	mov    (%eax),%eax
80105407:	89 45 f4             	mov    %eax,-0xc(%ebp)
8010540a:	8b 45 08             	mov    0x8(%ebp),%eax
8010540d:	83 c0 04             	add    $0x4,%eax
80105410:	83 ec 0c             	sub    $0xc,%esp
80105413:	50                   	push   %eax
80105414:	e8 d0 00 00 00       	call   801054e9 <release>
80105419:	83 c4 10             	add    $0x10,%esp
8010541c:	8b 45 f4             	mov    -0xc(%ebp),%eax
8010541f:	c9                   	leave  
80105420:	c3                   	ret    

80105421 <readeflags>:
80105421:	55                   	push   %ebp
80105422:	89 e5                	mov    %esp,%ebp
80105424:	83 ec 10             	sub    $0x10,%esp
80105427:	9c                   	pushf  
80105428:	58                   	pop    %eax
80105429:	89 45 fc             	mov    %eax,-0x4(%ebp)
8010542c:	8b 45 fc             	mov    -0x4(%ebp),%eax
8010542f:	c9                   	leave  
80105430:	c3                   	ret    

80105431 <cli>:
80105431:	55                   	push   %ebp
80105432:	89 e5                	mov    %esp,%ebp
80105434:	fa                   	cli    
80105435:	90                   	nop
80105436:	5d                   	pop    %ebp
80105437:	c3                   	ret    

80105438 <sti>:
80105438:	55                   	push   %ebp
80105439:	89 e5                	mov    %esp,%ebp
8010543b:	fb                   	sti    
8010543c:	90                   	nop
8010543d:	5d                   	pop    %ebp
8010543e:	c3                   	ret    

8010543f <xchg>:
8010543f:	55                   	push   %ebp
80105440:	89 e5                	mov    %esp,%ebp
80105442:	83 ec 10             	sub    $0x10,%esp
80105445:	8b 55 08             	mov    0x8(%ebp),%edx
80105448:	8b 45 0c             	mov    0xc(%ebp),%eax
8010544b:	8b 4d 08             	mov    0x8(%ebp),%ecx
8010544e:	f0 87 02             	lock xchg %eax,(%edx)
80105451:	89 45 fc             	mov    %eax,-0x4(%ebp)
80105454:	8b 45 fc             	mov    -0x4(%ebp),%eax
80105457:	c9                   	leave  
80105458:	c3                   	ret    

80105459 <initlock>:
80105459:	55                   	push   %ebp
8010545a:	89 e5                	mov    %esp,%ebp
8010545c:	8b 45 08             	mov    0x8(%ebp),%eax
8010545f:	8b 55 0c             	mov    0xc(%ebp),%edx
80105462:	89 50 04             	mov    %edx,0x4(%eax)
80105465:	8b 45 08             	mov    0x8(%ebp),%eax
80105468:	c7 00 00 00 00 00    	movl   $0x0,(%eax)
8010546e:	8b 45 08             	mov    0x8(%ebp),%eax
80105471:	c7 40 08 00 00 00 00 	movl   $0x0,0x8(%eax)
80105478:	90                   	nop
80105479:	5d                   	pop    %ebp
8010547a:	c3                   	ret    

8010547b <acquire>:
8010547b:	55                   	push   %ebp
8010547c:	89 e5                	mov    %esp,%ebp
8010547e:	53                   	push   %ebx
8010547f:	83 ec 04             	sub    $0x4,%esp
80105482:	e8 5f 01 00 00       	call   801055e6 <pushcli>
80105487:	8b 45 08             	mov    0x8(%ebp),%eax
8010548a:	83 ec 0c             	sub    $0xc,%esp
8010548d:	50                   	push   %eax
8010548e:	e8 22 01 00 00       	call   801055b5 <holding>
80105493:	83 c4 10             	add    $0x10,%esp
80105496:	85 c0                	test   %eax,%eax
80105498:	74 0d                	je     801054a7 <acquire+0x2c>
8010549a:	83 ec 0c             	sub    $0xc,%esp
8010549d:	68 29 92 10 80       	push   $0x80109229
801054a2:	e8 f9 b0 ff ff       	call   801005a0 <panic>
801054a7:	90                   	nop
801054a8:	8b 45 08             	mov    0x8(%ebp),%eax
801054ab:	83 ec 08             	sub    $0x8,%esp
801054ae:	6a 01                	push   $0x1
801054b0:	50                   	push   %eax
801054b1:	e8 89 ff ff ff       	call   8010543f <xchg>
801054b6:	83 c4 10             	add    $0x10,%esp
801054b9:	85 c0                	test   %eax,%eax
801054bb:	75 eb                	jne    801054a8 <acquire+0x2d>
801054bd:	f0 83 0c 24 00       	lock orl $0x0,(%esp)
801054c2:	8b 5d 08             	mov    0x8(%ebp),%ebx
801054c5:	e8 c4 ed ff ff       	call   8010428e <mycpu>
801054ca:	89 43 08             	mov    %eax,0x8(%ebx)
801054cd:	8b 45 08             	mov    0x8(%ebp),%eax
801054d0:	83 c0 0c             	add    $0xc,%eax
801054d3:	83 ec 08             	sub    $0x8,%esp
801054d6:	50                   	push   %eax
801054d7:	8d 45 08             	lea    0x8(%ebp),%eax
801054da:	50                   	push   %eax
801054db:	e8 5b 00 00 00       	call   8010553b <getcallerpcs>
801054e0:	83 c4 10             	add    $0x10,%esp
801054e3:	90                   	nop
801054e4:	8b 5d fc             	mov    -0x4(%ebp),%ebx
801054e7:	c9                   	leave  
801054e8:	c3                   	ret    

801054e9 <release>:
801054e9:	55                   	push   %ebp
801054ea:	89 e5                	mov    %esp,%ebp
801054ec:	83 ec 08             	sub    $0x8,%esp
801054ef:	83 ec 0c             	sub    $0xc,%esp
801054f2:	ff 75 08             	pushl  0x8(%ebp)
801054f5:	e8 bb 00 00 00       	call   801055b5 <holding>
801054fa:	83 c4 10             	add    $0x10,%esp
801054fd:	85 c0                	test   %eax,%eax
801054ff:	75 0d                	jne    8010550e <release+0x25>
80105501:	83 ec 0c             	sub    $0xc,%esp
80105504:	68 31 92 10 80       	push   $0x80109231
80105509:	e8 92 b0 ff ff       	call   801005a0 <panic>
8010550e:	8b 45 08             	mov    0x8(%ebp),%eax
80105511:	c7 40 0c 00 00 00 00 	movl   $0x0,0xc(%eax)
80105518:	8b 45 08             	mov    0x8(%ebp),%eax
8010551b:	c7 40 08 00 00 00 00 	movl   $0x0,0x8(%eax)
80105522:	f0 83 0c 24 00       	lock orl $0x0,(%esp)
80105527:	8b 45 08             	mov    0x8(%ebp),%eax
8010552a:	8b 55 08             	mov    0x8(%ebp),%edx
8010552d:	c7 00 00 00 00 00    	movl   $0x0,(%eax)
80105533:	e8 fc 00 00 00       	call   80105634 <popcli>
80105538:	90                   	nop
80105539:	c9                   	leave  
8010553a:	c3                   	ret    

8010553b <getcallerpcs>:
8010553b:	55                   	push   %ebp
8010553c:	89 e5                	mov    %esp,%ebp
8010553e:	83 ec 10             	sub    $0x10,%esp
80105541:	8b 45 08             	mov    0x8(%ebp),%eax
80105544:	83 e8 08             	sub    $0x8,%eax
80105547:	89 45 fc             	mov    %eax,-0x4(%ebp)
8010554a:	c7 45 f8 00 00 00 00 	movl   $0x0,-0x8(%ebp)
80105551:	eb 38                	jmp    8010558b <getcallerpcs+0x50>
80105553:	83 7d fc 00          	cmpl   $0x0,-0x4(%ebp)
80105557:	74 53                	je     801055ac <getcallerpcs+0x71>
80105559:	81 7d fc ff ff ff 7f 	cmpl   $0x7fffffff,-0x4(%ebp)
80105560:	76 4a                	jbe    801055ac <getcallerpcs+0x71>
80105562:	83 7d fc ff          	cmpl   $0xffffffff,-0x4(%ebp)
80105566:	74 44                	je     801055ac <getcallerpcs+0x71>
80105568:	8b 45 f8             	mov    -0x8(%ebp),%eax
8010556b:	8d 14 85 00 00 00 00 	lea    0x0(,%eax,4),%edx
80105572:	8b 45 0c             	mov    0xc(%ebp),%eax
80105575:	01 c2                	add    %eax,%edx
80105577:	8b 45 fc             	mov    -0x4(%ebp),%eax
8010557a:	8b 40 04             	mov    0x4(%eax),%eax
8010557d:	89 02                	mov    %eax,(%edx)
8010557f:	8b 45 fc             	mov    -0x4(%ebp),%eax
80105582:	8b 00                	mov    (%eax),%eax
80105584:	89 45 fc             	mov    %eax,-0x4(%ebp)
80105587:	83 45 f8 01          	addl   $0x1,-0x8(%ebp)
8010558b:	83 7d f8 09          	cmpl   $0x9,-0x8(%ebp)
8010558f:	7e c2                	jle    80105553 <getcallerpcs+0x18>
80105591:	eb 19                	jmp    801055ac <getcallerpcs+0x71>
80105593:	8b 45 f8             	mov    -0x8(%ebp),%eax
80105596:	8d 14 85 00 00 00 00 	lea    0x0(,%eax,4),%edx
8010559d:	8b 45 0c             	mov    0xc(%ebp),%eax
801055a0:	01 d0                	add    %edx,%eax
801055a2:	c7 00 00 00 00 00    	movl   $0x0,(%eax)
801055a8:	83 45 f8 01          	addl   $0x1,-0x8(%ebp)
801055ac:	83 7d f8 09          	cmpl   $0x9,-0x8(%ebp)
801055b0:	7e e1                	jle    80105593 <getcallerpcs+0x58>
801055b2:	90                   	nop
801055b3:	c9                   	leave  
801055b4:	c3                   	ret    

801055b5 <holding>:
801055b5:	55                   	push   %ebp
801055b6:	89 e5                	mov    %esp,%ebp
801055b8:	53                   	push   %ebx
801055b9:	83 ec 04             	sub    $0x4,%esp
801055bc:	8b 45 08             	mov    0x8(%ebp),%eax
801055bf:	8b 00                	mov    (%eax),%eax
801055c1:	85 c0                	test   %eax,%eax
801055c3:	74 16                	je     801055db <holding+0x26>
801055c5:	8b 45 08             	mov    0x8(%ebp),%eax
801055c8:	8b 58 08             	mov    0x8(%eax),%ebx
801055cb:	e8 be ec ff ff       	call   8010428e <mycpu>
801055d0:	39 c3                	cmp    %eax,%ebx
801055d2:	75 07                	jne    801055db <holding+0x26>
801055d4:	b8 01 00 00 00       	mov    $0x1,%eax
801055d9:	eb 05                	jmp    801055e0 <holding+0x2b>
801055db:	b8 00 00 00 00       	mov    $0x0,%eax
801055e0:	83 c4 04             	add    $0x4,%esp
801055e3:	5b                   	pop    %ebx
801055e4:	5d                   	pop    %ebp
801055e5:	c3                   	ret    

801055e6 <pushcli>:
801055e6:	55                   	push   %ebp
801055e7:	89 e5                	mov    %esp,%ebp
801055e9:	83 ec 18             	sub    $0x18,%esp
801055ec:	e8 30 fe ff ff       	call   80105421 <readeflags>
801055f1:	89 45 f4             	mov    %eax,-0xc(%ebp)
801055f4:	e8 38 fe ff ff       	call   80105431 <cli>
801055f9:	e8 90 ec ff ff       	call   8010428e <mycpu>
801055fe:	8b 80 a4 00 00 00    	mov    0xa4(%eax),%eax
80105604:	85 c0                	test   %eax,%eax
80105606:	75 15                	jne    8010561d <pushcli+0x37>
80105608:	e8 81 ec ff ff       	call   8010428e <mycpu>
8010560d:	89 c2                	mov    %eax,%edx
8010560f:	8b 45 f4             	mov    -0xc(%ebp),%eax
80105612:	25 00 02 00 00       	and    $0x200,%eax
80105617:	89 82 a8 00 00 00    	mov    %eax,0xa8(%edx)
8010561d:	e8 6c ec ff ff       	call   8010428e <mycpu>
80105622:	8b 90 a4 00 00 00    	mov    0xa4(%eax),%edx
80105628:	83 c2 01             	add    $0x1,%edx
8010562b:	89 90 a4 00 00 00    	mov    %edx,0xa4(%eax)
80105631:	90                   	nop
80105632:	c9                   	leave  
80105633:	c3                   	ret    

80105634 <popcli>:
80105634:	55                   	push   %ebp
80105635:	89 e5                	mov    %esp,%ebp
80105637:	83 ec 08             	sub    $0x8,%esp
8010563a:	e8 e2 fd ff ff       	call   80105421 <readeflags>
8010563f:	25 00 02 00 00       	and    $0x200,%eax
80105644:	85 c0                	test   %eax,%eax
80105646:	74 0d                	je     80105655 <popcli+0x21>
80105648:	83 ec 0c             	sub    $0xc,%esp
8010564b:	68 39 92 10 80       	push   $0x80109239
80105650:	e8 4b af ff ff       	call   801005a0 <panic>
80105655:	e8 34 ec ff ff       	call   8010428e <mycpu>
8010565a:	8b 90 a4 00 00 00    	mov    0xa4(%eax),%edx
80105660:	83 ea 01             	sub    $0x1,%edx
80105663:	89 90 a4 00 00 00    	mov    %edx,0xa4(%eax)
80105669:	8b 80 a4 00 00 00    	mov    0xa4(%eax),%eax
8010566f:	85 c0                	test   %eax,%eax
80105671:	79 0d                	jns    80105680 <popcli+0x4c>
80105673:	83 ec 0c             	sub    $0xc,%esp
80105676:	68 50 92 10 80       	push   $0x80109250
8010567b:	e8 20 af ff ff       	call   801005a0 <panic>
80105680:	e8 09 ec ff ff       	call   8010428e <mycpu>
80105685:	8b 80 a4 00 00 00    	mov    0xa4(%eax),%eax
8010568b:	85 c0                	test   %eax,%eax
8010568d:	75 14                	jne    801056a3 <popcli+0x6f>
8010568f:	e8 fa eb ff ff       	call   8010428e <mycpu>
80105694:	8b 80 a8 00 00 00    	mov    0xa8(%eax),%eax
8010569a:	85 c0                	test   %eax,%eax
8010569c:	74 05                	je     801056a3 <popcli+0x6f>
8010569e:	e8 95 fd ff ff       	call   80105438 <sti>
801056a3:	90                   	nop
801056a4:	c9                   	leave  
801056a5:	c3                   	ret    

801056a6 <stosb>:
801056a6:	55                   	push   %ebp
801056a7:	89 e5                	mov    %esp,%ebp
801056a9:	57                   	push   %edi
801056aa:	53                   	push   %ebx
801056ab:	8b 4d 08             	mov    0x8(%ebp),%ecx
801056ae:	8b 55 10             	mov    0x10(%ebp),%edx
801056b1:	8b 45 0c             	mov    0xc(%ebp),%eax
801056b4:	89 cb                	mov    %ecx,%ebx
801056b6:	89 df                	mov    %ebx,%edi
801056b8:	89 d1                	mov    %edx,%ecx
801056ba:	fc                   	cld    
801056bb:	f3 aa                	rep stos %al,%es:(%edi)
801056bd:	89 ca                	mov    %ecx,%edx
801056bf:	89 fb                	mov    %edi,%ebx
801056c1:	89 5d 08             	mov    %ebx,0x8(%ebp)
801056c4:	89 55 10             	mov    %edx,0x10(%ebp)
801056c7:	90                   	nop
801056c8:	5b                   	pop    %ebx
801056c9:	5f                   	pop    %edi
801056ca:	5d                   	pop    %ebp
801056cb:	c3                   	ret    

801056cc <stosl>:
801056cc:	55                   	push   %ebp
801056cd:	89 e5                	mov    %esp,%ebp
801056cf:	57                   	push   %edi
801056d0:	53                   	push   %ebx
801056d1:	8b 4d 08             	mov    0x8(%ebp),%ecx
801056d4:	8b 55 10             	mov    0x10(%ebp),%edx
801056d7:	8b 45 0c             	mov    0xc(%ebp),%eax
801056da:	89 cb                	mov    %ecx,%ebx
801056dc:	89 df                	mov    %ebx,%edi
801056de:	89 d1                	mov    %edx,%ecx
801056e0:	fc                   	cld    
801056e1:	f3 ab                	rep stos %eax,%es:(%edi)
801056e3:	89 ca                	mov    %ecx,%edx
801056e5:	89 fb                	mov    %edi,%ebx
801056e7:	89 5d 08             	mov    %ebx,0x8(%ebp)
801056ea:	89 55 10             	mov    %edx,0x10(%ebp)
801056ed:	90                   	nop
801056ee:	5b                   	pop    %ebx
801056ef:	5f                   	pop    %edi
801056f0:	5d                   	pop    %ebp
801056f1:	c3                   	ret    

801056f2 <memset>:
801056f2:	55                   	push   %ebp
801056f3:	89 e5                	mov    %esp,%ebp
801056f5:	8b 45 08             	mov    0x8(%ebp),%eax
801056f8:	83 e0 03             	and    $0x3,%eax
801056fb:	85 c0                	test   %eax,%eax
801056fd:	75 43                	jne    80105742 <memset+0x50>
801056ff:	8b 45 10             	mov    0x10(%ebp),%eax
80105702:	83 e0 03             	and    $0x3,%eax
80105705:	85 c0                	test   %eax,%eax
80105707:	75 39                	jne    80105742 <memset+0x50>
80105709:	81 65 0c ff 00 00 00 	andl   $0xff,0xc(%ebp)
80105710:	8b 45 10             	mov    0x10(%ebp),%eax
80105713:	c1 e8 02             	shr    $0x2,%eax
80105716:	89 c1                	mov    %eax,%ecx
80105718:	8b 45 0c             	mov    0xc(%ebp),%eax
8010571b:	c1 e0 18             	shl    $0x18,%eax
8010571e:	89 c2                	mov    %eax,%edx
80105720:	8b 45 0c             	mov    0xc(%ebp),%eax
80105723:	c1 e0 10             	shl    $0x10,%eax
80105726:	09 c2                	or     %eax,%edx
80105728:	8b 45 0c             	mov    0xc(%ebp),%eax
8010572b:	c1 e0 08             	shl    $0x8,%eax
8010572e:	09 d0                	or     %edx,%eax
80105730:	0b 45 0c             	or     0xc(%ebp),%eax
80105733:	51                   	push   %ecx
80105734:	50                   	push   %eax
80105735:	ff 75 08             	pushl  0x8(%ebp)
80105738:	e8 8f ff ff ff       	call   801056cc <stosl>
8010573d:	83 c4 0c             	add    $0xc,%esp
80105740:	eb 12                	jmp    80105754 <memset+0x62>
80105742:	8b 45 10             	mov    0x10(%ebp),%eax
80105745:	50                   	push   %eax
80105746:	ff 75 0c             	pushl  0xc(%ebp)
80105749:	ff 75 08             	pushl  0x8(%ebp)
8010574c:	e8 55 ff ff ff       	call   801056a6 <stosb>
80105751:	83 c4 0c             	add    $0xc,%esp
80105754:	8b 45 08             	mov    0x8(%ebp),%eax
80105757:	c9                   	leave  
80105758:	c3                   	ret    

80105759 <memcmp>:
80105759:	55                   	push   %ebp
8010575a:	89 e5                	mov    %esp,%ebp
8010575c:	83 ec 10             	sub    $0x10,%esp
8010575f:	8b 45 08             	mov    0x8(%ebp),%eax
80105762:	89 45 fc             	mov    %eax,-0x4(%ebp)
80105765:	8b 45 0c             	mov    0xc(%ebp),%eax
80105768:	89 45 f8             	mov    %eax,-0x8(%ebp)
8010576b:	eb 30                	jmp    8010579d <memcmp+0x44>
8010576d:	8b 45 fc             	mov    -0x4(%ebp),%eax
80105770:	0f b6 10             	movzbl (%eax),%edx
80105773:	8b 45 f8             	mov    -0x8(%ebp),%eax
80105776:	0f b6 00             	movzbl (%eax),%eax
80105779:	38 c2                	cmp    %al,%dl
8010577b:	74 18                	je     80105795 <memcmp+0x3c>
8010577d:	8b 45 fc             	mov    -0x4(%ebp),%eax
80105780:	0f b6 00             	movzbl (%eax),%eax
80105783:	0f b6 d0             	movzbl %al,%edx
80105786:	8b 45 f8             	mov    -0x8(%ebp),%eax
80105789:	0f b6 00             	movzbl (%eax),%eax
8010578c:	0f b6 c0             	movzbl %al,%eax
8010578f:	29 c2                	sub    %eax,%edx
80105791:	89 d0                	mov    %edx,%eax
80105793:	eb 1a                	jmp    801057af <memcmp+0x56>
80105795:	83 45 fc 01          	addl   $0x1,-0x4(%ebp)
80105799:	83 45 f8 01          	addl   $0x1,-0x8(%ebp)
8010579d:	8b 45 10             	mov    0x10(%ebp),%eax
801057a0:	8d 50 ff             	lea    -0x1(%eax),%edx
801057a3:	89 55 10             	mov    %edx,0x10(%ebp)
801057a6:	85 c0                	test   %eax,%eax
801057a8:	75 c3                	jne    8010576d <memcmp+0x14>
801057aa:	b8 00 00 00 00       	mov    $0x0,%eax
801057af:	c9                   	leave  
801057b0:	c3                   	ret    

801057b1 <memmove>:
801057b1:	55                   	push   %ebp
801057b2:	89 e5                	mov    %esp,%ebp
801057b4:	83 ec 10             	sub    $0x10,%esp
801057b7:	8b 45 0c             	mov    0xc(%ebp),%eax
801057ba:	89 45 fc             	mov    %eax,-0x4(%ebp)
801057bd:	8b 45 08             	mov    0x8(%ebp),%eax
801057c0:	89 45 f8             	mov    %eax,-0x8(%ebp)
801057c3:	8b 45 fc             	mov    -0x4(%ebp),%eax
801057c6:	3b 45 f8             	cmp    -0x8(%ebp),%eax
801057c9:	73 54                	jae    8010581f <memmove+0x6e>
801057cb:	8b 55 fc             	mov    -0x4(%ebp),%edx
801057ce:	8b 45 10             	mov    0x10(%ebp),%eax
801057d1:	01 d0                	add    %edx,%eax
801057d3:	3b 45 f8             	cmp    -0x8(%ebp),%eax
801057d6:	76 47                	jbe    8010581f <memmove+0x6e>
801057d8:	8b 45 10             	mov    0x10(%ebp),%eax
801057db:	01 45 fc             	add    %eax,-0x4(%ebp)
801057de:	8b 45 10             	mov    0x10(%ebp),%eax
801057e1:	01 45 f8             	add    %eax,-0x8(%ebp)
801057e4:	eb 13                	jmp    801057f9 <memmove+0x48>
801057e6:	83 6d f8 01          	subl   $0x1,-0x8(%ebp)
801057ea:	83 6d fc 01          	subl   $0x1,-0x4(%ebp)
801057ee:	8b 45 fc             	mov    -0x4(%ebp),%eax
801057f1:	0f b6 10             	movzbl (%eax),%edx
801057f4:	8b 45 f8             	mov    -0x8(%ebp),%eax
801057f7:	88 10                	mov    %dl,(%eax)
801057f9:	8b 45 10             	mov    0x10(%ebp),%eax
801057fc:	8d 50 ff             	lea    -0x1(%eax),%edx
801057ff:	89 55 10             	mov    %edx,0x10(%ebp)
80105802:	85 c0                	test   %eax,%eax
80105804:	75 e0                	jne    801057e6 <memmove+0x35>
80105806:	eb 24                	jmp    8010582c <memmove+0x7b>
80105808:	8b 45 f8             	mov    -0x8(%ebp),%eax
8010580b:	8d 50 01             	lea    0x1(%eax),%edx
8010580e:	89 55 f8             	mov    %edx,-0x8(%ebp)
80105811:	8b 55 fc             	mov    -0x4(%ebp),%edx
80105814:	8d 4a 01             	lea    0x1(%edx),%ecx
80105817:	89 4d fc             	mov    %ecx,-0x4(%ebp)
8010581a:	0f b6 12             	movzbl (%edx),%edx
8010581d:	88 10                	mov    %dl,(%eax)
8010581f:	8b 45 10             	mov    0x10(%ebp),%eax
80105822:	8d 50 ff             	lea    -0x1(%eax),%edx
80105825:	89 55 10             	mov    %edx,0x10(%ebp)
80105828:	85 c0                	test   %eax,%eax
8010582a:	75 dc                	jne    80105808 <memmove+0x57>
8010582c:	8b 45 08             	mov    0x8(%ebp),%eax
8010582f:	c9                   	leave  
80105830:	c3                   	ret    

80105831 <memcpy>:
80105831:	55                   	push   %ebp
80105832:	89 e5                	mov    %esp,%ebp
80105834:	ff 75 10             	pushl  0x10(%ebp)
80105837:	ff 75 0c             	pushl  0xc(%ebp)
8010583a:	ff 75 08             	pushl  0x8(%ebp)
8010583d:	e8 6f ff ff ff       	call   801057b1 <memmove>
80105842:	83 c4 0c             	add    $0xc,%esp
80105845:	c9                   	leave  
80105846:	c3                   	ret    

80105847 <strncmp>:
80105847:	55                   	push   %ebp
80105848:	89 e5                	mov    %esp,%ebp
8010584a:	eb 0c                	jmp    80105858 <strncmp+0x11>
8010584c:	83 6d 10 01          	subl   $0x1,0x10(%ebp)
80105850:	83 45 08 01          	addl   $0x1,0x8(%ebp)
80105854:	83 45 0c 01          	addl   $0x1,0xc(%ebp)
80105858:	83 7d 10 00          	cmpl   $0x0,0x10(%ebp)
8010585c:	74 1a                	je     80105878 <strncmp+0x31>
8010585e:	8b 45 08             	mov    0x8(%ebp),%eax
80105861:	0f b6 00             	movzbl (%eax),%eax
80105864:	84 c0                	test   %al,%al
80105866:	74 10                	je     80105878 <strncmp+0x31>
80105868:	8b 45 08             	mov    0x8(%ebp),%eax
8010586b:	0f b6 10             	movzbl (%eax),%edx
8010586e:	8b 45 0c             	mov    0xc(%ebp),%eax
80105871:	0f b6 00             	movzbl (%eax),%eax
80105874:	38 c2                	cmp    %al,%dl
80105876:	74 d4                	je     8010584c <strncmp+0x5>
80105878:	83 7d 10 00          	cmpl   $0x0,0x10(%ebp)
8010587c:	75 07                	jne    80105885 <strncmp+0x3e>
8010587e:	b8 00 00 00 00       	mov    $0x0,%eax
80105883:	eb 16                	jmp    8010589b <strncmp+0x54>
80105885:	8b 45 08             	mov    0x8(%ebp),%eax
80105888:	0f b6 00             	movzbl (%eax),%eax
8010588b:	0f b6 d0             	movzbl %al,%edx
8010588e:	8b 45 0c             	mov    0xc(%ebp),%eax
80105891:	0f b6 00             	movzbl (%eax),%eax
80105894:	0f b6 c0             	movzbl %al,%eax
80105897:	29 c2                	sub    %eax,%edx
80105899:	89 d0                	mov    %edx,%eax
8010589b:	5d                   	pop    %ebp
8010589c:	c3                   	ret    

8010589d <strncpy>:
8010589d:	55                   	push   %ebp
8010589e:	89 e5                	mov    %esp,%ebp
801058a0:	83 ec 10             	sub    $0x10,%esp
801058a3:	8b 45 08             	mov    0x8(%ebp),%eax
801058a6:	89 45 fc             	mov    %eax,-0x4(%ebp)
801058a9:	90                   	nop
801058aa:	8b 45 10             	mov    0x10(%ebp),%eax
801058ad:	8d 50 ff             	lea    -0x1(%eax),%edx
801058b0:	89 55 10             	mov    %edx,0x10(%ebp)
801058b3:	85 c0                	test   %eax,%eax
801058b5:	7e 2c                	jle    801058e3 <strncpy+0x46>
801058b7:	8b 45 08             	mov    0x8(%ebp),%eax
801058ba:	8d 50 01             	lea    0x1(%eax),%edx
801058bd:	89 55 08             	mov    %edx,0x8(%ebp)
801058c0:	8b 55 0c             	mov    0xc(%ebp),%edx
801058c3:	8d 4a 01             	lea    0x1(%edx),%ecx
801058c6:	89 4d 0c             	mov    %ecx,0xc(%ebp)
801058c9:	0f b6 12             	movzbl (%edx),%edx
801058cc:	88 10                	mov    %dl,(%eax)
801058ce:	0f b6 00             	movzbl (%eax),%eax
801058d1:	84 c0                	test   %al,%al
801058d3:	75 d5                	jne    801058aa <strncpy+0xd>
801058d5:	eb 0c                	jmp    801058e3 <strncpy+0x46>
801058d7:	8b 45 08             	mov    0x8(%ebp),%eax
801058da:	8d 50 01             	lea    0x1(%eax),%edx
801058dd:	89 55 08             	mov    %edx,0x8(%ebp)
801058e0:	c6 00 00             	movb   $0x0,(%eax)
801058e3:	8b 45 10             	mov    0x10(%ebp),%eax
801058e6:	8d 50 ff             	lea    -0x1(%eax),%edx
801058e9:	89 55 10             	mov    %edx,0x10(%ebp)
801058ec:	85 c0                	test   %eax,%eax
801058ee:	7f e7                	jg     801058d7 <strncpy+0x3a>
801058f0:	8b 45 fc             	mov    -0x4(%ebp),%eax
801058f3:	c9                   	leave  
801058f4:	c3                   	ret    

801058f5 <safestrcpy>:
801058f5:	55                   	push   %ebp
801058f6:	89 e5                	mov    %esp,%ebp
801058f8:	83 ec 10             	sub    $0x10,%esp
801058fb:	8b 45 08             	mov    0x8(%ebp),%eax
801058fe:	89 45 fc             	mov    %eax,-0x4(%ebp)
80105901:	83 7d 10 00          	cmpl   $0x0,0x10(%ebp)
80105905:	7f 05                	jg     8010590c <safestrcpy+0x17>
80105907:	8b 45 fc             	mov    -0x4(%ebp),%eax
8010590a:	eb 31                	jmp    8010593d <safestrcpy+0x48>
8010590c:	83 6d 10 01          	subl   $0x1,0x10(%ebp)
80105910:	83 7d 10 00          	cmpl   $0x0,0x10(%ebp)
80105914:	7e 1e                	jle    80105934 <safestrcpy+0x3f>
80105916:	8b 45 08             	mov    0x8(%ebp),%eax
80105919:	8d 50 01             	lea    0x1(%eax),%edx
8010591c:	89 55 08             	mov    %edx,0x8(%ebp)
8010591f:	8b 55 0c             	mov    0xc(%ebp),%edx
80105922:	8d 4a 01             	lea    0x1(%edx),%ecx
80105925:	89 4d 0c             	mov    %ecx,0xc(%ebp)
80105928:	0f b6 12             	movzbl (%edx),%edx
8010592b:	88 10                	mov    %dl,(%eax)
8010592d:	0f b6 00             	movzbl (%eax),%eax
80105930:	84 c0                	test   %al,%al
80105932:	75 d8                	jne    8010590c <safestrcpy+0x17>
80105934:	8b 45 08             	mov    0x8(%ebp),%eax
80105937:	c6 00 00             	movb   $0x0,(%eax)
8010593a:	8b 45 fc             	mov    -0x4(%ebp),%eax
8010593d:	c9                   	leave  
8010593e:	c3                   	ret    

8010593f <strlen>:
8010593f:	55                   	push   %ebp
80105940:	89 e5                	mov    %esp,%ebp
80105942:	83 ec 10             	sub    $0x10,%esp
80105945:	c7 45 fc 00 00 00 00 	movl   $0x0,-0x4(%ebp)
8010594c:	eb 04                	jmp    80105952 <strlen+0x13>
8010594e:	83 45 fc 01          	addl   $0x1,-0x4(%ebp)
80105952:	8b 55 fc             	mov    -0x4(%ebp),%edx
80105955:	8b 45 08             	mov    0x8(%ebp),%eax
80105958:	01 d0                	add    %edx,%eax
8010595a:	0f b6 00             	movzbl (%eax),%eax
8010595d:	84 c0                	test   %al,%al
8010595f:	75 ed                	jne    8010594e <strlen+0xf>
80105961:	8b 45 fc             	mov    -0x4(%ebp),%eax
80105964:	c9                   	leave  
80105965:	c3                   	ret    

80105966 <swtch>:
80105966:	8b 44 24 04          	mov    0x4(%esp),%eax
8010596a:	8b 54 24 08          	mov    0x8(%esp),%edx
8010596e:	55                   	push   %ebp
8010596f:	53                   	push   %ebx
80105970:	56                   	push   %esi
80105971:	57                   	push   %edi
80105972:	89 20                	mov    %esp,(%eax)
80105974:	89 d4                	mov    %edx,%esp
80105976:	5f                   	pop    %edi
80105977:	5e                   	pop    %esi
80105978:	5b                   	pop    %ebx
80105979:	5d                   	pop    %ebp
8010597a:	c3                   	ret    

8010597b <fetchint>:
8010597b:	55                   	push   %ebp
8010597c:	89 e5                	mov    %esp,%ebp
8010597e:	83 ec 18             	sub    $0x18,%esp
80105981:	e8 80 e9 ff ff       	call   80104306 <myproc>
80105986:	89 45 f4             	mov    %eax,-0xc(%ebp)
80105989:	8b 45 f4             	mov    -0xc(%ebp),%eax
8010598c:	8b 00                	mov    (%eax),%eax
8010598e:	3b 45 08             	cmp    0x8(%ebp),%eax
80105991:	76 0f                	jbe    801059a2 <fetchint+0x27>
80105993:	8b 45 08             	mov    0x8(%ebp),%eax
80105996:	8d 50 04             	lea    0x4(%eax),%edx
80105999:	8b 45 f4             	mov    -0xc(%ebp),%eax
8010599c:	8b 00                	mov    (%eax),%eax
8010599e:	39 c2                	cmp    %eax,%edx
801059a0:	76 07                	jbe    801059a9 <fetchint+0x2e>
801059a2:	b8 ff ff ff ff       	mov    $0xffffffff,%eax
801059a7:	eb 0f                	jmp    801059b8 <fetchint+0x3d>
801059a9:	8b 45 08             	mov    0x8(%ebp),%eax
801059ac:	8b 10                	mov    (%eax),%edx
801059ae:	8b 45 0c             	mov    0xc(%ebp),%eax
801059b1:	89 10                	mov    %edx,(%eax)
801059b3:	b8 00 00 00 00       	mov    $0x0,%eax
801059b8:	c9                   	leave  
801059b9:	c3                   	ret    

801059ba <fetchstr>:
801059ba:	55                   	push   %ebp
801059bb:	89 e5                	mov    %esp,%ebp
801059bd:	83 ec 18             	sub    $0x18,%esp
801059c0:	e8 41 e9 ff ff       	call   80104306 <myproc>
801059c5:	89 45 f0             	mov    %eax,-0x10(%ebp)
801059c8:	8b 45 f0             	mov    -0x10(%ebp),%eax
801059cb:	8b 00                	mov    (%eax),%eax
801059cd:	3b 45 08             	cmp    0x8(%ebp),%eax
801059d0:	77 07                	ja     801059d9 <fetchstr+0x1f>
801059d2:	b8 ff ff ff ff       	mov    $0xffffffff,%eax
801059d7:	eb 43                	jmp    80105a1c <fetchstr+0x62>
801059d9:	8b 55 08             	mov    0x8(%ebp),%edx
801059dc:	8b 45 0c             	mov    0xc(%ebp),%eax
801059df:	89 10                	mov    %edx,(%eax)
801059e1:	8b 45 f0             	mov    -0x10(%ebp),%eax
801059e4:	8b 00                	mov    (%eax),%eax
801059e6:	89 45 ec             	mov    %eax,-0x14(%ebp)
801059e9:	8b 45 0c             	mov    0xc(%ebp),%eax
801059ec:	8b 00                	mov    (%eax),%eax
801059ee:	89 45 f4             	mov    %eax,-0xc(%ebp)
801059f1:	eb 1c                	jmp    80105a0f <fetchstr+0x55>
801059f3:	8b 45 f4             	mov    -0xc(%ebp),%eax
801059f6:	0f b6 00             	movzbl (%eax),%eax
801059f9:	84 c0                	test   %al,%al
801059fb:	75 0e                	jne    80105a0b <fetchstr+0x51>
801059fd:	8b 55 f4             	mov    -0xc(%ebp),%edx
80105a00:	8b 45 0c             	mov    0xc(%ebp),%eax
80105a03:	8b 00                	mov    (%eax),%eax
80105a05:	29 c2                	sub    %eax,%edx
80105a07:	89 d0                	mov    %edx,%eax
80105a09:	eb 11                	jmp    80105a1c <fetchstr+0x62>
80105a0b:	83 45 f4 01          	addl   $0x1,-0xc(%ebp)
80105a0f:	8b 45 f4             	mov    -0xc(%ebp),%eax
80105a12:	3b 45 ec             	cmp    -0x14(%ebp),%eax
80105a15:	72 dc                	jb     801059f3 <fetchstr+0x39>
80105a17:	b8 ff ff ff ff       	mov    $0xffffffff,%eax
80105a1c:	c9                   	leave  
80105a1d:	c3                   	ret    

80105a1e <argint>:
80105a1e:	55                   	push   %ebp
80105a1f:	89 e5                	mov    %esp,%ebp
80105a21:	83 ec 08             	sub    $0x8,%esp
80105a24:	e8 dd e8 ff ff       	call   80104306 <myproc>
80105a29:	8b 40 18             	mov    0x18(%eax),%eax
80105a2c:	8b 40 44             	mov    0x44(%eax),%eax
80105a2f:	8b 55 08             	mov    0x8(%ebp),%edx
80105a32:	c1 e2 02             	shl    $0x2,%edx
80105a35:	01 d0                	add    %edx,%eax
80105a37:	83 c0 04             	add    $0x4,%eax
80105a3a:	83 ec 08             	sub    $0x8,%esp
80105a3d:	ff 75 0c             	pushl  0xc(%ebp)
80105a40:	50                   	push   %eax
80105a41:	e8 35 ff ff ff       	call   8010597b <fetchint>
80105a46:	83 c4 10             	add    $0x10,%esp
80105a49:	c9                   	leave  
80105a4a:	c3                   	ret    

80105a4b <argptr>:
80105a4b:	55                   	push   %ebp
80105a4c:	89 e5                	mov    %esp,%ebp
80105a4e:	83 ec 18             	sub    $0x18,%esp
80105a51:	e8 b0 e8 ff ff       	call   80104306 <myproc>
80105a56:	89 45 f4             	mov    %eax,-0xc(%ebp)
80105a59:	83 ec 08             	sub    $0x8,%esp
80105a5c:	8d 45 f0             	lea    -0x10(%ebp),%eax
80105a5f:	50                   	push   %eax
80105a60:	ff 75 08             	pushl  0x8(%ebp)
80105a63:	e8 b6 ff ff ff       	call   80105a1e <argint>
80105a68:	83 c4 10             	add    $0x10,%esp
80105a6b:	85 c0                	test   %eax,%eax
80105a6d:	79 07                	jns    80105a76 <argptr+0x2b>
80105a6f:	b8 ff ff ff ff       	mov    $0xffffffff,%eax
80105a74:	eb 3b                	jmp    80105ab1 <argptr+0x66>
80105a76:	83 7d 10 00          	cmpl   $0x0,0x10(%ebp)
80105a7a:	78 1f                	js     80105a9b <argptr+0x50>
80105a7c:	8b 45 f4             	mov    -0xc(%ebp),%eax
80105a7f:	8b 00                	mov    (%eax),%eax
80105a81:	8b 55 f0             	mov    -0x10(%ebp),%edx
80105a84:	39 d0                	cmp    %edx,%eax
80105a86:	76 13                	jbe    80105a9b <argptr+0x50>
80105a88:	8b 45 f0             	mov    -0x10(%ebp),%eax
80105a8b:	89 c2                	mov    %eax,%edx
80105a8d:	8b 45 10             	mov    0x10(%ebp),%eax
80105a90:	01 c2                	add    %eax,%edx
80105a92:	8b 45 f4             	mov    -0xc(%ebp),%eax
80105a95:	8b 00                	mov    (%eax),%eax
80105a97:	39 c2                	cmp    %eax,%edx
80105a99:	76 07                	jbe    80105aa2 <argptr+0x57>
80105a9b:	b8 ff ff ff ff       	mov    $0xffffffff,%eax
80105aa0:	eb 0f                	jmp    80105ab1 <argptr+0x66>
80105aa2:	8b 45 f0             	mov    -0x10(%ebp),%eax
80105aa5:	89 c2                	mov    %eax,%edx
80105aa7:	8b 45 0c             	mov    0xc(%ebp),%eax
80105aaa:	89 10                	mov    %edx,(%eax)
80105aac:	b8 00 00 00 00       	mov    $0x0,%eax
80105ab1:	c9                   	leave  
80105ab2:	c3                   	ret    

80105ab3 <argstr>:
80105ab3:	55                   	push   %ebp
80105ab4:	89 e5                	mov    %esp,%ebp
80105ab6:	83 ec 18             	sub    $0x18,%esp
80105ab9:	83 ec 08             	sub    $0x8,%esp
80105abc:	8d 45 f4             	lea    -0xc(%ebp),%eax
80105abf:	50                   	push   %eax
80105ac0:	ff 75 08             	pushl  0x8(%ebp)
80105ac3:	e8 56 ff ff ff       	call   80105a1e <argint>
80105ac8:	83 c4 10             	add    $0x10,%esp
80105acb:	85 c0                	test   %eax,%eax
80105acd:	79 07                	jns    80105ad6 <argstr+0x23>
80105acf:	b8 ff ff ff ff       	mov    $0xffffffff,%eax
80105ad4:	eb 12                	jmp    80105ae8 <argstr+0x35>
80105ad6:	8b 45 f4             	mov    -0xc(%ebp),%eax
80105ad9:	83 ec 08             	sub    $0x8,%esp
80105adc:	ff 75 0c             	pushl  0xc(%ebp)
80105adf:	50                   	push   %eax
80105ae0:	e8 d5 fe ff ff       	call   801059ba <fetchstr>
80105ae5:	83 c4 10             	add    $0x10,%esp
80105ae8:	c9                   	leave  
80105ae9:	c3                   	ret    

80105aea <syscall>:
80105aea:	55                   	push   %ebp
80105aeb:	89 e5                	mov    %esp,%ebp
80105aed:	53                   	push   %ebx
80105aee:	83 ec 14             	sub    $0x14,%esp
80105af1:	e8 10 e8 ff ff       	call   80104306 <myproc>
80105af6:	89 45 f4             	mov    %eax,-0xc(%ebp)
80105af9:	8b 45 f4             	mov    -0xc(%ebp),%eax
80105afc:	8b 40 18             	mov    0x18(%eax),%eax
80105aff:	8b 40 1c             	mov    0x1c(%eax),%eax
80105b02:	89 45 f0             	mov    %eax,-0x10(%ebp)
80105b05:	83 7d f0 00          	cmpl   $0x0,-0x10(%ebp)
80105b09:	7e 2d                	jle    80105b38 <syscall+0x4e>
80105b0b:	8b 45 f0             	mov    -0x10(%ebp),%eax
80105b0e:	83 f8 1a             	cmp    $0x1a,%eax
80105b11:	77 25                	ja     80105b38 <syscall+0x4e>
80105b13:	8b 45 f0             	mov    -0x10(%ebp),%eax
80105b16:	8b 04 85 20 c0 10 80 	mov    -0x7fef3fe0(,%eax,4),%eax
80105b1d:	85 c0                	test   %eax,%eax
80105b1f:	74 17                	je     80105b38 <syscall+0x4e>
80105b21:	8b 45 f4             	mov    -0xc(%ebp),%eax
80105b24:	8b 58 18             	mov    0x18(%eax),%ebx
80105b27:	8b 45 f0             	mov    -0x10(%ebp),%eax
80105b2a:	8b 04 85 20 c0 10 80 	mov    -0x7fef3fe0(,%eax,4),%eax
80105b31:	ff d0                	call   *%eax
80105b33:	89 43 1c             	mov    %eax,0x1c(%ebx)
80105b36:	eb 2b                	jmp    80105b63 <syscall+0x79>
80105b38:	8b 45 f4             	mov    -0xc(%ebp),%eax
80105b3b:	8d 50 6c             	lea    0x6c(%eax),%edx
80105b3e:	8b 45 f4             	mov    -0xc(%ebp),%eax
80105b41:	8b 40 10             	mov    0x10(%eax),%eax
80105b44:	ff 75 f0             	pushl  -0x10(%ebp)
80105b47:	52                   	push   %edx
80105b48:	50                   	push   %eax
80105b49:	68 57 92 10 80       	push   $0x80109257
80105b4e:	e8 ad a8 ff ff       	call   80100400 <cprintf>
80105b53:	83 c4 10             	add    $0x10,%esp
80105b56:	8b 45 f4             	mov    -0xc(%ebp),%eax
80105b59:	8b 40 18             	mov    0x18(%eax),%eax
80105b5c:	c7 40 1c ff ff ff ff 	movl   $0xffffffff,0x1c(%eax)
80105b63:	90                   	nop
80105b64:	8b 5d fc             	mov    -0x4(%ebp),%ebx
80105b67:	c9                   	leave  
80105b68:	c3                   	ret    

80105b69 <argfd>:
80105b69:	55                   	push   %ebp
80105b6a:	89 e5                	mov    %esp,%ebp
80105b6c:	83 ec 18             	sub    $0x18,%esp
80105b6f:	83 ec 08             	sub    $0x8,%esp
80105b72:	8d 45 f0             	lea    -0x10(%ebp),%eax
80105b75:	50                   	push   %eax
80105b76:	ff 75 08             	pushl  0x8(%ebp)
80105b79:	e8 a0 fe ff ff       	call   80105a1e <argint>
80105b7e:	83 c4 10             	add    $0x10,%esp
80105b81:	85 c0                	test   %eax,%eax
80105b83:	79 07                	jns    80105b8c <argfd+0x23>
80105b85:	b8 ff ff ff ff       	mov    $0xffffffff,%eax
80105b8a:	eb 51                	jmp    80105bdd <argfd+0x74>
80105b8c:	8b 45 f0             	mov    -0x10(%ebp),%eax
80105b8f:	85 c0                	test   %eax,%eax
80105b91:	78 22                	js     80105bb5 <argfd+0x4c>
80105b93:	8b 45 f0             	mov    -0x10(%ebp),%eax
80105b96:	83 f8 0f             	cmp    $0xf,%eax
80105b99:	7f 1a                	jg     80105bb5 <argfd+0x4c>
80105b9b:	e8 66 e7 ff ff       	call   80104306 <myproc>
80105ba0:	89 c2                	mov    %eax,%edx
80105ba2:	8b 45 f0             	mov    -0x10(%ebp),%eax
80105ba5:	83 c0 08             	add    $0x8,%eax
80105ba8:	8b 44 82 08          	mov    0x8(%edx,%eax,4),%eax
80105bac:	89 45 f4             	mov    %eax,-0xc(%ebp)
80105baf:	83 7d f4 00          	cmpl   $0x0,-0xc(%ebp)
80105bb3:	75 07                	jne    80105bbc <argfd+0x53>
80105bb5:	b8 ff ff ff ff       	mov    $0xffffffff,%eax
80105bba:	eb 21                	jmp    80105bdd <argfd+0x74>
80105bbc:	83 7d 0c 00          	cmpl   $0x0,0xc(%ebp)
80105bc0:	74 08                	je     80105bca <argfd+0x61>
80105bc2:	8b 55 f0             	mov    -0x10(%ebp),%edx
80105bc5:	8b 45 0c             	mov    0xc(%ebp),%eax
80105bc8:	89 10                	mov    %edx,(%eax)
80105bca:	83 7d 10 00          	cmpl   $0x0,0x10(%ebp)
80105bce:	74 08                	je     80105bd8 <argfd+0x6f>
80105bd0:	8b 45 10             	mov    0x10(%ebp),%eax
80105bd3:	8b 55 f4             	mov    -0xc(%ebp),%edx
80105bd6:	89 10                	mov    %edx,(%eax)
80105bd8:	b8 00 00 00 00       	mov    $0x0,%eax
80105bdd:	c9                   	leave  
80105bde:	c3                   	ret    

80105bdf <fdalloc>:
80105bdf:	55                   	push   %ebp
80105be0:	89 e5                	mov    %esp,%ebp
80105be2:	83 ec 18             	sub    $0x18,%esp
80105be5:	e8 1c e7 ff ff       	call   80104306 <myproc>
80105bea:	89 45 f0             	mov    %eax,-0x10(%ebp)
80105bed:	c7 45 f4 00 00 00 00 	movl   $0x0,-0xc(%ebp)
80105bf4:	eb 2a                	jmp    80105c20 <fdalloc+0x41>
80105bf6:	8b 45 f0             	mov    -0x10(%ebp),%eax
80105bf9:	8b 55 f4             	mov    -0xc(%ebp),%edx
80105bfc:	83 c2 08             	add    $0x8,%edx
80105bff:	8b 44 90 08          	mov    0x8(%eax,%edx,4),%eax
80105c03:	85 c0                	test   %eax,%eax
80105c05:	75 15                	jne    80105c1c <fdalloc+0x3d>
80105c07:	8b 45 f0             	mov    -0x10(%ebp),%eax
80105c0a:	8b 55 f4             	mov    -0xc(%ebp),%edx
80105c0d:	8d 4a 08             	lea    0x8(%edx),%ecx
80105c10:	8b 55 08             	mov    0x8(%ebp),%edx
80105c13:	89 54 88 08          	mov    %edx,0x8(%eax,%ecx,4)
80105c17:	8b 45 f4             	mov    -0xc(%ebp),%eax
80105c1a:	eb 0f                	jmp    80105c2b <fdalloc+0x4c>
80105c1c:	83 45 f4 01          	addl   $0x1,-0xc(%ebp)
80105c20:	83 7d f4 0f          	cmpl   $0xf,-0xc(%ebp)
80105c24:	7e d0                	jle    80105bf6 <fdalloc+0x17>
80105c26:	b8 ff ff ff ff       	mov    $0xffffffff,%eax
80105c2b:	c9                   	leave  
80105c2c:	c3                   	ret    

80105c2d <sys_dup>:
80105c2d:	55                   	push   %ebp
80105c2e:	89 e5                	mov    %esp,%ebp
80105c30:	83 ec 18             	sub    $0x18,%esp
80105c33:	83 ec 04             	sub    $0x4,%esp
80105c36:	8d 45 f0             	lea    -0x10(%ebp),%eax
80105c39:	50                   	push   %eax
80105c3a:	6a 00                	push   $0x0
80105c3c:	6a 00                	push   $0x0
80105c3e:	e8 26 ff ff ff       	call   80105b69 <argfd>
80105c43:	83 c4 10             	add    $0x10,%esp
80105c46:	85 c0                	test   %eax,%eax
80105c48:	79 07                	jns    80105c51 <sys_dup+0x24>
80105c4a:	b8 ff ff ff ff       	mov    $0xffffffff,%eax
80105c4f:	eb 31                	jmp    80105c82 <sys_dup+0x55>
80105c51:	8b 45 f0             	mov    -0x10(%ebp),%eax
80105c54:	83 ec 0c             	sub    $0xc,%esp
80105c57:	50                   	push   %eax
80105c58:	e8 82 ff ff ff       	call   80105bdf <fdalloc>
80105c5d:	83 c4 10             	add    $0x10,%esp
80105c60:	89 45 f4             	mov    %eax,-0xc(%ebp)
80105c63:	83 7d f4 00          	cmpl   $0x0,-0xc(%ebp)
80105c67:	79 07                	jns    80105c70 <sys_dup+0x43>
80105c69:	b8 ff ff ff ff       	mov    $0xffffffff,%eax
80105c6e:	eb 12                	jmp    80105c82 <sys_dup+0x55>
80105c70:	8b 45 f0             	mov    -0x10(%ebp),%eax
80105c73:	83 ec 0c             	sub    $0xc,%esp
80105c76:	50                   	push   %eax
80105c77:	e8 2c b4 ff ff       	call   801010a8 <filedup>
80105c7c:	83 c4 10             	add    $0x10,%esp
80105c7f:	8b 45 f4             	mov    -0xc(%ebp),%eax
80105c82:	c9                   	leave  
80105c83:	c3                   	ret    

80105c84 <sys_read>:
80105c84:	55                   	push   %ebp
80105c85:	89 e5                	mov    %esp,%ebp
80105c87:	83 ec 18             	sub    $0x18,%esp
80105c8a:	83 ec 04             	sub    $0x4,%esp
80105c8d:	8d 45 f4             	lea    -0xc(%ebp),%eax
80105c90:	50                   	push   %eax
80105c91:	6a 00                	push   $0x0
80105c93:	6a 00                	push   $0x0
80105c95:	e8 cf fe ff ff       	call   80105b69 <argfd>
80105c9a:	83 c4 10             	add    $0x10,%esp
80105c9d:	85 c0                	test   %eax,%eax
80105c9f:	78 2e                	js     80105ccf <sys_read+0x4b>
80105ca1:	83 ec 08             	sub    $0x8,%esp
80105ca4:	8d 45 f0             	lea    -0x10(%ebp),%eax
80105ca7:	50                   	push   %eax
80105ca8:	6a 02                	push   $0x2
80105caa:	e8 6f fd ff ff       	call   80105a1e <argint>
80105caf:	83 c4 10             	add    $0x10,%esp
80105cb2:	85 c0                	test   %eax,%eax
80105cb4:	78 19                	js     80105ccf <sys_read+0x4b>
80105cb6:	8b 45 f0             	mov    -0x10(%ebp),%eax
80105cb9:	83 ec 04             	sub    $0x4,%esp
80105cbc:	50                   	push   %eax
80105cbd:	8d 45 ec             	lea    -0x14(%ebp),%eax
80105cc0:	50                   	push   %eax
80105cc1:	6a 01                	push   $0x1
80105cc3:	e8 83 fd ff ff       	call   80105a4b <argptr>
80105cc8:	83 c4 10             	add    $0x10,%esp
80105ccb:	85 c0                	test   %eax,%eax
80105ccd:	79 07                	jns    80105cd6 <sys_read+0x52>
80105ccf:	b8 ff ff ff ff       	mov    $0xffffffff,%eax
80105cd4:	eb 17                	jmp    80105ced <sys_read+0x69>
80105cd6:	8b 4d f0             	mov    -0x10(%ebp),%ecx
80105cd9:	8b 55 ec             	mov    -0x14(%ebp),%edx
80105cdc:	8b 45 f4             	mov    -0xc(%ebp),%eax
80105cdf:	83 ec 04             	sub    $0x4,%esp
80105ce2:	51                   	push   %ecx
80105ce3:	52                   	push   %edx
80105ce4:	50                   	push   %eax
80105ce5:	e8 4e b5 ff ff       	call   80101238 <fileread>
80105cea:	83 c4 10             	add    $0x10,%esp
80105ced:	c9                   	leave  
80105cee:	c3                   	ret    

80105cef <sys_write>:
80105cef:	55                   	push   %ebp
80105cf0:	89 e5                	mov    %esp,%ebp
80105cf2:	83 ec 18             	sub    $0x18,%esp
80105cf5:	83 ec 04             	sub    $0x4,%esp
80105cf8:	8d 45 f4             	lea    -0xc(%ebp),%eax
80105cfb:	50                   	push   %eax
80105cfc:	6a 00                	push   $0x0
80105cfe:	6a 00                	push   $0x0
80105d00:	e8 64 fe ff ff       	call   80105b69 <argfd>
80105d05:	83 c4 10             	add    $0x10,%esp
80105d08:	85 c0                	test   %eax,%eax
80105d0a:	78 2e                	js     80105d3a <sys_write+0x4b>
80105d0c:	83 ec 08             	sub    $0x8,%esp
80105d0f:	8d 45 f0             	lea    -0x10(%ebp),%eax
80105d12:	50                   	push   %eax
80105d13:	6a 02                	push   $0x2
80105d15:	e8 04 fd ff ff       	call   80105a1e <argint>
80105d1a:	83 c4 10             	add    $0x10,%esp
80105d1d:	85 c0                	test   %eax,%eax
80105d1f:	78 19                	js     80105d3a <sys_write+0x4b>
80105d21:	8b 45 f0             	mov    -0x10(%ebp),%eax
80105d24:	83 ec 04             	sub    $0x4,%esp
80105d27:	50                   	push   %eax
80105d28:	8d 45 ec             	lea    -0x14(%ebp),%eax
80105d2b:	50                   	push   %eax
80105d2c:	6a 01                	push   $0x1
80105d2e:	e8 18 fd ff ff       	call   80105a4b <argptr>
80105d33:	83 c4 10             	add    $0x10,%esp
80105d36:	85 c0                	test   %eax,%eax
80105d38:	79 07                	jns    80105d41 <sys_write+0x52>
80105d3a:	b8 ff ff ff ff       	mov    $0xffffffff,%eax
80105d3f:	eb 17                	jmp    80105d58 <sys_write+0x69>
80105d41:	8b 4d f0             	mov    -0x10(%ebp),%ecx
80105d44:	8b 55 ec             	mov    -0x14(%ebp),%edx
80105d47:	8b 45 f4             	mov    -0xc(%ebp),%eax
80105d4a:	83 ec 04             	sub    $0x4,%esp
80105d4d:	51                   	push   %ecx
80105d4e:	52                   	push   %edx
80105d4f:	50                   	push   %eax
80105d50:	e8 9b b5 ff ff       	call   801012f0 <filewrite>
80105d55:	83 c4 10             	add    $0x10,%esp
80105d58:	c9                   	leave  
80105d59:	c3                   	ret    

80105d5a <sys_close>:
80105d5a:	55                   	push   %ebp
80105d5b:	89 e5                	mov    %esp,%ebp
80105d5d:	83 ec 18             	sub    $0x18,%esp
80105d60:	83 ec 04             	sub    $0x4,%esp
80105d63:	8d 45 f0             	lea    -0x10(%ebp),%eax
80105d66:	50                   	push   %eax
80105d67:	8d 45 f4             	lea    -0xc(%ebp),%eax
80105d6a:	50                   	push   %eax
80105d6b:	6a 00                	push   $0x0
80105d6d:	e8 f7 fd ff ff       	call   80105b69 <argfd>
80105d72:	83 c4 10             	add    $0x10,%esp
80105d75:	85 c0                	test   %eax,%eax
80105d77:	79 07                	jns    80105d80 <sys_close+0x26>
80105d79:	b8 ff ff ff ff       	mov    $0xffffffff,%eax
80105d7e:	eb 29                	jmp    80105da9 <sys_close+0x4f>
80105d80:	e8 81 e5 ff ff       	call   80104306 <myproc>
80105d85:	89 c2                	mov    %eax,%edx
80105d87:	8b 45 f4             	mov    -0xc(%ebp),%eax
80105d8a:	83 c0 08             	add    $0x8,%eax
80105d8d:	c7 44 82 08 00 00 00 	movl   $0x0,0x8(%edx,%eax,4)
80105d94:	00 
80105d95:	8b 45 f0             	mov    -0x10(%ebp),%eax
80105d98:	83 ec 0c             	sub    $0xc,%esp
80105d9b:	50                   	push   %eax
80105d9c:	e8 58 b3 ff ff       	call   801010f9 <fileclose>
80105da1:	83 c4 10             	add    $0x10,%esp
80105da4:	b8 00 00 00 00       	mov    $0x0,%eax
80105da9:	c9                   	leave  
80105daa:	c3                   	ret    

80105dab <sys_fstat>:
80105dab:	55                   	push   %ebp
80105dac:	89 e5                	mov    %esp,%ebp
80105dae:	83 ec 18             	sub    $0x18,%esp
80105db1:	83 ec 04             	sub    $0x4,%esp
80105db4:	8d 45 f4             	lea    -0xc(%ebp),%eax
80105db7:	50                   	push   %eax
80105db8:	6a 00                	push   $0x0
80105dba:	6a 00                	push   $0x0
80105dbc:	e8 a8 fd ff ff       	call   80105b69 <argfd>
80105dc1:	83 c4 10             	add    $0x10,%esp
80105dc4:	85 c0                	test   %eax,%eax
80105dc6:	78 17                	js     80105ddf <sys_fstat+0x34>
80105dc8:	83 ec 04             	sub    $0x4,%esp
80105dcb:	6a 14                	push   $0x14
80105dcd:	8d 45 f0             	lea    -0x10(%ebp),%eax
80105dd0:	50                   	push   %eax
80105dd1:	6a 01                	push   $0x1
80105dd3:	e8 73 fc ff ff       	call   80105a4b <argptr>
80105dd8:	83 c4 10             	add    $0x10,%esp
80105ddb:	85 c0                	test   %eax,%eax
80105ddd:	79 07                	jns    80105de6 <sys_fstat+0x3b>
80105ddf:	b8 ff ff ff ff       	mov    $0xffffffff,%eax
80105de4:	eb 13                	jmp    80105df9 <sys_fstat+0x4e>
80105de6:	8b 55 f0             	mov    -0x10(%ebp),%edx
80105de9:	8b 45 f4             	mov    -0xc(%ebp),%eax
80105dec:	83 ec 08             	sub    $0x8,%esp
80105def:	52                   	push   %edx
80105df0:	50                   	push   %eax
80105df1:	e8 eb b3 ff ff       	call   801011e1 <filestat>
80105df6:	83 c4 10             	add    $0x10,%esp
80105df9:	c9                   	leave  
80105dfa:	c3                   	ret    

80105dfb <sys_link>:
80105dfb:	55                   	push   %ebp
80105dfc:	89 e5                	mov    %esp,%ebp
80105dfe:	83 ec 28             	sub    $0x28,%esp
80105e01:	83 ec 08             	sub    $0x8,%esp
80105e04:	8d 45 d8             	lea    -0x28(%ebp),%eax
80105e07:	50                   	push   %eax
80105e08:	6a 00                	push   $0x0
80105e0a:	e8 a4 fc ff ff       	call   80105ab3 <argstr>
80105e0f:	83 c4 10             	add    $0x10,%esp
80105e12:	85 c0                	test   %eax,%eax
80105e14:	78 15                	js     80105e2b <sys_link+0x30>
80105e16:	83 ec 08             	sub    $0x8,%esp
80105e19:	8d 45 dc             	lea    -0x24(%ebp),%eax
80105e1c:	50                   	push   %eax
80105e1d:	6a 01                	push   $0x1
80105e1f:	e8 8f fc ff ff       	call   80105ab3 <argstr>
80105e24:	83 c4 10             	add    $0x10,%esp
80105e27:	85 c0                	test   %eax,%eax
80105e29:	79 0a                	jns    80105e35 <sys_link+0x3a>
80105e2b:	b8 ff ff ff ff       	mov    $0xffffffff,%eax
80105e30:	e9 68 01 00 00       	jmp    80105f9d <sys_link+0x1a2>
80105e35:	e8 43 d7 ff ff       	call   8010357d <begin_op>
80105e3a:	8b 45 d8             	mov    -0x28(%ebp),%eax
80105e3d:	83 ec 0c             	sub    $0xc,%esp
80105e40:	50                   	push   %eax
80105e41:	e8 52 c7 ff ff       	call   80102598 <namei>
80105e46:	83 c4 10             	add    $0x10,%esp
80105e49:	89 45 f4             	mov    %eax,-0xc(%ebp)
80105e4c:	83 7d f4 00          	cmpl   $0x0,-0xc(%ebp)
80105e50:	75 0f                	jne    80105e61 <sys_link+0x66>
80105e52:	e8 b2 d7 ff ff       	call   80103609 <end_op>
80105e57:	b8 ff ff ff ff       	mov    $0xffffffff,%eax
80105e5c:	e9 3c 01 00 00       	jmp    80105f9d <sys_link+0x1a2>
80105e61:	83 ec 0c             	sub    $0xc,%esp
80105e64:	ff 75 f4             	pushl  -0xc(%ebp)
80105e67:	e8 ec bb ff ff       	call   80101a58 <ilock>
80105e6c:	83 c4 10             	add    $0x10,%esp
80105e6f:	8b 45 f4             	mov    -0xc(%ebp),%eax
80105e72:	0f b7 40 50          	movzwl 0x50(%eax),%eax
80105e76:	66 83 f8 01          	cmp    $0x1,%ax
80105e7a:	75 1d                	jne    80105e99 <sys_link+0x9e>
80105e7c:	83 ec 0c             	sub    $0xc,%esp
80105e7f:	ff 75 f4             	pushl  -0xc(%ebp)
80105e82:	e8 02 be ff ff       	call   80101c89 <iunlockput>
80105e87:	83 c4 10             	add    $0x10,%esp
80105e8a:	e8 7a d7 ff ff       	call   80103609 <end_op>
80105e8f:	b8 ff ff ff ff       	mov    $0xffffffff,%eax
80105e94:	e9 04 01 00 00       	jmp    80105f9d <sys_link+0x1a2>
80105e99:	8b 45 f4             	mov    -0xc(%ebp),%eax
80105e9c:	0f b7 40 56          	movzwl 0x56(%eax),%eax
80105ea0:	83 c0 01             	add    $0x1,%eax
80105ea3:	89 c2                	mov    %eax,%edx
80105ea5:	8b 45 f4             	mov    -0xc(%ebp),%eax
80105ea8:	66 89 50 56          	mov    %dx,0x56(%eax)
80105eac:	83 ec 0c             	sub    $0xc,%esp
80105eaf:	ff 75 f4             	pushl  -0xc(%ebp)
80105eb2:	e8 c4 b9 ff ff       	call   8010187b <iupdate>
80105eb7:	83 c4 10             	add    $0x10,%esp
80105eba:	83 ec 0c             	sub    $0xc,%esp
80105ebd:	ff 75 f4             	pushl  -0xc(%ebp)
80105ec0:	e8 a6 bc ff ff       	call   80101b6b <iunlock>
80105ec5:	83 c4 10             	add    $0x10,%esp
80105ec8:	8b 45 dc             	mov    -0x24(%ebp),%eax
80105ecb:	83 ec 08             	sub    $0x8,%esp
80105ece:	8d 55 e2             	lea    -0x1e(%ebp),%edx
80105ed1:	52                   	push   %edx
80105ed2:	50                   	push   %eax
80105ed3:	e8 dc c6 ff ff       	call   801025b4 <nameiparent>
80105ed8:	83 c4 10             	add    $0x10,%esp
80105edb:	89 45 f0             	mov    %eax,-0x10(%ebp)
80105ede:	83 7d f0 00          	cmpl   $0x0,-0x10(%ebp)
80105ee2:	74 71                	je     80105f55 <sys_link+0x15a>
80105ee4:	83 ec 0c             	sub    $0xc,%esp
80105ee7:	ff 75 f0             	pushl  -0x10(%ebp)
80105eea:	e8 69 bb ff ff       	call   80101a58 <ilock>
80105eef:	83 c4 10             	add    $0x10,%esp
80105ef2:	8b 45 f0             	mov    -0x10(%ebp),%eax
80105ef5:	8b 10                	mov    (%eax),%edx
80105ef7:	8b 45 f4             	mov    -0xc(%ebp),%eax
80105efa:	8b 00                	mov    (%eax),%eax
80105efc:	39 c2                	cmp    %eax,%edx
80105efe:	75 1d                	jne    80105f1d <sys_link+0x122>
80105f00:	8b 45 f4             	mov    -0xc(%ebp),%eax
80105f03:	8b 40 04             	mov    0x4(%eax),%eax
80105f06:	83 ec 04             	sub    $0x4,%esp
80105f09:	50                   	push   %eax
80105f0a:	8d 45 e2             	lea    -0x1e(%ebp),%eax
80105f0d:	50                   	push   %eax
80105f0e:	ff 75 f0             	pushl  -0x10(%ebp)
80105f11:	e8 e7 c3 ff ff       	call   801022fd <dirlink>
80105f16:	83 c4 10             	add    $0x10,%esp
80105f19:	85 c0                	test   %eax,%eax
80105f1b:	79 10                	jns    80105f2d <sys_link+0x132>
80105f1d:	83 ec 0c             	sub    $0xc,%esp
80105f20:	ff 75 f0             	pushl  -0x10(%ebp)
80105f23:	e8 61 bd ff ff       	call   80101c89 <iunlockput>
80105f28:	83 c4 10             	add    $0x10,%esp
80105f2b:	eb 29                	jmp    80105f56 <sys_link+0x15b>
80105f2d:	83 ec 0c             	sub    $0xc,%esp
80105f30:	ff 75 f0             	pushl  -0x10(%ebp)
80105f33:	e8 51 bd ff ff       	call   80101c89 <iunlockput>
80105f38:	83 c4 10             	add    $0x10,%esp
80105f3b:	83 ec 0c             	sub    $0xc,%esp
80105f3e:	ff 75 f4             	pushl  -0xc(%ebp)
80105f41:	e8 73 bc ff ff       	call   80101bb9 <iput>
80105f46:	83 c4 10             	add    $0x10,%esp
80105f49:	e8 bb d6 ff ff       	call   80103609 <end_op>
80105f4e:	b8 00 00 00 00       	mov    $0x0,%eax
80105f53:	eb 48                	jmp    80105f9d <sys_link+0x1a2>
80105f55:	90                   	nop
80105f56:	83 ec 0c             	sub    $0xc,%esp
80105f59:	ff 75 f4             	pushl  -0xc(%ebp)
80105f5c:	e8 f7 ba ff ff       	call   80101a58 <ilock>
80105f61:	83 c4 10             	add    $0x10,%esp
80105f64:	8b 45 f4             	mov    -0xc(%ebp),%eax
80105f67:	0f b7 40 56          	movzwl 0x56(%eax),%eax
80105f6b:	83 e8 01             	sub    $0x1,%eax
80105f6e:	89 c2                	mov    %eax,%edx
80105f70:	8b 45 f4             	mov    -0xc(%ebp),%eax
80105f73:	66 89 50 56          	mov    %dx,0x56(%eax)
80105f77:	83 ec 0c             	sub    $0xc,%esp
80105f7a:	ff 75 f4             	pushl  -0xc(%ebp)
80105f7d:	e8 f9 b8 ff ff       	call   8010187b <iupdate>
80105f82:	83 c4 10             	add    $0x10,%esp
80105f85:	83 ec 0c             	sub    $0xc,%esp
80105f88:	ff 75 f4             	pushl  -0xc(%ebp)
80105f8b:	e8 f9 bc ff ff       	call   80101c89 <iunlockput>
80105f90:	83 c4 10             	add    $0x10,%esp
80105f93:	e8 71 d6 ff ff       	call   80103609 <end_op>
80105f98:	b8 ff ff ff ff       	mov    $0xffffffff,%eax
80105f9d:	c9                   	leave  
80105f9e:	c3                   	ret    

80105f9f <isdirempty>:
80105f9f:	55                   	push   %ebp
80105fa0:	89 e5                	mov    %esp,%ebp
80105fa2:	83 ec 28             	sub    $0x28,%esp
80105fa5:	c7 45 f4 20 00 00 00 	movl   $0x20,-0xc(%ebp)
80105fac:	eb 40                	jmp    80105fee <isdirempty+0x4f>
80105fae:	8b 45 f4             	mov    -0xc(%ebp),%eax
80105fb1:	6a 10                	push   $0x10
80105fb3:	50                   	push   %eax
80105fb4:	8d 45 e4             	lea    -0x1c(%ebp),%eax
80105fb7:	50                   	push   %eax
80105fb8:	ff 75 08             	pushl  0x8(%ebp)
80105fbb:	e8 89 bf ff ff       	call   80101f49 <readi>
80105fc0:	83 c4 10             	add    $0x10,%esp
80105fc3:	83 f8 10             	cmp    $0x10,%eax
80105fc6:	74 0d                	je     80105fd5 <isdirempty+0x36>
80105fc8:	83 ec 0c             	sub    $0xc,%esp
80105fcb:	68 73 92 10 80       	push   $0x80109273
80105fd0:	e8 cb a5 ff ff       	call   801005a0 <panic>
80105fd5:	0f b7 45 e4          	movzwl -0x1c(%ebp),%eax
80105fd9:	66 85 c0             	test   %ax,%ax
80105fdc:	74 07                	je     80105fe5 <isdirempty+0x46>
80105fde:	b8 00 00 00 00       	mov    $0x0,%eax
80105fe3:	eb 1b                	jmp    80106000 <isdirempty+0x61>
80105fe5:	8b 45 f4             	mov    -0xc(%ebp),%eax
80105fe8:	83 c0 10             	add    $0x10,%eax
80105feb:	89 45 f4             	mov    %eax,-0xc(%ebp)
80105fee:	8b 45 08             	mov    0x8(%ebp),%eax
80105ff1:	8b 50 58             	mov    0x58(%eax),%edx
80105ff4:	8b 45 f4             	mov    -0xc(%ebp),%eax
80105ff7:	39 c2                	cmp    %eax,%edx
80105ff9:	77 b3                	ja     80105fae <isdirempty+0xf>
80105ffb:	b8 01 00 00 00       	mov    $0x1,%eax
80106000:	c9                   	leave  
80106001:	c3                   	ret    

80106002 <sys_unlink>:
80106002:	55                   	push   %ebp
80106003:	89 e5                	mov    %esp,%ebp
80106005:	83 ec 38             	sub    $0x38,%esp
80106008:	83 ec 08             	sub    $0x8,%esp
8010600b:	8d 45 cc             	lea    -0x34(%ebp),%eax
8010600e:	50                   	push   %eax
8010600f:	6a 00                	push   $0x0
80106011:	e8 9d fa ff ff       	call   80105ab3 <argstr>
80106016:	83 c4 10             	add    $0x10,%esp
80106019:	85 c0                	test   %eax,%eax
8010601b:	79 0a                	jns    80106027 <sys_unlink+0x25>
8010601d:	b8 ff ff ff ff       	mov    $0xffffffff,%eax
80106022:	e9 bc 01 00 00       	jmp    801061e3 <sys_unlink+0x1e1>
80106027:	e8 51 d5 ff ff       	call   8010357d <begin_op>
8010602c:	8b 45 cc             	mov    -0x34(%ebp),%eax
8010602f:	83 ec 08             	sub    $0x8,%esp
80106032:	8d 55 d2             	lea    -0x2e(%ebp),%edx
80106035:	52                   	push   %edx
80106036:	50                   	push   %eax
80106037:	e8 78 c5 ff ff       	call   801025b4 <nameiparent>
8010603c:	83 c4 10             	add    $0x10,%esp
8010603f:	89 45 f4             	mov    %eax,-0xc(%ebp)
80106042:	83 7d f4 00          	cmpl   $0x0,-0xc(%ebp)
80106046:	75 0f                	jne    80106057 <sys_unlink+0x55>
80106048:	e8 bc d5 ff ff       	call   80103609 <end_op>
8010604d:	b8 ff ff ff ff       	mov    $0xffffffff,%eax
80106052:	e9 8c 01 00 00       	jmp    801061e3 <sys_unlink+0x1e1>
80106057:	83 ec 0c             	sub    $0xc,%esp
8010605a:	ff 75 f4             	pushl  -0xc(%ebp)
8010605d:	e8 f6 b9 ff ff       	call   80101a58 <ilock>
80106062:	83 c4 10             	add    $0x10,%esp
80106065:	83 ec 08             	sub    $0x8,%esp
80106068:	68 85 92 10 80       	push   $0x80109285
8010606d:	8d 45 d2             	lea    -0x2e(%ebp),%eax
80106070:	50                   	push   %eax
80106071:	e8 b2 c1 ff ff       	call   80102228 <namecmp>
80106076:	83 c4 10             	add    $0x10,%esp
80106079:	85 c0                	test   %eax,%eax
8010607b:	0f 84 4a 01 00 00    	je     801061cb <sys_unlink+0x1c9>
80106081:	83 ec 08             	sub    $0x8,%esp
80106084:	68 87 92 10 80       	push   $0x80109287
80106089:	8d 45 d2             	lea    -0x2e(%ebp),%eax
8010608c:	50                   	push   %eax
8010608d:	e8 96 c1 ff ff       	call   80102228 <namecmp>
80106092:	83 c4 10             	add    $0x10,%esp
80106095:	85 c0                	test   %eax,%eax
80106097:	0f 84 2e 01 00 00    	je     801061cb <sys_unlink+0x1c9>
8010609d:	83 ec 04             	sub    $0x4,%esp
801060a0:	8d 45 c8             	lea    -0x38(%ebp),%eax
801060a3:	50                   	push   %eax
801060a4:	8d 45 d2             	lea    -0x2e(%ebp),%eax
801060a7:	50                   	push   %eax
801060a8:	ff 75 f4             	pushl  -0xc(%ebp)
801060ab:	e8 93 c1 ff ff       	call   80102243 <dirlookup>
801060b0:	83 c4 10             	add    $0x10,%esp
801060b3:	89 45 f0             	mov    %eax,-0x10(%ebp)
801060b6:	83 7d f0 00          	cmpl   $0x0,-0x10(%ebp)
801060ba:	0f 84 0a 01 00 00    	je     801061ca <sys_unlink+0x1c8>
801060c0:	83 ec 0c             	sub    $0xc,%esp
801060c3:	ff 75 f0             	pushl  -0x10(%ebp)
801060c6:	e8 8d b9 ff ff       	call   80101a58 <ilock>
801060cb:	83 c4 10             	add    $0x10,%esp
801060ce:	8b 45 f0             	mov    -0x10(%ebp),%eax
801060d1:	0f b7 40 56          	movzwl 0x56(%eax),%eax
801060d5:	66 85 c0             	test   %ax,%ax
801060d8:	7f 0d                	jg     801060e7 <sys_unlink+0xe5>
801060da:	83 ec 0c             	sub    $0xc,%esp
801060dd:	68 8a 92 10 80       	push   $0x8010928a
801060e2:	e8 b9 a4 ff ff       	call   801005a0 <panic>
801060e7:	8b 45 f0             	mov    -0x10(%ebp),%eax
801060ea:	0f b7 40 50          	movzwl 0x50(%eax),%eax
801060ee:	66 83 f8 01          	cmp    $0x1,%ax
801060f2:	75 25                	jne    80106119 <sys_unlink+0x117>
801060f4:	83 ec 0c             	sub    $0xc,%esp
801060f7:	ff 75 f0             	pushl  -0x10(%ebp)
801060fa:	e8 a0 fe ff ff       	call   80105f9f <isdirempty>
801060ff:	83 c4 10             	add    $0x10,%esp
80106102:	85 c0                	test   %eax,%eax
80106104:	75 13                	jne    80106119 <sys_unlink+0x117>
80106106:	83 ec 0c             	sub    $0xc,%esp
80106109:	ff 75 f0             	pushl  -0x10(%ebp)
8010610c:	e8 78 bb ff ff       	call   80101c89 <iunlockput>
80106111:	83 c4 10             	add    $0x10,%esp
80106114:	e9 b2 00 00 00       	jmp    801061cb <sys_unlink+0x1c9>
80106119:	83 ec 04             	sub    $0x4,%esp
8010611c:	6a 10                	push   $0x10
8010611e:	6a 00                	push   $0x0
80106120:	8d 45 e0             	lea    -0x20(%ebp),%eax
80106123:	50                   	push   %eax
80106124:	e8 c9 f5 ff ff       	call   801056f2 <memset>
80106129:	83 c4 10             	add    $0x10,%esp
8010612c:	8b 45 c8             	mov    -0x38(%ebp),%eax
8010612f:	6a 10                	push   $0x10
80106131:	50                   	push   %eax
80106132:	8d 45 e0             	lea    -0x20(%ebp),%eax
80106135:	50                   	push   %eax
80106136:	ff 75 f4             	pushl  -0xc(%ebp)
80106139:	e8 62 bf ff ff       	call   801020a0 <writei>
8010613e:	83 c4 10             	add    $0x10,%esp
80106141:	83 f8 10             	cmp    $0x10,%eax
80106144:	74 0d                	je     80106153 <sys_unlink+0x151>
80106146:	83 ec 0c             	sub    $0xc,%esp
80106149:	68 9c 92 10 80       	push   $0x8010929c
8010614e:	e8 4d a4 ff ff       	call   801005a0 <panic>
80106153:	8b 45 f0             	mov    -0x10(%ebp),%eax
80106156:	0f b7 40 50          	movzwl 0x50(%eax),%eax
8010615a:	66 83 f8 01          	cmp    $0x1,%ax
8010615e:	75 21                	jne    80106181 <sys_unlink+0x17f>
80106160:	8b 45 f4             	mov    -0xc(%ebp),%eax
80106163:	0f b7 40 56          	movzwl 0x56(%eax),%eax
80106167:	83 e8 01             	sub    $0x1,%eax
8010616a:	89 c2                	mov    %eax,%edx
8010616c:	8b 45 f4             	mov    -0xc(%ebp),%eax
8010616f:	66 89 50 56          	mov    %dx,0x56(%eax)
80106173:	83 ec 0c             	sub    $0xc,%esp
80106176:	ff 75 f4             	pushl  -0xc(%ebp)
80106179:	e8 fd b6 ff ff       	call   8010187b <iupdate>
8010617e:	83 c4 10             	add    $0x10,%esp
80106181:	83 ec 0c             	sub    $0xc,%esp
80106184:	ff 75 f4             	pushl  -0xc(%ebp)
80106187:	e8 fd ba ff ff       	call   80101c89 <iunlockput>
8010618c:	83 c4 10             	add    $0x10,%esp
8010618f:	8b 45 f0             	mov    -0x10(%ebp),%eax
80106192:	0f b7 40 56          	movzwl 0x56(%eax),%eax
80106196:	83 e8 01             	sub    $0x1,%eax
80106199:	89 c2                	mov    %eax,%edx
8010619b:	8b 45 f0             	mov    -0x10(%ebp),%eax
8010619e:	66 89 50 56          	mov    %dx,0x56(%eax)
801061a2:	83 ec 0c             	sub    $0xc,%esp
801061a5:	ff 75 f0             	pushl  -0x10(%ebp)
801061a8:	e8 ce b6 ff ff       	call   8010187b <iupdate>
801061ad:	83 c4 10             	add    $0x10,%esp
801061b0:	83 ec 0c             	sub    $0xc,%esp
801061b3:	ff 75 f0             	pushl  -0x10(%ebp)
801061b6:	e8 ce ba ff ff       	call   80101c89 <iunlockput>
801061bb:	83 c4 10             	add    $0x10,%esp
801061be:	e8 46 d4 ff ff       	call   80103609 <end_op>
801061c3:	b8 00 00 00 00       	mov    $0x0,%eax
801061c8:	eb 19                	jmp    801061e3 <sys_unlink+0x1e1>
801061ca:	90                   	nop
801061cb:	83 ec 0c             	sub    $0xc,%esp
801061ce:	ff 75 f4             	pushl  -0xc(%ebp)
801061d1:	e8 b3 ba ff ff       	call   80101c89 <iunlockput>
801061d6:	83 c4 10             	add    $0x10,%esp
801061d9:	e8 2b d4 ff ff       	call   80103609 <end_op>
801061de:	b8 ff ff ff ff       	mov    $0xffffffff,%eax
801061e3:	c9                   	leave  
801061e4:	c3                   	ret    

801061e5 <create>:
801061e5:	55                   	push   %ebp
801061e6:	89 e5                	mov    %esp,%ebp
801061e8:	83 ec 38             	sub    $0x38,%esp
801061eb:	8b 4d 0c             	mov    0xc(%ebp),%ecx
801061ee:	8b 55 10             	mov    0x10(%ebp),%edx
801061f1:	8b 45 14             	mov    0x14(%ebp),%eax
801061f4:	66 89 4d d4          	mov    %cx,-0x2c(%ebp)
801061f8:	66 89 55 d0          	mov    %dx,-0x30(%ebp)
801061fc:	66 89 45 cc          	mov    %ax,-0x34(%ebp)
80106200:	83 ec 08             	sub    $0x8,%esp
80106203:	8d 45 de             	lea    -0x22(%ebp),%eax
80106206:	50                   	push   %eax
80106207:	ff 75 08             	pushl  0x8(%ebp)
8010620a:	e8 a5 c3 ff ff       	call   801025b4 <nameiparent>
8010620f:	83 c4 10             	add    $0x10,%esp
80106212:	89 45 f4             	mov    %eax,-0xc(%ebp)
80106215:	83 7d f4 00          	cmpl   $0x0,-0xc(%ebp)
80106219:	75 0a                	jne    80106225 <create+0x40>
8010621b:	b8 00 00 00 00       	mov    $0x0,%eax
80106220:	e9 90 01 00 00       	jmp    801063b5 <create+0x1d0>
80106225:	83 ec 0c             	sub    $0xc,%esp
80106228:	ff 75 f4             	pushl  -0xc(%ebp)
8010622b:	e8 28 b8 ff ff       	call   80101a58 <ilock>
80106230:	83 c4 10             	add    $0x10,%esp
80106233:	83 ec 04             	sub    $0x4,%esp
80106236:	8d 45 ec             	lea    -0x14(%ebp),%eax
80106239:	50                   	push   %eax
8010623a:	8d 45 de             	lea    -0x22(%ebp),%eax
8010623d:	50                   	push   %eax
8010623e:	ff 75 f4             	pushl  -0xc(%ebp)
80106241:	e8 fd bf ff ff       	call   80102243 <dirlookup>
80106246:	83 c4 10             	add    $0x10,%esp
80106249:	89 45 f0             	mov    %eax,-0x10(%ebp)
8010624c:	83 7d f0 00          	cmpl   $0x0,-0x10(%ebp)
80106250:	74 50                	je     801062a2 <create+0xbd>
80106252:	83 ec 0c             	sub    $0xc,%esp
80106255:	ff 75 f4             	pushl  -0xc(%ebp)
80106258:	e8 2c ba ff ff       	call   80101c89 <iunlockput>
8010625d:	83 c4 10             	add    $0x10,%esp
80106260:	83 ec 0c             	sub    $0xc,%esp
80106263:	ff 75 f0             	pushl  -0x10(%ebp)
80106266:	e8 ed b7 ff ff       	call   80101a58 <ilock>
8010626b:	83 c4 10             	add    $0x10,%esp
8010626e:	66 83 7d d4 02       	cmpw   $0x2,-0x2c(%ebp)
80106273:	75 15                	jne    8010628a <create+0xa5>
80106275:	8b 45 f0             	mov    -0x10(%ebp),%eax
80106278:	0f b7 40 50          	movzwl 0x50(%eax),%eax
8010627c:	66 83 f8 02          	cmp    $0x2,%ax
80106280:	75 08                	jne    8010628a <create+0xa5>
80106282:	8b 45 f0             	mov    -0x10(%ebp),%eax
80106285:	e9 2b 01 00 00       	jmp    801063b5 <create+0x1d0>
8010628a:	83 ec 0c             	sub    $0xc,%esp
8010628d:	ff 75 f0             	pushl  -0x10(%ebp)
80106290:	e8 f4 b9 ff ff       	call   80101c89 <iunlockput>
80106295:	83 c4 10             	add    $0x10,%esp
80106298:	b8 00 00 00 00       	mov    $0x0,%eax
8010629d:	e9 13 01 00 00       	jmp    801063b5 <create+0x1d0>
801062a2:	0f bf 55 d4          	movswl -0x2c(%ebp),%edx
801062a6:	8b 45 f4             	mov    -0xc(%ebp),%eax
801062a9:	8b 00                	mov    (%eax),%eax
801062ab:	83 ec 08             	sub    $0x8,%esp
801062ae:	52                   	push   %edx
801062af:	50                   	push   %eax
801062b0:	e8 ef b4 ff ff       	call   801017a4 <ialloc>
801062b5:	83 c4 10             	add    $0x10,%esp
801062b8:	89 45 f0             	mov    %eax,-0x10(%ebp)
801062bb:	83 7d f0 00          	cmpl   $0x0,-0x10(%ebp)
801062bf:	75 0d                	jne    801062ce <create+0xe9>
801062c1:	83 ec 0c             	sub    $0xc,%esp
801062c4:	68 ab 92 10 80       	push   $0x801092ab
801062c9:	e8 d2 a2 ff ff       	call   801005a0 <panic>
801062ce:	83 ec 0c             	sub    $0xc,%esp
801062d1:	ff 75 f0             	pushl  -0x10(%ebp)
801062d4:	e8 7f b7 ff ff       	call   80101a58 <ilock>
801062d9:	83 c4 10             	add    $0x10,%esp
801062dc:	8b 45 f0             	mov    -0x10(%ebp),%eax
801062df:	0f b7 55 d0          	movzwl -0x30(%ebp),%edx
801062e3:	66 89 50 52          	mov    %dx,0x52(%eax)
801062e7:	8b 45 f0             	mov    -0x10(%ebp),%eax
801062ea:	0f b7 55 cc          	movzwl -0x34(%ebp),%edx
801062ee:	66 89 50 54          	mov    %dx,0x54(%eax)
801062f2:	8b 45 f0             	mov    -0x10(%ebp),%eax
801062f5:	66 c7 40 56 01 00    	movw   $0x1,0x56(%eax)
801062fb:	83 ec 0c             	sub    $0xc,%esp
801062fe:	ff 75 f0             	pushl  -0x10(%ebp)
80106301:	e8 75 b5 ff ff       	call   8010187b <iupdate>
80106306:	83 c4 10             	add    $0x10,%esp
80106309:	66 83 7d d4 01       	cmpw   $0x1,-0x2c(%ebp)
8010630e:	75 6a                	jne    8010637a <create+0x195>
80106310:	8b 45 f4             	mov    -0xc(%ebp),%eax
80106313:	0f b7 40 56          	movzwl 0x56(%eax),%eax
80106317:	83 c0 01             	add    $0x1,%eax
8010631a:	89 c2                	mov    %eax,%edx
8010631c:	8b 45 f4             	mov    -0xc(%ebp),%eax
8010631f:	66 89 50 56          	mov    %dx,0x56(%eax)
80106323:	83 ec 0c             	sub    $0xc,%esp
80106326:	ff 75 f4             	pushl  -0xc(%ebp)
80106329:	e8 4d b5 ff ff       	call   8010187b <iupdate>
8010632e:	83 c4 10             	add    $0x10,%esp
80106331:	8b 45 f0             	mov    -0x10(%ebp),%eax
80106334:	8b 40 04             	mov    0x4(%eax),%eax
80106337:	83 ec 04             	sub    $0x4,%esp
8010633a:	50                   	push   %eax
8010633b:	68 85 92 10 80       	push   $0x80109285
80106340:	ff 75 f0             	pushl  -0x10(%ebp)
80106343:	e8 b5 bf ff ff       	call   801022fd <dirlink>
80106348:	83 c4 10             	add    $0x10,%esp
8010634b:	85 c0                	test   %eax,%eax
8010634d:	78 1e                	js     8010636d <create+0x188>
8010634f:	8b 45 f4             	mov    -0xc(%ebp),%eax
80106352:	8b 40 04             	mov    0x4(%eax),%eax
80106355:	83 ec 04             	sub    $0x4,%esp
80106358:	50                   	push   %eax
80106359:	68 87 92 10 80       	push   $0x80109287
8010635e:	ff 75 f0             	pushl  -0x10(%ebp)
80106361:	e8 97 bf ff ff       	call   801022fd <dirlink>
80106366:	83 c4 10             	add    $0x10,%esp
80106369:	85 c0                	test   %eax,%eax
8010636b:	79 0d                	jns    8010637a <create+0x195>
8010636d:	83 ec 0c             	sub    $0xc,%esp
80106370:	68 ba 92 10 80       	push   $0x801092ba
80106375:	e8 26 a2 ff ff       	call   801005a0 <panic>
8010637a:	8b 45 f0             	mov    -0x10(%ebp),%eax
8010637d:	8b 40 04             	mov    0x4(%eax),%eax
80106380:	83 ec 04             	sub    $0x4,%esp
80106383:	50                   	push   %eax
80106384:	8d 45 de             	lea    -0x22(%ebp),%eax
80106387:	50                   	push   %eax
80106388:	ff 75 f4             	pushl  -0xc(%ebp)
8010638b:	e8 6d bf ff ff       	call   801022fd <dirlink>
80106390:	83 c4 10             	add    $0x10,%esp
80106393:	85 c0                	test   %eax,%eax
80106395:	79 0d                	jns    801063a4 <create+0x1bf>
80106397:	83 ec 0c             	sub    $0xc,%esp
8010639a:	68 c6 92 10 80       	push   $0x801092c6
8010639f:	e8 fc a1 ff ff       	call   801005a0 <panic>
801063a4:	83 ec 0c             	sub    $0xc,%esp
801063a7:	ff 75 f4             	pushl  -0xc(%ebp)
801063aa:	e8 da b8 ff ff       	call   80101c89 <iunlockput>
801063af:	83 c4 10             	add    $0x10,%esp
801063b2:	8b 45 f0             	mov    -0x10(%ebp),%eax
801063b5:	c9                   	leave  
801063b6:	c3                   	ret    

801063b7 <sys_open>:
801063b7:	55                   	push   %ebp
801063b8:	89 e5                	mov    %esp,%ebp
801063ba:	83 ec 28             	sub    $0x28,%esp
801063bd:	83 ec 08             	sub    $0x8,%esp
801063c0:	8d 45 e8             	lea    -0x18(%ebp),%eax
801063c3:	50                   	push   %eax
801063c4:	6a 00                	push   $0x0
801063c6:	e8 e8 f6 ff ff       	call   80105ab3 <argstr>
801063cb:	83 c4 10             	add    $0x10,%esp
801063ce:	85 c0                	test   %eax,%eax
801063d0:	78 15                	js     801063e7 <sys_open+0x30>
801063d2:	83 ec 08             	sub    $0x8,%esp
801063d5:	8d 45 e4             	lea    -0x1c(%ebp),%eax
801063d8:	50                   	push   %eax
801063d9:	6a 01                	push   $0x1
801063db:	e8 3e f6 ff ff       	call   80105a1e <argint>
801063e0:	83 c4 10             	add    $0x10,%esp
801063e3:	85 c0                	test   %eax,%eax
801063e5:	79 0a                	jns    801063f1 <sys_open+0x3a>
801063e7:	b8 ff ff ff ff       	mov    $0xffffffff,%eax
801063ec:	e9 61 01 00 00       	jmp    80106552 <sys_open+0x19b>
801063f1:	e8 87 d1 ff ff       	call   8010357d <begin_op>
801063f6:	8b 45 e4             	mov    -0x1c(%ebp),%eax
801063f9:	25 00 02 00 00       	and    $0x200,%eax
801063fe:	85 c0                	test   %eax,%eax
80106400:	74 2a                	je     8010642c <sys_open+0x75>
80106402:	8b 45 e8             	mov    -0x18(%ebp),%eax
80106405:	6a 00                	push   $0x0
80106407:	6a 00                	push   $0x0
80106409:	6a 02                	push   $0x2
8010640b:	50                   	push   %eax
8010640c:	e8 d4 fd ff ff       	call   801061e5 <create>
80106411:	83 c4 10             	add    $0x10,%esp
80106414:	89 45 f4             	mov    %eax,-0xc(%ebp)
80106417:	83 7d f4 00          	cmpl   $0x0,-0xc(%ebp)
8010641b:	75 75                	jne    80106492 <sys_open+0xdb>
8010641d:	e8 e7 d1 ff ff       	call   80103609 <end_op>
80106422:	b8 ff ff ff ff       	mov    $0xffffffff,%eax
80106427:	e9 26 01 00 00       	jmp    80106552 <sys_open+0x19b>
8010642c:	8b 45 e8             	mov    -0x18(%ebp),%eax
8010642f:	83 ec 0c             	sub    $0xc,%esp
80106432:	50                   	push   %eax
80106433:	e8 60 c1 ff ff       	call   80102598 <namei>
80106438:	83 c4 10             	add    $0x10,%esp
8010643b:	89 45 f4             	mov    %eax,-0xc(%ebp)
8010643e:	83 7d f4 00          	cmpl   $0x0,-0xc(%ebp)
80106442:	75 0f                	jne    80106453 <sys_open+0x9c>
80106444:	e8 c0 d1 ff ff       	call   80103609 <end_op>
80106449:	b8 ff ff ff ff       	mov    $0xffffffff,%eax
8010644e:	e9 ff 00 00 00       	jmp    80106552 <sys_open+0x19b>
80106453:	83 ec 0c             	sub    $0xc,%esp
80106456:	ff 75 f4             	pushl  -0xc(%ebp)
80106459:	e8 fa b5 ff ff       	call   80101a58 <ilock>
8010645e:	83 c4 10             	add    $0x10,%esp
80106461:	8b 45 f4             	mov    -0xc(%ebp),%eax
80106464:	0f b7 40 50          	movzwl 0x50(%eax),%eax
80106468:	66 83 f8 01          	cmp    $0x1,%ax
8010646c:	75 24                	jne    80106492 <sys_open+0xdb>
8010646e:	8b 45 e4             	mov    -0x1c(%ebp),%eax
80106471:	85 c0                	test   %eax,%eax
80106473:	74 1d                	je     80106492 <sys_open+0xdb>
80106475:	83 ec 0c             	sub    $0xc,%esp
80106478:	ff 75 f4             	pushl  -0xc(%ebp)
8010647b:	e8 09 b8 ff ff       	call   80101c89 <iunlockput>
80106480:	83 c4 10             	add    $0x10,%esp
80106483:	e8 81 d1 ff ff       	call   80103609 <end_op>
80106488:	b8 ff ff ff ff       	mov    $0xffffffff,%eax
8010648d:	e9 c0 00 00 00       	jmp    80106552 <sys_open+0x19b>
80106492:	e8 a4 ab ff ff       	call   8010103b <filealloc>
80106497:	89 45 f0             	mov    %eax,-0x10(%ebp)
8010649a:	83 7d f0 00          	cmpl   $0x0,-0x10(%ebp)
8010649e:	74 17                	je     801064b7 <sys_open+0x100>
801064a0:	83 ec 0c             	sub    $0xc,%esp
801064a3:	ff 75 f0             	pushl  -0x10(%ebp)
801064a6:	e8 34 f7 ff ff       	call   80105bdf <fdalloc>
801064ab:	83 c4 10             	add    $0x10,%esp
801064ae:	89 45 ec             	mov    %eax,-0x14(%ebp)
801064b1:	83 7d ec 00          	cmpl   $0x0,-0x14(%ebp)
801064b5:	79 2e                	jns    801064e5 <sys_open+0x12e>
801064b7:	83 7d f0 00          	cmpl   $0x0,-0x10(%ebp)
801064bb:	74 0e                	je     801064cb <sys_open+0x114>
801064bd:	83 ec 0c             	sub    $0xc,%esp
801064c0:	ff 75 f0             	pushl  -0x10(%ebp)
801064c3:	e8 31 ac ff ff       	call   801010f9 <fileclose>
801064c8:	83 c4 10             	add    $0x10,%esp
801064cb:	83 ec 0c             	sub    $0xc,%esp
801064ce:	ff 75 f4             	pushl  -0xc(%ebp)
801064d1:	e8 b3 b7 ff ff       	call   80101c89 <iunlockput>
801064d6:	83 c4 10             	add    $0x10,%esp
801064d9:	e8 2b d1 ff ff       	call   80103609 <end_op>
801064de:	b8 ff ff ff ff       	mov    $0xffffffff,%eax
801064e3:	eb 6d                	jmp    80106552 <sys_open+0x19b>
801064e5:	83 ec 0c             	sub    $0xc,%esp
801064e8:	ff 75 f4             	pushl  -0xc(%ebp)
801064eb:	e8 7b b6 ff ff       	call   80101b6b <iunlock>
801064f0:	83 c4 10             	add    $0x10,%esp
801064f3:	e8 11 d1 ff ff       	call   80103609 <end_op>
801064f8:	8b 45 f0             	mov    -0x10(%ebp),%eax
801064fb:	c7 00 02 00 00 00    	movl   $0x2,(%eax)
80106501:	8b 45 f0             	mov    -0x10(%ebp),%eax
80106504:	8b 55 f4             	mov    -0xc(%ebp),%edx
80106507:	89 50 10             	mov    %edx,0x10(%eax)
8010650a:	8b 45 f0             	mov    -0x10(%ebp),%eax
8010650d:	c7 40 14 00 00 00 00 	movl   $0x0,0x14(%eax)
80106514:	8b 45 e4             	mov    -0x1c(%ebp),%eax
80106517:	83 e0 01             	and    $0x1,%eax
8010651a:	85 c0                	test   %eax,%eax
8010651c:	0f 94 c0             	sete   %al
8010651f:	89 c2                	mov    %eax,%edx
80106521:	8b 45 f0             	mov    -0x10(%ebp),%eax
80106524:	88 50 08             	mov    %dl,0x8(%eax)
80106527:	8b 45 e4             	mov    -0x1c(%ebp),%eax
8010652a:	83 e0 01             	and    $0x1,%eax
8010652d:	85 c0                	test   %eax,%eax
8010652f:	75 0a                	jne    8010653b <sys_open+0x184>
80106531:	8b 45 e4             	mov    -0x1c(%ebp),%eax
80106534:	83 e0 02             	and    $0x2,%eax
80106537:	85 c0                	test   %eax,%eax
80106539:	74 07                	je     80106542 <sys_open+0x18b>
8010653b:	b8 01 00 00 00       	mov    $0x1,%eax
80106540:	eb 05                	jmp    80106547 <sys_open+0x190>
80106542:	b8 00 00 00 00       	mov    $0x0,%eax
80106547:	89 c2                	mov    %eax,%edx
80106549:	8b 45 f0             	mov    -0x10(%ebp),%eax
8010654c:	88 50 09             	mov    %dl,0x9(%eax)
8010654f:	8b 45 ec             	mov    -0x14(%ebp),%eax
80106552:	c9                   	leave  
80106553:	c3                   	ret    

80106554 <sys_mkdir>:
80106554:	55                   	push   %ebp
80106555:	89 e5                	mov    %esp,%ebp
80106557:	83 ec 18             	sub    $0x18,%esp
8010655a:	e8 1e d0 ff ff       	call   8010357d <begin_op>
8010655f:	83 ec 08             	sub    $0x8,%esp
80106562:	8d 45 f0             	lea    -0x10(%ebp),%eax
80106565:	50                   	push   %eax
80106566:	6a 00                	push   $0x0
80106568:	e8 46 f5 ff ff       	call   80105ab3 <argstr>
8010656d:	83 c4 10             	add    $0x10,%esp
80106570:	85 c0                	test   %eax,%eax
80106572:	78 1b                	js     8010658f <sys_mkdir+0x3b>
80106574:	8b 45 f0             	mov    -0x10(%ebp),%eax
80106577:	6a 00                	push   $0x0
80106579:	6a 00                	push   $0x0
8010657b:	6a 01                	push   $0x1
8010657d:	50                   	push   %eax
8010657e:	e8 62 fc ff ff       	call   801061e5 <create>
80106583:	83 c4 10             	add    $0x10,%esp
80106586:	89 45 f4             	mov    %eax,-0xc(%ebp)
80106589:	83 7d f4 00          	cmpl   $0x0,-0xc(%ebp)
8010658d:	75 0c                	jne    8010659b <sys_mkdir+0x47>
8010658f:	e8 75 d0 ff ff       	call   80103609 <end_op>
80106594:	b8 ff ff ff ff       	mov    $0xffffffff,%eax
80106599:	eb 18                	jmp    801065b3 <sys_mkdir+0x5f>
8010659b:	83 ec 0c             	sub    $0xc,%esp
8010659e:	ff 75 f4             	pushl  -0xc(%ebp)
801065a1:	e8 e3 b6 ff ff       	call   80101c89 <iunlockput>
801065a6:	83 c4 10             	add    $0x10,%esp
801065a9:	e8 5b d0 ff ff       	call   80103609 <end_op>
801065ae:	b8 00 00 00 00       	mov    $0x0,%eax
801065b3:	c9                   	leave  
801065b4:	c3                   	ret    

801065b5 <sys_mknod>:
801065b5:	55                   	push   %ebp
801065b6:	89 e5                	mov    %esp,%ebp
801065b8:	83 ec 18             	sub    $0x18,%esp
801065bb:	e8 bd cf ff ff       	call   8010357d <begin_op>
801065c0:	83 ec 08             	sub    $0x8,%esp
801065c3:	8d 45 f0             	lea    -0x10(%ebp),%eax
801065c6:	50                   	push   %eax
801065c7:	6a 00                	push   $0x0
801065c9:	e8 e5 f4 ff ff       	call   80105ab3 <argstr>
801065ce:	83 c4 10             	add    $0x10,%esp
801065d1:	85 c0                	test   %eax,%eax
801065d3:	78 4f                	js     80106624 <sys_mknod+0x6f>
801065d5:	83 ec 08             	sub    $0x8,%esp
801065d8:	8d 45 ec             	lea    -0x14(%ebp),%eax
801065db:	50                   	push   %eax
801065dc:	6a 01                	push   $0x1
801065de:	e8 3b f4 ff ff       	call   80105a1e <argint>
801065e3:	83 c4 10             	add    $0x10,%esp
801065e6:	85 c0                	test   %eax,%eax
801065e8:	78 3a                	js     80106624 <sys_mknod+0x6f>
801065ea:	83 ec 08             	sub    $0x8,%esp
801065ed:	8d 45 e8             	lea    -0x18(%ebp),%eax
801065f0:	50                   	push   %eax
801065f1:	6a 02                	push   $0x2
801065f3:	e8 26 f4 ff ff       	call   80105a1e <argint>
801065f8:	83 c4 10             	add    $0x10,%esp
801065fb:	85 c0                	test   %eax,%eax
801065fd:	78 25                	js     80106624 <sys_mknod+0x6f>
801065ff:	8b 45 e8             	mov    -0x18(%ebp),%eax
80106602:	0f bf c8             	movswl %ax,%ecx
80106605:	8b 45 ec             	mov    -0x14(%ebp),%eax
80106608:	0f bf d0             	movswl %ax,%edx
8010660b:	8b 45 f0             	mov    -0x10(%ebp),%eax
8010660e:	51                   	push   %ecx
8010660f:	52                   	push   %edx
80106610:	6a 03                	push   $0x3
80106612:	50                   	push   %eax
80106613:	e8 cd fb ff ff       	call   801061e5 <create>
80106618:	83 c4 10             	add    $0x10,%esp
8010661b:	89 45 f4             	mov    %eax,-0xc(%ebp)
8010661e:	83 7d f4 00          	cmpl   $0x0,-0xc(%ebp)
80106622:	75 0c                	jne    80106630 <sys_mknod+0x7b>
80106624:	e8 e0 cf ff ff       	call   80103609 <end_op>
80106629:	b8 ff ff ff ff       	mov    $0xffffffff,%eax
8010662e:	eb 18                	jmp    80106648 <sys_mknod+0x93>
80106630:	83 ec 0c             	sub    $0xc,%esp
80106633:	ff 75 f4             	pushl  -0xc(%ebp)
80106636:	e8 4e b6 ff ff       	call   80101c89 <iunlockput>
8010663b:	83 c4 10             	add    $0x10,%esp
8010663e:	e8 c6 cf ff ff       	call   80103609 <end_op>
80106643:	b8 00 00 00 00       	mov    $0x0,%eax
80106648:	c9                   	leave  
80106649:	c3                   	ret    

8010664a <sys_chdir>:
8010664a:	55                   	push   %ebp
8010664b:	89 e5                	mov    %esp,%ebp
8010664d:	83 ec 18             	sub    $0x18,%esp
80106650:	e8 b1 dc ff ff       	call   80104306 <myproc>
80106655:	89 45 f4             	mov    %eax,-0xc(%ebp)
80106658:	e8 20 cf ff ff       	call   8010357d <begin_op>
8010665d:	83 ec 08             	sub    $0x8,%esp
80106660:	8d 45 ec             	lea    -0x14(%ebp),%eax
80106663:	50                   	push   %eax
80106664:	6a 00                	push   $0x0
80106666:	e8 48 f4 ff ff       	call   80105ab3 <argstr>
8010666b:	83 c4 10             	add    $0x10,%esp
8010666e:	85 c0                	test   %eax,%eax
80106670:	78 18                	js     8010668a <sys_chdir+0x40>
80106672:	8b 45 ec             	mov    -0x14(%ebp),%eax
80106675:	83 ec 0c             	sub    $0xc,%esp
80106678:	50                   	push   %eax
80106679:	e8 1a bf ff ff       	call   80102598 <namei>
8010667e:	83 c4 10             	add    $0x10,%esp
80106681:	89 45 f0             	mov    %eax,-0x10(%ebp)
80106684:	83 7d f0 00          	cmpl   $0x0,-0x10(%ebp)
80106688:	75 0c                	jne    80106696 <sys_chdir+0x4c>
8010668a:	e8 7a cf ff ff       	call   80103609 <end_op>
8010668f:	b8 ff ff ff ff       	mov    $0xffffffff,%eax
80106694:	eb 68                	jmp    801066fe <sys_chdir+0xb4>
80106696:	83 ec 0c             	sub    $0xc,%esp
80106699:	ff 75 f0             	pushl  -0x10(%ebp)
8010669c:	e8 b7 b3 ff ff       	call   80101a58 <ilock>
801066a1:	83 c4 10             	add    $0x10,%esp
801066a4:	8b 45 f0             	mov    -0x10(%ebp),%eax
801066a7:	0f b7 40 50          	movzwl 0x50(%eax),%eax
801066ab:	66 83 f8 01          	cmp    $0x1,%ax
801066af:	74 1a                	je     801066cb <sys_chdir+0x81>
801066b1:	83 ec 0c             	sub    $0xc,%esp
801066b4:	ff 75 f0             	pushl  -0x10(%ebp)
801066b7:	e8 cd b5 ff ff       	call   80101c89 <iunlockput>
801066bc:	83 c4 10             	add    $0x10,%esp
801066bf:	e8 45 cf ff ff       	call   80103609 <end_op>
801066c4:	b8 ff ff ff ff       	mov    $0xffffffff,%eax
801066c9:	eb 33                	jmp    801066fe <sys_chdir+0xb4>
801066cb:	83 ec 0c             	sub    $0xc,%esp
801066ce:	ff 75 f0             	pushl  -0x10(%ebp)
801066d1:	e8 95 b4 ff ff       	call   80101b6b <iunlock>
801066d6:	83 c4 10             	add    $0x10,%esp
801066d9:	8b 45 f4             	mov    -0xc(%ebp),%eax
801066dc:	8b 40 68             	mov    0x68(%eax),%eax
801066df:	83 ec 0c             	sub    $0xc,%esp
801066e2:	50                   	push   %eax
801066e3:	e8 d1 b4 ff ff       	call   80101bb9 <iput>
801066e8:	83 c4 10             	add    $0x10,%esp
801066eb:	e8 19 cf ff ff       	call   80103609 <end_op>
801066f0:	8b 45 f4             	mov    -0xc(%ebp),%eax
801066f3:	8b 55 f0             	mov    -0x10(%ebp),%edx
801066f6:	89 50 68             	mov    %edx,0x68(%eax)
801066f9:	b8 00 00 00 00       	mov    $0x0,%eax
801066fe:	c9                   	leave  
801066ff:	c3                   	ret    

80106700 <sys_exec>:
80106700:	55                   	push   %ebp
80106701:	89 e5                	mov    %esp,%ebp
80106703:	81 ec 98 00 00 00    	sub    $0x98,%esp
80106709:	83 ec 08             	sub    $0x8,%esp
8010670c:	8d 45 f0             	lea    -0x10(%ebp),%eax
8010670f:	50                   	push   %eax
80106710:	6a 00                	push   $0x0
80106712:	e8 9c f3 ff ff       	call   80105ab3 <argstr>
80106717:	83 c4 10             	add    $0x10,%esp
8010671a:	85 c0                	test   %eax,%eax
8010671c:	78 18                	js     80106736 <sys_exec+0x36>
8010671e:	83 ec 08             	sub    $0x8,%esp
80106721:	8d 85 6c ff ff ff    	lea    -0x94(%ebp),%eax
80106727:	50                   	push   %eax
80106728:	6a 01                	push   $0x1
8010672a:	e8 ef f2 ff ff       	call   80105a1e <argint>
8010672f:	83 c4 10             	add    $0x10,%esp
80106732:	85 c0                	test   %eax,%eax
80106734:	79 0a                	jns    80106740 <sys_exec+0x40>
80106736:	b8 ff ff ff ff       	mov    $0xffffffff,%eax
8010673b:	e9 c6 00 00 00       	jmp    80106806 <sys_exec+0x106>
80106740:	83 ec 04             	sub    $0x4,%esp
80106743:	68 80 00 00 00       	push   $0x80
80106748:	6a 00                	push   $0x0
8010674a:	8d 85 70 ff ff ff    	lea    -0x90(%ebp),%eax
80106750:	50                   	push   %eax
80106751:	e8 9c ef ff ff       	call   801056f2 <memset>
80106756:	83 c4 10             	add    $0x10,%esp
80106759:	c7 45 f4 00 00 00 00 	movl   $0x0,-0xc(%ebp)
80106760:	8b 45 f4             	mov    -0xc(%ebp),%eax
80106763:	83 f8 1f             	cmp    $0x1f,%eax
80106766:	76 0a                	jbe    80106772 <sys_exec+0x72>
80106768:	b8 ff ff ff ff       	mov    $0xffffffff,%eax
8010676d:	e9 94 00 00 00       	jmp    80106806 <sys_exec+0x106>
80106772:	8b 45 f4             	mov    -0xc(%ebp),%eax
80106775:	c1 e0 02             	shl    $0x2,%eax
80106778:	89 c2                	mov    %eax,%edx
8010677a:	8b 85 6c ff ff ff    	mov    -0x94(%ebp),%eax
80106780:	01 c2                	add    %eax,%edx
80106782:	83 ec 08             	sub    $0x8,%esp
80106785:	8d 85 68 ff ff ff    	lea    -0x98(%ebp),%eax
8010678b:	50                   	push   %eax
8010678c:	52                   	push   %edx
8010678d:	e8 e9 f1 ff ff       	call   8010597b <fetchint>
80106792:	83 c4 10             	add    $0x10,%esp
80106795:	85 c0                	test   %eax,%eax
80106797:	79 07                	jns    801067a0 <sys_exec+0xa0>
80106799:	b8 ff ff ff ff       	mov    $0xffffffff,%eax
8010679e:	eb 66                	jmp    80106806 <sys_exec+0x106>
801067a0:	8b 85 68 ff ff ff    	mov    -0x98(%ebp),%eax
801067a6:	85 c0                	test   %eax,%eax
801067a8:	75 27                	jne    801067d1 <sys_exec+0xd1>
801067aa:	8b 45 f4             	mov    -0xc(%ebp),%eax
801067ad:	c7 84 85 70 ff ff ff 	movl   $0x0,-0x90(%ebp,%eax,4)
801067b4:	00 00 00 00 
801067b8:	90                   	nop
801067b9:	8b 45 f0             	mov    -0x10(%ebp),%eax
801067bc:	83 ec 08             	sub    $0x8,%esp
801067bf:	8d 95 70 ff ff ff    	lea    -0x90(%ebp),%edx
801067c5:	52                   	push   %edx
801067c6:	50                   	push   %eax
801067c7:	e8 ca a3 ff ff       	call   80100b96 <exec>
801067cc:	83 c4 10             	add    $0x10,%esp
801067cf:	eb 35                	jmp    80106806 <sys_exec+0x106>
801067d1:	8d 85 70 ff ff ff    	lea    -0x90(%ebp),%eax
801067d7:	8b 55 f4             	mov    -0xc(%ebp),%edx
801067da:	c1 e2 02             	shl    $0x2,%edx
801067dd:	01 c2                	add    %eax,%edx
801067df:	8b 85 68 ff ff ff    	mov    -0x98(%ebp),%eax
801067e5:	83 ec 08             	sub    $0x8,%esp
801067e8:	52                   	push   %edx
801067e9:	50                   	push   %eax
801067ea:	e8 cb f1 ff ff       	call   801059ba <fetchstr>
801067ef:	83 c4 10             	add    $0x10,%esp
801067f2:	85 c0                	test   %eax,%eax
801067f4:	79 07                	jns    801067fd <sys_exec+0xfd>
801067f6:	b8 ff ff ff ff       	mov    $0xffffffff,%eax
801067fb:	eb 09                	jmp    80106806 <sys_exec+0x106>
801067fd:	83 45 f4 01          	addl   $0x1,-0xc(%ebp)
80106801:	e9 5a ff ff ff       	jmp    80106760 <sys_exec+0x60>
80106806:	c9                   	leave  
80106807:	c3                   	ret    

80106808 <sys_pipe>:
80106808:	55                   	push   %ebp
80106809:	89 e5                	mov    %esp,%ebp
8010680b:	83 ec 28             	sub    $0x28,%esp
8010680e:	83 ec 04             	sub    $0x4,%esp
80106811:	6a 08                	push   $0x8
80106813:	8d 45 ec             	lea    -0x14(%ebp),%eax
80106816:	50                   	push   %eax
80106817:	6a 00                	push   $0x0
80106819:	e8 2d f2 ff ff       	call   80105a4b <argptr>
8010681e:	83 c4 10             	add    $0x10,%esp
80106821:	85 c0                	test   %eax,%eax
80106823:	79 0a                	jns    8010682f <sys_pipe+0x27>
80106825:	b8 ff ff ff ff       	mov    $0xffffffff,%eax
8010682a:	e9 b0 00 00 00       	jmp    801068df <sys_pipe+0xd7>
8010682f:	83 ec 08             	sub    $0x8,%esp
80106832:	8d 45 e4             	lea    -0x1c(%ebp),%eax
80106835:	50                   	push   %eax
80106836:	8d 45 e8             	lea    -0x18(%ebp),%eax
80106839:	50                   	push   %eax
8010683a:	e8 c8 d5 ff ff       	call   80103e07 <pipealloc>
8010683f:	83 c4 10             	add    $0x10,%esp
80106842:	85 c0                	test   %eax,%eax
80106844:	79 0a                	jns    80106850 <sys_pipe+0x48>
80106846:	b8 ff ff ff ff       	mov    $0xffffffff,%eax
8010684b:	e9 8f 00 00 00       	jmp    801068df <sys_pipe+0xd7>
80106850:	c7 45 f4 ff ff ff ff 	movl   $0xffffffff,-0xc(%ebp)
80106857:	8b 45 e8             	mov    -0x18(%ebp),%eax
8010685a:	83 ec 0c             	sub    $0xc,%esp
8010685d:	50                   	push   %eax
8010685e:	e8 7c f3 ff ff       	call   80105bdf <fdalloc>
80106863:	83 c4 10             	add    $0x10,%esp
80106866:	89 45 f4             	mov    %eax,-0xc(%ebp)
80106869:	83 7d f4 00          	cmpl   $0x0,-0xc(%ebp)
8010686d:	78 18                	js     80106887 <sys_pipe+0x7f>
8010686f:	8b 45 e4             	mov    -0x1c(%ebp),%eax
80106872:	83 ec 0c             	sub    $0xc,%esp
80106875:	50                   	push   %eax
80106876:	e8 64 f3 ff ff       	call   80105bdf <fdalloc>
8010687b:	83 c4 10             	add    $0x10,%esp
8010687e:	89 45 f0             	mov    %eax,-0x10(%ebp)
80106881:	83 7d f0 00          	cmpl   $0x0,-0x10(%ebp)
80106885:	79 40                	jns    801068c7 <sys_pipe+0xbf>
80106887:	83 7d f4 00          	cmpl   $0x0,-0xc(%ebp)
8010688b:	78 15                	js     801068a2 <sys_pipe+0x9a>
8010688d:	e8 74 da ff ff       	call   80104306 <myproc>
80106892:	89 c2                	mov    %eax,%edx
80106894:	8b 45 f4             	mov    -0xc(%ebp),%eax
80106897:	83 c0 08             	add    $0x8,%eax
8010689a:	c7 44 82 08 00 00 00 	movl   $0x0,0x8(%edx,%eax,4)
801068a1:	00 
801068a2:	8b 45 e8             	mov    -0x18(%ebp),%eax
801068a5:	83 ec 0c             	sub    $0xc,%esp
801068a8:	50                   	push   %eax
801068a9:	e8 4b a8 ff ff       	call   801010f9 <fileclose>
801068ae:	83 c4 10             	add    $0x10,%esp
801068b1:	8b 45 e4             	mov    -0x1c(%ebp),%eax
801068b4:	83 ec 0c             	sub    $0xc,%esp
801068b7:	50                   	push   %eax
801068b8:	e8 3c a8 ff ff       	call   801010f9 <fileclose>
801068bd:	83 c4 10             	add    $0x10,%esp
801068c0:	b8 ff ff ff ff       	mov    $0xffffffff,%eax
801068c5:	eb 18                	jmp    801068df <sys_pipe+0xd7>
801068c7:	8b 45 ec             	mov    -0x14(%ebp),%eax
801068ca:	8b 55 f4             	mov    -0xc(%ebp),%edx
801068cd:	89 10                	mov    %edx,(%eax)
801068cf:	8b 45 ec             	mov    -0x14(%ebp),%eax
801068d2:	8d 50 04             	lea    0x4(%eax),%edx
801068d5:	8b 45 f0             	mov    -0x10(%ebp),%eax
801068d8:	89 02                	mov    %eax,(%edx)
801068da:	b8 00 00 00 00       	mov    $0x0,%eax
801068df:	c9                   	leave  
801068e0:	c3                   	ret    

801068e1 <cas>:
801068e1:	55                   	push   %ebp
801068e2:	89 e5                	mov    %esp,%ebp
801068e4:	53                   	push   %ebx
801068e5:	83 ec 10             	sub    $0x10,%esp
801068e8:	8b 45 0c             	mov    0xc(%ebp),%eax
801068eb:	8b 55 08             	mov    0x8(%ebp),%edx
801068ee:	8b 5d 10             	mov    0x10(%ebp),%ebx
801068f1:	89 d1                	mov    %edx,%ecx
801068f3:	f0 0f b1 19          	lock cmpxchg %ebx,(%ecx)
801068f7:	9c                   	pushf  
801068f8:	58                   	pop    %eax
801068f9:	89 45 f8             	mov    %eax,-0x8(%ebp)
801068fc:	8b 45 f8             	mov    -0x8(%ebp),%eax
801068ff:	83 e0 40             	and    $0x40,%eax
80106902:	89 45 f8             	mov    %eax,-0x8(%ebp)
80106905:	8b 45 f8             	mov    -0x8(%ebp),%eax
80106908:	c1 f8 06             	sar    $0x6,%eax
8010690b:	89 45 f8             	mov    %eax,-0x8(%ebp)
8010690e:	8b 45 f8             	mov    -0x8(%ebp),%eax
80106911:	83 c4 10             	add    $0x10,%esp
80106914:	5b                   	pop    %ebx
80106915:	5d                   	pop    %ebp
80106916:	c3                   	ret    

80106917 <sys_cascall>:
80106917:	55                   	push   %ebp
80106918:	89 e5                	mov    %esp,%ebp
8010691a:	83 ec 10             	sub    $0x10,%esp
8010691d:	a1 48 c6 10 80       	mov    0x8010c648,%eax
80106922:	89 45 fc             	mov    %eax,-0x4(%ebp)
80106925:	8b 45 fc             	mov    -0x4(%ebp),%eax
80106928:	83 c0 01             	add    $0x1,%eax
8010692b:	50                   	push   %eax
8010692c:	ff 75 fc             	pushl  -0x4(%ebp)
8010692f:	68 48 c6 10 80       	push   $0x8010c648
80106934:	e8 a8 ff ff ff       	call   801068e1 <cas>
80106939:	83 c4 0c             	add    $0xc,%esp
8010693c:	85 c0                	test   %eax,%eax
8010693e:	74 dd                	je     8010691d <sys_cascall+0x6>
80106940:	a1 48 c6 10 80       	mov    0x8010c648,%eax
80106945:	c9                   	leave  
80106946:	c3                   	ret    

80106947 <sys_isStopped>:
80106947:	55                   	push   %ebp
80106948:	89 e5                	mov    %esp,%ebp
8010694a:	83 ec 18             	sub    $0x18,%esp
8010694d:	83 ec 08             	sub    $0x8,%esp
80106950:	8d 45 f4             	lea    -0xc(%ebp),%eax
80106953:	50                   	push   %eax
80106954:	6a 00                	push   $0x0
80106956:	e8 c3 f0 ff ff       	call   80105a1e <argint>
8010695b:	83 c4 10             	add    $0x10,%esp
8010695e:	85 c0                	test   %eax,%eax
80106960:	79 07                	jns    80106969 <sys_isStopped+0x22>
80106962:	b8 ff ff ff ff       	mov    $0xffffffff,%eax
80106967:	eb 0f                	jmp    80106978 <sys_isStopped+0x31>
80106969:	8b 45 f4             	mov    -0xc(%ebp),%eax
8010696c:	83 ec 0c             	sub    $0xc,%esp
8010696f:	50                   	push   %eax
80106970:	e8 09 e7 ff ff       	call   8010507e <isStopped>
80106975:	83 c4 10             	add    $0x10,%esp
80106978:	c9                   	leave  
80106979:	c3                   	ret    

8010697a <sys_sigret>:
8010697a:	55                   	push   %ebp
8010697b:	89 e5                	mov    %esp,%ebp
8010697d:	83 ec 08             	sub    $0x8,%esp
80106980:	e8 b9 e8 ff ff       	call   8010523e <sigret>
80106985:	b8 00 00 00 00       	mov    $0x0,%eax
8010698a:	c9                   	leave  
8010698b:	c3                   	ret    

8010698c <sys_signal>:
8010698c:	55                   	push   %ebp
8010698d:	89 e5                	mov    %esp,%ebp
8010698f:	83 ec 18             	sub    $0x18,%esp
80106992:	83 ec 08             	sub    $0x8,%esp
80106995:	8d 45 f4             	lea    -0xc(%ebp),%eax
80106998:	50                   	push   %eax
80106999:	6a 00                	push   $0x0
8010699b:	e8 7e f0 ff ff       	call   80105a1e <argint>
801069a0:	83 c4 10             	add    $0x10,%esp
801069a3:	85 c0                	test   %eax,%eax
801069a5:	79 07                	jns    801069ae <sys_signal+0x22>
801069a7:	b8 ff ff ff ff       	mov    $0xffffffff,%eax
801069ac:	eb 3d                	jmp    801069eb <sys_signal+0x5f>
801069ae:	83 ec 04             	sub    $0x4,%esp
801069b1:	6a 04                	push   $0x4
801069b3:	8d 45 f0             	lea    -0x10(%ebp),%eax
801069b6:	50                   	push   %eax
801069b7:	6a 01                	push   $0x1
801069b9:	e8 8d f0 ff ff       	call   80105a4b <argptr>
801069be:	83 c4 10             	add    $0x10,%esp
801069c1:	85 c0                	test   %eax,%eax
801069c3:	79 13                	jns    801069d8 <sys_signal+0x4c>
801069c5:	8b 45 f4             	mov    -0xc(%ebp),%eax
801069c8:	83 ec 08             	sub    $0x8,%esp
801069cb:	6a 01                	push   $0x1
801069cd:	50                   	push   %eax
801069ce:	e8 0d e8 ff ff       	call   801051e0 <setSignalHandler>
801069d3:	83 c4 10             	add    $0x10,%esp
801069d6:	eb 13                	jmp    801069eb <sys_signal+0x5f>
801069d8:	8b 55 f0             	mov    -0x10(%ebp),%edx
801069db:	8b 45 f4             	mov    -0xc(%ebp),%eax
801069de:	83 ec 08             	sub    $0x8,%esp
801069e1:	52                   	push   %edx
801069e2:	50                   	push   %eax
801069e3:	e8 f8 e7 ff ff       	call   801051e0 <setSignalHandler>
801069e8:	83 c4 10             	add    $0x10,%esp
801069eb:	c9                   	leave  
801069ec:	c3                   	ret    

801069ed <sys_sigprocmask>:
801069ed:	55                   	push   %ebp
801069ee:	89 e5                	mov    %esp,%ebp
801069f0:	83 ec 18             	sub    $0x18,%esp
801069f3:	83 ec 08             	sub    $0x8,%esp
801069f6:	8d 45 f4             	lea    -0xc(%ebp),%eax
801069f9:	50                   	push   %eax
801069fa:	6a 00                	push   $0x0
801069fc:	e8 1d f0 ff ff       	call   80105a1e <argint>
80106a01:	83 c4 10             	add    $0x10,%esp
80106a04:	85 c0                	test   %eax,%eax
80106a06:	79 07                	jns    80106a0f <sys_sigprocmask+0x22>
80106a08:	b8 ff ff ff ff       	mov    $0xffffffff,%eax
80106a0d:	eb 0f                	jmp    80106a1e <sys_sigprocmask+0x31>
80106a0f:	8b 45 f4             	mov    -0xc(%ebp),%eax
80106a12:	83 ec 0c             	sub    $0xc,%esp
80106a15:	50                   	push   %eax
80106a16:	e8 f8 e7 ff ff       	call   80105213 <setSigMask>
80106a1b:	83 c4 10             	add    $0x10,%esp
80106a1e:	c9                   	leave  
80106a1f:	c3                   	ret    

80106a20 <sys_fork>:
80106a20:	55                   	push   %ebp
80106a21:	89 e5                	mov    %esp,%ebp
80106a23:	83 ec 08             	sub    $0x8,%esp
80106a26:	e8 63 dc ff ff       	call   8010468e <fork>
80106a2b:	c9                   	leave  
80106a2c:	c3                   	ret    

80106a2d <sys_exit>:
80106a2d:	55                   	push   %ebp
80106a2e:	89 e5                	mov    %esp,%ebp
80106a30:	83 ec 08             	sub    $0x8,%esp
80106a33:	e8 35 de ff ff       	call   8010486d <exit>
80106a38:	b8 00 00 00 00       	mov    $0x0,%eax
80106a3d:	c9                   	leave  
80106a3e:	c3                   	ret    

80106a3f <sys_wait>:
80106a3f:	55                   	push   %ebp
80106a40:	89 e5                	mov    %esp,%ebp
80106a42:	83 ec 08             	sub    $0x8,%esp
80106a45:	e8 5b df ff ff       	call   801049a5 <wait>
80106a4a:	c9                   	leave  
80106a4b:	c3                   	ret    

80106a4c <sys_kill>:
80106a4c:	55                   	push   %ebp
80106a4d:	89 e5                	mov    %esp,%ebp
80106a4f:	83 ec 18             	sub    $0x18,%esp
80106a52:	83 ec 08             	sub    $0x8,%esp
80106a55:	8d 45 f4             	lea    -0xc(%ebp),%eax
80106a58:	50                   	push   %eax
80106a59:	6a 00                	push   $0x0
80106a5b:	e8 be ef ff ff       	call   80105a1e <argint>
80106a60:	83 c4 10             	add    $0x10,%esp
80106a63:	85 c0                	test   %eax,%eax
80106a65:	79 07                	jns    80106a6e <sys_kill+0x22>
80106a67:	b8 ff ff ff ff       	mov    $0xffffffff,%eax
80106a6c:	eb 2f                	jmp    80106a9d <sys_kill+0x51>
80106a6e:	83 ec 08             	sub    $0x8,%esp
80106a71:	8d 45 f0             	lea    -0x10(%ebp),%eax
80106a74:	50                   	push   %eax
80106a75:	6a 01                	push   $0x1
80106a77:	e8 a2 ef ff ff       	call   80105a1e <argint>
80106a7c:	83 c4 10             	add    $0x10,%esp
80106a7f:	85 c0                	test   %eax,%eax
80106a81:	79 07                	jns    80106a8a <sys_kill+0x3e>
80106a83:	b8 ff ff ff ff       	mov    $0xffffffff,%eax
80106a88:	eb 13                	jmp    80106a9d <sys_kill+0x51>
80106a8a:	8b 55 f0             	mov    -0x10(%ebp),%edx
80106a8d:	8b 45 f4             	mov    -0xc(%ebp),%eax
80106a90:	83 ec 08             	sub    $0x8,%esp
80106a93:	52                   	push   %edx
80106a94:	50                   	push   %eax
80106a95:	e8 bb e3 ff ff       	call   80104e55 <kill>
80106a9a:	83 c4 10             	add    $0x10,%esp
80106a9d:	c9                   	leave  
80106a9e:	c3                   	ret    

80106a9f <sys_getpid>:
80106a9f:	55                   	push   %ebp
80106aa0:	89 e5                	mov    %esp,%ebp
80106aa2:	83 ec 08             	sub    $0x8,%esp
80106aa5:	e8 5c d8 ff ff       	call   80104306 <myproc>
80106aaa:	8b 40 10             	mov    0x10(%eax),%eax
80106aad:	c9                   	leave  
80106aae:	c3                   	ret    

80106aaf <sys_sbrk>:
80106aaf:	55                   	push   %ebp
80106ab0:	89 e5                	mov    %esp,%ebp
80106ab2:	83 ec 18             	sub    $0x18,%esp
80106ab5:	83 ec 08             	sub    $0x8,%esp
80106ab8:	8d 45 f0             	lea    -0x10(%ebp),%eax
80106abb:	50                   	push   %eax
80106abc:	6a 00                	push   $0x0
80106abe:	e8 5b ef ff ff       	call   80105a1e <argint>
80106ac3:	83 c4 10             	add    $0x10,%esp
80106ac6:	85 c0                	test   %eax,%eax
80106ac8:	79 07                	jns    80106ad1 <sys_sbrk+0x22>
80106aca:	b8 ff ff ff ff       	mov    $0xffffffff,%eax
80106acf:	eb 27                	jmp    80106af8 <sys_sbrk+0x49>
80106ad1:	e8 30 d8 ff ff       	call   80104306 <myproc>
80106ad6:	8b 00                	mov    (%eax),%eax
80106ad8:	89 45 f4             	mov    %eax,-0xc(%ebp)
80106adb:	8b 45 f0             	mov    -0x10(%ebp),%eax
80106ade:	83 ec 0c             	sub    $0xc,%esp
80106ae1:	50                   	push   %eax
80106ae2:	e8 0c db ff ff       	call   801045f3 <growproc>
80106ae7:	83 c4 10             	add    $0x10,%esp
80106aea:	85 c0                	test   %eax,%eax
80106aec:	79 07                	jns    80106af5 <sys_sbrk+0x46>
80106aee:	b8 ff ff ff ff       	mov    $0xffffffff,%eax
80106af3:	eb 03                	jmp    80106af8 <sys_sbrk+0x49>
80106af5:	8b 45 f4             	mov    -0xc(%ebp),%eax
80106af8:	c9                   	leave  
80106af9:	c3                   	ret    

80106afa <sys_sleep>:
80106afa:	55                   	push   %ebp
80106afb:	89 e5                	mov    %esp,%ebp
80106afd:	83 ec 18             	sub    $0x18,%esp
80106b00:	83 ec 08             	sub    $0x8,%esp
80106b03:	8d 45 f0             	lea    -0x10(%ebp),%eax
80106b06:	50                   	push   %eax
80106b07:	6a 00                	push   $0x0
80106b09:	e8 10 ef ff ff       	call   80105a1e <argint>
80106b0e:	83 c4 10             	add    $0x10,%esp
80106b11:	85 c0                	test   %eax,%eax
80106b13:	79 0a                	jns    80106b1f <sys_sleep+0x25>
80106b15:	b8 ff ff ff ff       	mov    $0xffffffff,%eax
80106b1a:	e9 b6 00 00 00       	jmp    80106bd5 <sys_sleep+0xdb>
80106b1f:	83 ec 0c             	sub    $0xc,%esp
80106b22:	68 00 a6 11 80       	push   $0x8011a600
80106b27:	e8 4f e9 ff ff       	call   8010547b <acquire>
80106b2c:	83 c4 10             	add    $0x10,%esp
80106b2f:	a1 40 ae 11 80       	mov    0x8011ae40,%eax
80106b34:	89 45 f4             	mov    %eax,-0xc(%ebp)
80106b37:	eb 74                	jmp    80106bad <sys_sleep+0xb3>
80106b39:	e8 c8 d7 ff ff       	call   80104306 <myproc>
80106b3e:	8b 40 7c             	mov    0x7c(%eax),%eax
80106b41:	25 00 02 00 00       	and    $0x200,%eax
80106b46:	85 c0                	test   %eax,%eax
80106b48:	74 2b                	je     80106b75 <sys_sleep+0x7b>
80106b4a:	e8 b7 d7 ff ff       	call   80104306 <myproc>
80106b4f:	8b 80 80 00 00 00    	mov    0x80(%eax),%eax
80106b55:	25 00 02 00 00       	and    $0x200,%eax
80106b5a:	85 c0                	test   %eax,%eax
80106b5c:	75 17                	jne    80106b75 <sys_sleep+0x7b>
80106b5e:	83 ec 0c             	sub    $0xc,%esp
80106b61:	68 00 a6 11 80       	push   $0x8011a600
80106b66:	e8 7e e9 ff ff       	call   801054e9 <release>
80106b6b:	83 c4 10             	add    $0x10,%esp
80106b6e:	b8 ff ff ff ff       	mov    $0xffffffff,%eax
80106b73:	eb 60                	jmp    80106bd5 <sys_sleep+0xdb>
80106b75:	e8 8c d7 ff ff       	call   80104306 <myproc>
80106b7a:	8b 40 24             	mov    0x24(%eax),%eax
80106b7d:	85 c0                	test   %eax,%eax
80106b7f:	74 17                	je     80106b98 <sys_sleep+0x9e>
80106b81:	83 ec 0c             	sub    $0xc,%esp
80106b84:	68 00 a6 11 80       	push   $0x8011a600
80106b89:	e8 5b e9 ff ff       	call   801054e9 <release>
80106b8e:	83 c4 10             	add    $0x10,%esp
80106b91:	b8 ff ff ff ff       	mov    $0xffffffff,%eax
80106b96:	eb 3d                	jmp    80106bd5 <sys_sleep+0xdb>
80106b98:	83 ec 08             	sub    $0x8,%esp
80106b9b:	68 00 a6 11 80       	push   $0x8011a600
80106ba0:	68 40 ae 11 80       	push   $0x8011ae40
80106ba5:	e8 4d e1 ff ff       	call   80104cf7 <sleep>
80106baa:	83 c4 10             	add    $0x10,%esp
80106bad:	a1 40 ae 11 80       	mov    0x8011ae40,%eax
80106bb2:	2b 45 f4             	sub    -0xc(%ebp),%eax
80106bb5:	8b 55 f0             	mov    -0x10(%ebp),%edx
80106bb8:	39 d0                	cmp    %edx,%eax
80106bba:	0f 82 79 ff ff ff    	jb     80106b39 <sys_sleep+0x3f>
80106bc0:	83 ec 0c             	sub    $0xc,%esp
80106bc3:	68 00 a6 11 80       	push   $0x8011a600
80106bc8:	e8 1c e9 ff ff       	call   801054e9 <release>
80106bcd:	83 c4 10             	add    $0x10,%esp
80106bd0:	b8 00 00 00 00       	mov    $0x0,%eax
80106bd5:	c9                   	leave  
80106bd6:	c3                   	ret    

80106bd7 <sys_uptime>:
80106bd7:	55                   	push   %ebp
80106bd8:	89 e5                	mov    %esp,%ebp
80106bda:	83 ec 18             	sub    $0x18,%esp
80106bdd:	83 ec 0c             	sub    $0xc,%esp
80106be0:	68 00 a6 11 80       	push   $0x8011a600
80106be5:	e8 91 e8 ff ff       	call   8010547b <acquire>
80106bea:	83 c4 10             	add    $0x10,%esp
80106bed:	a1 40 ae 11 80       	mov    0x8011ae40,%eax
80106bf2:	89 45 f4             	mov    %eax,-0xc(%ebp)
80106bf5:	83 ec 0c             	sub    $0xc,%esp
80106bf8:	68 00 a6 11 80       	push   $0x8011a600
80106bfd:	e8 e7 e8 ff ff       	call   801054e9 <release>
80106c02:	83 c4 10             	add    $0x10,%esp
80106c05:	8b 45 f4             	mov    -0xc(%ebp),%eax
80106c08:	c9                   	leave  
80106c09:	c3                   	ret    

80106c0a <alltraps>:
80106c0a:	1e                   	push   %ds
80106c0b:	06                   	push   %es
80106c0c:	0f a0                	push   %fs
80106c0e:	0f a8                	push   %gs
80106c10:	60                   	pusha  
80106c11:	66 b8 10 00          	mov    $0x10,%ax
80106c15:	8e d8                	mov    %eax,%ds
80106c17:	8e c0                	mov    %eax,%es
80106c19:	54                   	push   %esp
80106c1a:	e8 e7 01 00 00       	call   80106e06 <trap>
80106c1f:	83 c4 04             	add    $0x4,%esp

80106c22 <trapret>:
80106c22:	54                   	push   %esp
80106c23:	e8 09 1f 00 00       	call   80108b31 <handleSignal>
80106c28:	83 c4 04             	add    $0x4,%esp
80106c2b:	61                   	popa   
80106c2c:	0f a9                	pop    %gs
80106c2e:	0f a1                	pop    %fs
80106c30:	07                   	pop    %es
80106c31:	1f                   	pop    %ds
80106c32:	83 c4 08             	add    $0x8,%esp
80106c35:	cf                   	iret   

80106c36 <sigRetCall>:
80106c36:	b8 18 00 00 00       	mov    $0x18,%eax
80106c3b:	cd 40                	int    $0x40

80106c3d <lidt>:
80106c3d:	55                   	push   %ebp
80106c3e:	89 e5                	mov    %esp,%ebp
80106c40:	83 ec 10             	sub    $0x10,%esp
80106c43:	8b 45 0c             	mov    0xc(%ebp),%eax
80106c46:	83 e8 01             	sub    $0x1,%eax
80106c49:	66 89 45 fa          	mov    %ax,-0x6(%ebp)
80106c4d:	8b 45 08             	mov    0x8(%ebp),%eax
80106c50:	66 89 45 fc          	mov    %ax,-0x4(%ebp)
80106c54:	8b 45 08             	mov    0x8(%ebp),%eax
80106c57:	c1 e8 10             	shr    $0x10,%eax
80106c5a:	66 89 45 fe          	mov    %ax,-0x2(%ebp)
80106c5e:	8d 45 fa             	lea    -0x6(%ebp),%eax
80106c61:	0f 01 18             	lidtl  (%eax)
80106c64:	90                   	nop
80106c65:	c9                   	leave  
80106c66:	c3                   	ret    

80106c67 <rcr2>:
80106c67:	55                   	push   %ebp
80106c68:	89 e5                	mov    %esp,%ebp
80106c6a:	83 ec 10             	sub    $0x10,%esp
80106c6d:	0f 20 d0             	mov    %cr2,%eax
80106c70:	89 45 fc             	mov    %eax,-0x4(%ebp)
80106c73:	8b 45 fc             	mov    -0x4(%ebp),%eax
80106c76:	c9                   	leave  
80106c77:	c3                   	ret    

80106c78 <tvinit>:
80106c78:	55                   	push   %ebp
80106c79:	89 e5                	mov    %esp,%ebp
80106c7b:	83 ec 18             	sub    $0x18,%esp
80106c7e:	c7 45 f4 00 00 00 00 	movl   $0x0,-0xc(%ebp)
80106c85:	e9 c3 00 00 00       	jmp    80106d4d <tvinit+0xd5>
80106c8a:	8b 45 f4             	mov    -0xc(%ebp),%eax
80106c8d:	8b 04 85 8c c0 10 80 	mov    -0x7fef3f74(,%eax,4),%eax
80106c94:	89 c2                	mov    %eax,%edx
80106c96:	8b 45 f4             	mov    -0xc(%ebp),%eax
80106c99:	66 89 14 c5 40 a6 11 	mov    %dx,-0x7fee59c0(,%eax,8)
80106ca0:	80 
80106ca1:	8b 45 f4             	mov    -0xc(%ebp),%eax
80106ca4:	66 c7 04 c5 42 a6 11 	movw   $0x8,-0x7fee59be(,%eax,8)
80106cab:	80 08 00 
80106cae:	8b 45 f4             	mov    -0xc(%ebp),%eax
80106cb1:	0f b6 14 c5 44 a6 11 	movzbl -0x7fee59bc(,%eax,8),%edx
80106cb8:	80 
80106cb9:	83 e2 e0             	and    $0xffffffe0,%edx
80106cbc:	88 14 c5 44 a6 11 80 	mov    %dl,-0x7fee59bc(,%eax,8)
80106cc3:	8b 45 f4             	mov    -0xc(%ebp),%eax
80106cc6:	0f b6 14 c5 44 a6 11 	movzbl -0x7fee59bc(,%eax,8),%edx
80106ccd:	80 
80106cce:	83 e2 1f             	and    $0x1f,%edx
80106cd1:	88 14 c5 44 a6 11 80 	mov    %dl,-0x7fee59bc(,%eax,8)
80106cd8:	8b 45 f4             	mov    -0xc(%ebp),%eax
80106cdb:	0f b6 14 c5 45 a6 11 	movzbl -0x7fee59bb(,%eax,8),%edx
80106ce2:	80 
80106ce3:	83 e2 f0             	and    $0xfffffff0,%edx
80106ce6:	83 ca 0e             	or     $0xe,%edx
80106ce9:	88 14 c5 45 a6 11 80 	mov    %dl,-0x7fee59bb(,%eax,8)
80106cf0:	8b 45 f4             	mov    -0xc(%ebp),%eax
80106cf3:	0f b6 14 c5 45 a6 11 	movzbl -0x7fee59bb(,%eax,8),%edx
80106cfa:	80 
80106cfb:	83 e2 ef             	and    $0xffffffef,%edx
80106cfe:	88 14 c5 45 a6 11 80 	mov    %dl,-0x7fee59bb(,%eax,8)
80106d05:	8b 45 f4             	mov    -0xc(%ebp),%eax
80106d08:	0f b6 14 c5 45 a6 11 	movzbl -0x7fee59bb(,%eax,8),%edx
80106d0f:	80 
80106d10:	83 e2 9f             	and    $0xffffff9f,%edx
80106d13:	88 14 c5 45 a6 11 80 	mov    %dl,-0x7fee59bb(,%eax,8)
80106d1a:	8b 45 f4             	mov    -0xc(%ebp),%eax
80106d1d:	0f b6 14 c5 45 a6 11 	movzbl -0x7fee59bb(,%eax,8),%edx
80106d24:	80 
80106d25:	83 ca 80             	or     $0xffffff80,%edx
80106d28:	88 14 c5 45 a6 11 80 	mov    %dl,-0x7fee59bb(,%eax,8)
80106d2f:	8b 45 f4             	mov    -0xc(%ebp),%eax
80106d32:	8b 04 85 8c c0 10 80 	mov    -0x7fef3f74(,%eax,4),%eax
80106d39:	c1 e8 10             	shr    $0x10,%eax
80106d3c:	89 c2                	mov    %eax,%edx
80106d3e:	8b 45 f4             	mov    -0xc(%ebp),%eax
80106d41:	66 89 14 c5 46 a6 11 	mov    %dx,-0x7fee59ba(,%eax,8)
80106d48:	80 
80106d49:	83 45 f4 01          	addl   $0x1,-0xc(%ebp)
80106d4d:	81 7d f4 ff 00 00 00 	cmpl   $0xff,-0xc(%ebp)
80106d54:	0f 8e 30 ff ff ff    	jle    80106c8a <tvinit+0x12>
80106d5a:	a1 8c c1 10 80       	mov    0x8010c18c,%eax
80106d5f:	66 a3 40 a8 11 80    	mov    %ax,0x8011a840
80106d65:	66 c7 05 42 a8 11 80 	movw   $0x8,0x8011a842
80106d6c:	08 00 
80106d6e:	0f b6 05 44 a8 11 80 	movzbl 0x8011a844,%eax
80106d75:	83 e0 e0             	and    $0xffffffe0,%eax
80106d78:	a2 44 a8 11 80       	mov    %al,0x8011a844
80106d7d:	0f b6 05 44 a8 11 80 	movzbl 0x8011a844,%eax
80106d84:	83 e0 1f             	and    $0x1f,%eax
80106d87:	a2 44 a8 11 80       	mov    %al,0x8011a844
80106d8c:	0f b6 05 45 a8 11 80 	movzbl 0x8011a845,%eax
80106d93:	83 c8 0f             	or     $0xf,%eax
80106d96:	a2 45 a8 11 80       	mov    %al,0x8011a845
80106d9b:	0f b6 05 45 a8 11 80 	movzbl 0x8011a845,%eax
80106da2:	83 e0 ef             	and    $0xffffffef,%eax
80106da5:	a2 45 a8 11 80       	mov    %al,0x8011a845
80106daa:	0f b6 05 45 a8 11 80 	movzbl 0x8011a845,%eax
80106db1:	83 c8 60             	or     $0x60,%eax
80106db4:	a2 45 a8 11 80       	mov    %al,0x8011a845
80106db9:	0f b6 05 45 a8 11 80 	movzbl 0x8011a845,%eax
80106dc0:	83 c8 80             	or     $0xffffff80,%eax
80106dc3:	a2 45 a8 11 80       	mov    %al,0x8011a845
80106dc8:	a1 8c c1 10 80       	mov    0x8010c18c,%eax
80106dcd:	c1 e8 10             	shr    $0x10,%eax
80106dd0:	66 a3 46 a8 11 80    	mov    %ax,0x8011a846
80106dd6:	83 ec 08             	sub    $0x8,%esp
80106dd9:	68 d8 92 10 80       	push   $0x801092d8
80106dde:	68 00 a6 11 80       	push   $0x8011a600
80106de3:	e8 71 e6 ff ff       	call   80105459 <initlock>
80106de8:	83 c4 10             	add    $0x10,%esp
80106deb:	90                   	nop
80106dec:	c9                   	leave  
80106ded:	c3                   	ret    

80106dee <idtinit>:
80106dee:	55                   	push   %ebp
80106def:	89 e5                	mov    %esp,%ebp
80106df1:	68 00 08 00 00       	push   $0x800
80106df6:	68 40 a6 11 80       	push   $0x8011a640
80106dfb:	e8 3d fe ff ff       	call   80106c3d <lidt>
80106e00:	83 c4 08             	add    $0x8,%esp
80106e03:	90                   	nop
80106e04:	c9                   	leave  
80106e05:	c3                   	ret    

80106e06 <trap>:
80106e06:	55                   	push   %ebp
80106e07:	89 e5                	mov    %esp,%ebp
80106e09:	57                   	push   %edi
80106e0a:	56                   	push   %esi
80106e0b:	53                   	push   %ebx
80106e0c:	83 ec 1c             	sub    $0x1c,%esp
80106e0f:	8b 45 08             	mov    0x8(%ebp),%eax
80106e12:	8b 40 30             	mov    0x30(%eax),%eax
80106e15:	83 f8 40             	cmp    $0x40,%eax
80106e18:	75 3d                	jne    80106e57 <trap+0x51>
80106e1a:	e8 e7 d4 ff ff       	call   80104306 <myproc>
80106e1f:	8b 40 24             	mov    0x24(%eax),%eax
80106e22:	85 c0                	test   %eax,%eax
80106e24:	74 05                	je     80106e2b <trap+0x25>
80106e26:	e8 42 da ff ff       	call   8010486d <exit>
80106e2b:	e8 d6 d4 ff ff       	call   80104306 <myproc>
80106e30:	89 c2                	mov    %eax,%edx
80106e32:	8b 45 08             	mov    0x8(%ebp),%eax
80106e35:	89 42 18             	mov    %eax,0x18(%edx)
80106e38:	e8 ad ec ff ff       	call   80105aea <syscall>
80106e3d:	e8 c4 d4 ff ff       	call   80104306 <myproc>
80106e42:	8b 40 24             	mov    0x24(%eax),%eax
80106e45:	85 c0                	test   %eax,%eax
80106e47:	0f 84 1d 02 00 00    	je     8010706a <trap+0x264>
80106e4d:	e8 1b da ff ff       	call   8010486d <exit>
80106e52:	e9 13 02 00 00       	jmp    8010706a <trap+0x264>
80106e57:	8b 45 08             	mov    0x8(%ebp),%eax
80106e5a:	8b 40 30             	mov    0x30(%eax),%eax
80106e5d:	83 e8 20             	sub    $0x20,%eax
80106e60:	83 f8 1f             	cmp    $0x1f,%eax
80106e63:	0f 87 b5 00 00 00    	ja     80106f1e <trap+0x118>
80106e69:	8b 04 85 90 93 10 80 	mov    -0x7fef6c70(,%eax,4),%eax
80106e70:	ff e0                	jmp    *%eax
80106e72:	e8 f6 d3 ff ff       	call   8010426d <cpuid>
80106e77:	85 c0                	test   %eax,%eax
80106e79:	75 3d                	jne    80106eb8 <trap+0xb2>
80106e7b:	83 ec 0c             	sub    $0xc,%esp
80106e7e:	68 00 a6 11 80       	push   $0x8011a600
80106e83:	e8 f3 e5 ff ff       	call   8010547b <acquire>
80106e88:	83 c4 10             	add    $0x10,%esp
80106e8b:	a1 40 ae 11 80       	mov    0x8011ae40,%eax
80106e90:	83 c0 01             	add    $0x1,%eax
80106e93:	a3 40 ae 11 80       	mov    %eax,0x8011ae40
80106e98:	83 ec 0c             	sub    $0xc,%esp
80106e9b:	68 40 ae 11 80       	push   $0x8011ae40
80106ea0:	e8 8f df ff ff       	call   80104e34 <wakeup>
80106ea5:	83 c4 10             	add    $0x10,%esp
80106ea8:	83 ec 0c             	sub    $0xc,%esp
80106eab:	68 00 a6 11 80       	push   $0x8011a600
80106eb0:	e8 34 e6 ff ff       	call   801054e9 <release>
80106eb5:	83 c4 10             	add    $0x10,%esp
80106eb8:	e8 98 c1 ff ff       	call   80103055 <lapiceoi>
80106ebd:	e9 28 01 00 00       	jmp    80106fea <trap+0x1e4>
80106ec2:	e8 08 ba ff ff       	call   801028cf <ideintr>
80106ec7:	e8 89 c1 ff ff       	call   80103055 <lapiceoi>
80106ecc:	e9 19 01 00 00       	jmp    80106fea <trap+0x1e4>
80106ed1:	e8 c8 bf ff ff       	call   80102e9e <kbdintr>
80106ed6:	e8 7a c1 ff ff       	call   80103055 <lapiceoi>
80106edb:	e9 0a 01 00 00       	jmp    80106fea <trap+0x1e4>
80106ee0:	e8 59 03 00 00       	call   8010723e <uartintr>
80106ee5:	e8 6b c1 ff ff       	call   80103055 <lapiceoi>
80106eea:	e9 fb 00 00 00       	jmp    80106fea <trap+0x1e4>
80106eef:	8b 45 08             	mov    0x8(%ebp),%eax
80106ef2:	8b 70 38             	mov    0x38(%eax),%esi
80106ef5:	8b 45 08             	mov    0x8(%ebp),%eax
80106ef8:	0f b7 40 3c          	movzwl 0x3c(%eax),%eax
80106efc:	0f b7 d8             	movzwl %ax,%ebx
80106eff:	e8 69 d3 ff ff       	call   8010426d <cpuid>
80106f04:	56                   	push   %esi
80106f05:	53                   	push   %ebx
80106f06:	50                   	push   %eax
80106f07:	68 e0 92 10 80       	push   $0x801092e0
80106f0c:	e8 ef 94 ff ff       	call   80100400 <cprintf>
80106f11:	83 c4 10             	add    $0x10,%esp
80106f14:	e8 3c c1 ff ff       	call   80103055 <lapiceoi>
80106f19:	e9 cc 00 00 00       	jmp    80106fea <trap+0x1e4>
80106f1e:	e8 e3 d3 ff ff       	call   80104306 <myproc>
80106f23:	85 c0                	test   %eax,%eax
80106f25:	74 11                	je     80106f38 <trap+0x132>
80106f27:	8b 45 08             	mov    0x8(%ebp),%eax
80106f2a:	0f b7 40 3c          	movzwl 0x3c(%eax),%eax
80106f2e:	0f b7 c0             	movzwl %ax,%eax
80106f31:	83 e0 03             	and    $0x3,%eax
80106f34:	85 c0                	test   %eax,%eax
80106f36:	75 54                	jne    80106f8c <trap+0x186>
80106f38:	e8 c9 d3 ff ff       	call   80104306 <myproc>
80106f3d:	85 c0                	test   %eax,%eax
80106f3f:	75 10                	jne    80106f51 <trap+0x14b>
80106f41:	83 ec 0c             	sub    $0xc,%esp
80106f44:	68 04 93 10 80       	push   $0x80109304
80106f49:	e8 b2 94 ff ff       	call   80100400 <cprintf>
80106f4e:	83 c4 10             	add    $0x10,%esp
80106f51:	e8 11 fd ff ff       	call   80106c67 <rcr2>
80106f56:	89 c6                	mov    %eax,%esi
80106f58:	8b 45 08             	mov    0x8(%ebp),%eax
80106f5b:	8b 58 38             	mov    0x38(%eax),%ebx
80106f5e:	e8 0a d3 ff ff       	call   8010426d <cpuid>
80106f63:	89 c2                	mov    %eax,%edx
80106f65:	8b 45 08             	mov    0x8(%ebp),%eax
80106f68:	8b 40 30             	mov    0x30(%eax),%eax
80106f6b:	83 ec 0c             	sub    $0xc,%esp
80106f6e:	56                   	push   %esi
80106f6f:	53                   	push   %ebx
80106f70:	52                   	push   %edx
80106f71:	50                   	push   %eax
80106f72:	68 14 93 10 80       	push   $0x80109314
80106f77:	e8 84 94 ff ff       	call   80100400 <cprintf>
80106f7c:	83 c4 20             	add    $0x20,%esp
80106f7f:	83 ec 0c             	sub    $0xc,%esp
80106f82:	68 46 93 10 80       	push   $0x80109346
80106f87:	e8 14 96 ff ff       	call   801005a0 <panic>
80106f8c:	e8 d6 fc ff ff       	call   80106c67 <rcr2>
80106f91:	89 45 e4             	mov    %eax,-0x1c(%ebp)
80106f94:	8b 45 08             	mov    0x8(%ebp),%eax
80106f97:	8b 78 38             	mov    0x38(%eax),%edi
80106f9a:	e8 ce d2 ff ff       	call   8010426d <cpuid>
80106f9f:	89 45 e0             	mov    %eax,-0x20(%ebp)
80106fa2:	8b 45 08             	mov    0x8(%ebp),%eax
80106fa5:	8b 70 34             	mov    0x34(%eax),%esi
80106fa8:	8b 45 08             	mov    0x8(%ebp),%eax
80106fab:	8b 58 30             	mov    0x30(%eax),%ebx
80106fae:	e8 53 d3 ff ff       	call   80104306 <myproc>
80106fb3:	8d 48 6c             	lea    0x6c(%eax),%ecx
80106fb6:	89 4d dc             	mov    %ecx,-0x24(%ebp)
80106fb9:	e8 48 d3 ff ff       	call   80104306 <myproc>
80106fbe:	8b 40 10             	mov    0x10(%eax),%eax
80106fc1:	ff 75 e4             	pushl  -0x1c(%ebp)
80106fc4:	57                   	push   %edi
80106fc5:	ff 75 e0             	pushl  -0x20(%ebp)
80106fc8:	56                   	push   %esi
80106fc9:	53                   	push   %ebx
80106fca:	ff 75 dc             	pushl  -0x24(%ebp)
80106fcd:	50                   	push   %eax
80106fce:	68 4c 93 10 80       	push   $0x8010934c
80106fd3:	e8 28 94 ff ff       	call   80100400 <cprintf>
80106fd8:	83 c4 20             	add    $0x20,%esp
80106fdb:	e8 26 d3 ff ff       	call   80104306 <myproc>
80106fe0:	c7 40 24 01 00 00 00 	movl   $0x1,0x24(%eax)
80106fe7:	eb 01                	jmp    80106fea <trap+0x1e4>
80106fe9:	90                   	nop
80106fea:	e8 17 d3 ff ff       	call   80104306 <myproc>
80106fef:	85 c0                	test   %eax,%eax
80106ff1:	74 23                	je     80107016 <trap+0x210>
80106ff3:	e8 0e d3 ff ff       	call   80104306 <myproc>
80106ff8:	8b 40 24             	mov    0x24(%eax),%eax
80106ffb:	85 c0                	test   %eax,%eax
80106ffd:	74 17                	je     80107016 <trap+0x210>
80106fff:	8b 45 08             	mov    0x8(%ebp),%eax
80107002:	0f b7 40 3c          	movzwl 0x3c(%eax),%eax
80107006:	0f b7 c0             	movzwl %ax,%eax
80107009:	83 e0 03             	and    $0x3,%eax
8010700c:	83 f8 03             	cmp    $0x3,%eax
8010700f:	75 05                	jne    80107016 <trap+0x210>
80107011:	e8 57 d8 ff ff       	call   8010486d <exit>
80107016:	e8 eb d2 ff ff       	call   80104306 <myproc>
8010701b:	85 c0                	test   %eax,%eax
8010701d:	74 1d                	je     8010703c <trap+0x236>
8010701f:	e8 e2 d2 ff ff       	call   80104306 <myproc>
80107024:	8b 40 0c             	mov    0xc(%eax),%eax
80107027:	83 f8 04             	cmp    $0x4,%eax
8010702a:	75 10                	jne    8010703c <trap+0x236>
8010702c:	8b 45 08             	mov    0x8(%ebp),%eax
8010702f:	8b 40 30             	mov    0x30(%eax),%eax
80107032:	83 f8 20             	cmp    $0x20,%eax
80107035:	75 05                	jne    8010703c <trap+0x236>
80107037:	e8 50 dc ff ff       	call   80104c8c <yield>
8010703c:	e8 c5 d2 ff ff       	call   80104306 <myproc>
80107041:	85 c0                	test   %eax,%eax
80107043:	74 26                	je     8010706b <trap+0x265>
80107045:	e8 bc d2 ff ff       	call   80104306 <myproc>
8010704a:	8b 40 24             	mov    0x24(%eax),%eax
8010704d:	85 c0                	test   %eax,%eax
8010704f:	74 1a                	je     8010706b <trap+0x265>
80107051:	8b 45 08             	mov    0x8(%ebp),%eax
80107054:	0f b7 40 3c          	movzwl 0x3c(%eax),%eax
80107058:	0f b7 c0             	movzwl %ax,%eax
8010705b:	83 e0 03             	and    $0x3,%eax
8010705e:	83 f8 03             	cmp    $0x3,%eax
80107061:	75 08                	jne    8010706b <trap+0x265>
80107063:	e8 05 d8 ff ff       	call   8010486d <exit>
80107068:	eb 01                	jmp    8010706b <trap+0x265>
8010706a:	90                   	nop
8010706b:	8d 65 f4             	lea    -0xc(%ebp),%esp
8010706e:	5b                   	pop    %ebx
8010706f:	5e                   	pop    %esi
80107070:	5f                   	pop    %edi
80107071:	5d                   	pop    %ebp
80107072:	c3                   	ret    

80107073 <inb>:
80107073:	55                   	push   %ebp
80107074:	89 e5                	mov    %esp,%ebp
80107076:	83 ec 14             	sub    $0x14,%esp
80107079:	8b 45 08             	mov    0x8(%ebp),%eax
8010707c:	66 89 45 ec          	mov    %ax,-0x14(%ebp)
80107080:	0f b7 45 ec          	movzwl -0x14(%ebp),%eax
80107084:	89 c2                	mov    %eax,%edx
80107086:	ec                   	in     (%dx),%al
80107087:	88 45 ff             	mov    %al,-0x1(%ebp)
8010708a:	0f b6 45 ff          	movzbl -0x1(%ebp),%eax
8010708e:	c9                   	leave  
8010708f:	c3                   	ret    

80107090 <outb>:
80107090:	55                   	push   %ebp
80107091:	89 e5                	mov    %esp,%ebp
80107093:	83 ec 08             	sub    $0x8,%esp
80107096:	8b 55 08             	mov    0x8(%ebp),%edx
80107099:	8b 45 0c             	mov    0xc(%ebp),%eax
8010709c:	66 89 55 fc          	mov    %dx,-0x4(%ebp)
801070a0:	88 45 f8             	mov    %al,-0x8(%ebp)
801070a3:	0f b6 45 f8          	movzbl -0x8(%ebp),%eax
801070a7:	0f b7 55 fc          	movzwl -0x4(%ebp),%edx
801070ab:	ee                   	out    %al,(%dx)
801070ac:	90                   	nop
801070ad:	c9                   	leave  
801070ae:	c3                   	ret    

801070af <uartinit>:
801070af:	55                   	push   %ebp
801070b0:	89 e5                	mov    %esp,%ebp
801070b2:	83 ec 18             	sub    $0x18,%esp
801070b5:	6a 00                	push   $0x0
801070b7:	68 fa 03 00 00       	push   $0x3fa
801070bc:	e8 cf ff ff ff       	call   80107090 <outb>
801070c1:	83 c4 08             	add    $0x8,%esp
801070c4:	68 80 00 00 00       	push   $0x80
801070c9:	68 fb 03 00 00       	push   $0x3fb
801070ce:	e8 bd ff ff ff       	call   80107090 <outb>
801070d3:	83 c4 08             	add    $0x8,%esp
801070d6:	6a 0c                	push   $0xc
801070d8:	68 f8 03 00 00       	push   $0x3f8
801070dd:	e8 ae ff ff ff       	call   80107090 <outb>
801070e2:	83 c4 08             	add    $0x8,%esp
801070e5:	6a 00                	push   $0x0
801070e7:	68 f9 03 00 00       	push   $0x3f9
801070ec:	e8 9f ff ff ff       	call   80107090 <outb>
801070f1:	83 c4 08             	add    $0x8,%esp
801070f4:	6a 03                	push   $0x3
801070f6:	68 fb 03 00 00       	push   $0x3fb
801070fb:	e8 90 ff ff ff       	call   80107090 <outb>
80107100:	83 c4 08             	add    $0x8,%esp
80107103:	6a 00                	push   $0x0
80107105:	68 fc 03 00 00       	push   $0x3fc
8010710a:	e8 81 ff ff ff       	call   80107090 <outb>
8010710f:	83 c4 08             	add    $0x8,%esp
80107112:	6a 01                	push   $0x1
80107114:	68 f9 03 00 00       	push   $0x3f9
80107119:	e8 72 ff ff ff       	call   80107090 <outb>
8010711e:	83 c4 08             	add    $0x8,%esp
80107121:	68 fd 03 00 00       	push   $0x3fd
80107126:	e8 48 ff ff ff       	call   80107073 <inb>
8010712b:	83 c4 04             	add    $0x4,%esp
8010712e:	3c ff                	cmp    $0xff,%al
80107130:	74 61                	je     80107193 <uartinit+0xe4>
80107132:	c7 05 4c c6 10 80 01 	movl   $0x1,0x8010c64c
80107139:	00 00 00 
8010713c:	68 fa 03 00 00       	push   $0x3fa
80107141:	e8 2d ff ff ff       	call   80107073 <inb>
80107146:	83 c4 04             	add    $0x4,%esp
80107149:	68 f8 03 00 00       	push   $0x3f8
8010714e:	e8 20 ff ff ff       	call   80107073 <inb>
80107153:	83 c4 04             	add    $0x4,%esp
80107156:	83 ec 08             	sub    $0x8,%esp
80107159:	6a 00                	push   $0x0
8010715b:	6a 04                	push   $0x4
8010715d:	e8 0a ba ff ff       	call   80102b6c <ioapicenable>
80107162:	83 c4 10             	add    $0x10,%esp
80107165:	c7 45 f4 10 94 10 80 	movl   $0x80109410,-0xc(%ebp)
8010716c:	eb 19                	jmp    80107187 <uartinit+0xd8>
8010716e:	8b 45 f4             	mov    -0xc(%ebp),%eax
80107171:	0f b6 00             	movzbl (%eax),%eax
80107174:	0f be c0             	movsbl %al,%eax
80107177:	83 ec 0c             	sub    $0xc,%esp
8010717a:	50                   	push   %eax
8010717b:	e8 16 00 00 00       	call   80107196 <uartputc>
80107180:	83 c4 10             	add    $0x10,%esp
80107183:	83 45 f4 01          	addl   $0x1,-0xc(%ebp)
80107187:	8b 45 f4             	mov    -0xc(%ebp),%eax
8010718a:	0f b6 00             	movzbl (%eax),%eax
8010718d:	84 c0                	test   %al,%al
8010718f:	75 dd                	jne    8010716e <uartinit+0xbf>
80107191:	eb 01                	jmp    80107194 <uartinit+0xe5>
80107193:	90                   	nop
80107194:	c9                   	leave  
80107195:	c3                   	ret    

80107196 <uartputc>:
80107196:	55                   	push   %ebp
80107197:	89 e5                	mov    %esp,%ebp
80107199:	83 ec 18             	sub    $0x18,%esp
8010719c:	a1 4c c6 10 80       	mov    0x8010c64c,%eax
801071a1:	85 c0                	test   %eax,%eax
801071a3:	74 53                	je     801071f8 <uartputc+0x62>
801071a5:	c7 45 f4 00 00 00 00 	movl   $0x0,-0xc(%ebp)
801071ac:	eb 11                	jmp    801071bf <uartputc+0x29>
801071ae:	83 ec 0c             	sub    $0xc,%esp
801071b1:	6a 0a                	push   $0xa
801071b3:	e8 b8 be ff ff       	call   80103070 <microdelay>
801071b8:	83 c4 10             	add    $0x10,%esp
801071bb:	83 45 f4 01          	addl   $0x1,-0xc(%ebp)
801071bf:	83 7d f4 7f          	cmpl   $0x7f,-0xc(%ebp)
801071c3:	7f 1a                	jg     801071df <uartputc+0x49>
801071c5:	83 ec 0c             	sub    $0xc,%esp
801071c8:	68 fd 03 00 00       	push   $0x3fd
801071cd:	e8 a1 fe ff ff       	call   80107073 <inb>
801071d2:	83 c4 10             	add    $0x10,%esp
801071d5:	0f b6 c0             	movzbl %al,%eax
801071d8:	83 e0 20             	and    $0x20,%eax
801071db:	85 c0                	test   %eax,%eax
801071dd:	74 cf                	je     801071ae <uartputc+0x18>
801071df:	8b 45 08             	mov    0x8(%ebp),%eax
801071e2:	0f b6 c0             	movzbl %al,%eax
801071e5:	83 ec 08             	sub    $0x8,%esp
801071e8:	50                   	push   %eax
801071e9:	68 f8 03 00 00       	push   $0x3f8
801071ee:	e8 9d fe ff ff       	call   80107090 <outb>
801071f3:	83 c4 10             	add    $0x10,%esp
801071f6:	eb 01                	jmp    801071f9 <uartputc+0x63>
801071f8:	90                   	nop
801071f9:	c9                   	leave  
801071fa:	c3                   	ret    

801071fb <uartgetc>:
801071fb:	55                   	push   %ebp
801071fc:	89 e5                	mov    %esp,%ebp
801071fe:	a1 4c c6 10 80       	mov    0x8010c64c,%eax
80107203:	85 c0                	test   %eax,%eax
80107205:	75 07                	jne    8010720e <uartgetc+0x13>
80107207:	b8 ff ff ff ff       	mov    $0xffffffff,%eax
8010720c:	eb 2e                	jmp    8010723c <uartgetc+0x41>
8010720e:	68 fd 03 00 00       	push   $0x3fd
80107213:	e8 5b fe ff ff       	call   80107073 <inb>
80107218:	83 c4 04             	add    $0x4,%esp
8010721b:	0f b6 c0             	movzbl %al,%eax
8010721e:	83 e0 01             	and    $0x1,%eax
80107221:	85 c0                	test   %eax,%eax
80107223:	75 07                	jne    8010722c <uartgetc+0x31>
80107225:	b8 ff ff ff ff       	mov    $0xffffffff,%eax
8010722a:	eb 10                	jmp    8010723c <uartgetc+0x41>
8010722c:	68 f8 03 00 00       	push   $0x3f8
80107231:	e8 3d fe ff ff       	call   80107073 <inb>
80107236:	83 c4 04             	add    $0x4,%esp
80107239:	0f b6 c0             	movzbl %al,%eax
8010723c:	c9                   	leave  
8010723d:	c3                   	ret    

8010723e <uartintr>:
8010723e:	55                   	push   %ebp
8010723f:	89 e5                	mov    %esp,%ebp
80107241:	83 ec 08             	sub    $0x8,%esp
80107244:	83 ec 0c             	sub    $0xc,%esp
80107247:	68 fb 71 10 80       	push   $0x801071fb
8010724c:	e8 db 95 ff ff       	call   8010082c <consoleintr>
80107251:	83 c4 10             	add    $0x10,%esp
80107254:	90                   	nop
80107255:	c9                   	leave  
80107256:	c3                   	ret    

80107257 <vector0>:
80107257:	6a 00                	push   $0x0
80107259:	6a 00                	push   $0x0
8010725b:	e9 aa f9 ff ff       	jmp    80106c0a <alltraps>

80107260 <vector1>:
80107260:	6a 00                	push   $0x0
80107262:	6a 01                	push   $0x1
80107264:	e9 a1 f9 ff ff       	jmp    80106c0a <alltraps>

80107269 <vector2>:
80107269:	6a 00                	push   $0x0
8010726b:	6a 02                	push   $0x2
8010726d:	e9 98 f9 ff ff       	jmp    80106c0a <alltraps>

80107272 <vector3>:
80107272:	6a 00                	push   $0x0
80107274:	6a 03                	push   $0x3
80107276:	e9 8f f9 ff ff       	jmp    80106c0a <alltraps>

8010727b <vector4>:
8010727b:	6a 00                	push   $0x0
8010727d:	6a 04                	push   $0x4
8010727f:	e9 86 f9 ff ff       	jmp    80106c0a <alltraps>

80107284 <vector5>:
80107284:	6a 00                	push   $0x0
80107286:	6a 05                	push   $0x5
80107288:	e9 7d f9 ff ff       	jmp    80106c0a <alltraps>

8010728d <vector6>:
8010728d:	6a 00                	push   $0x0
8010728f:	6a 06                	push   $0x6
80107291:	e9 74 f9 ff ff       	jmp    80106c0a <alltraps>

80107296 <vector7>:
80107296:	6a 00                	push   $0x0
80107298:	6a 07                	push   $0x7
8010729a:	e9 6b f9 ff ff       	jmp    80106c0a <alltraps>

8010729f <vector8>:
8010729f:	6a 08                	push   $0x8
801072a1:	e9 64 f9 ff ff       	jmp    80106c0a <alltraps>

801072a6 <vector9>:
801072a6:	6a 00                	push   $0x0
801072a8:	6a 09                	push   $0x9
801072aa:	e9 5b f9 ff ff       	jmp    80106c0a <alltraps>

801072af <vector10>:
801072af:	6a 0a                	push   $0xa
801072b1:	e9 54 f9 ff ff       	jmp    80106c0a <alltraps>

801072b6 <vector11>:
801072b6:	6a 0b                	push   $0xb
801072b8:	e9 4d f9 ff ff       	jmp    80106c0a <alltraps>

801072bd <vector12>:
801072bd:	6a 0c                	push   $0xc
801072bf:	e9 46 f9 ff ff       	jmp    80106c0a <alltraps>

801072c4 <vector13>:
801072c4:	6a 0d                	push   $0xd
801072c6:	e9 3f f9 ff ff       	jmp    80106c0a <alltraps>

801072cb <vector14>:
801072cb:	6a 0e                	push   $0xe
801072cd:	e9 38 f9 ff ff       	jmp    80106c0a <alltraps>

801072d2 <vector15>:
801072d2:	6a 00                	push   $0x0
801072d4:	6a 0f                	push   $0xf
801072d6:	e9 2f f9 ff ff       	jmp    80106c0a <alltraps>

801072db <vector16>:
801072db:	6a 00                	push   $0x0
801072dd:	6a 10                	push   $0x10
801072df:	e9 26 f9 ff ff       	jmp    80106c0a <alltraps>

801072e4 <vector17>:
801072e4:	6a 11                	push   $0x11
801072e6:	e9 1f f9 ff ff       	jmp    80106c0a <alltraps>

801072eb <vector18>:
801072eb:	6a 00                	push   $0x0
801072ed:	6a 12                	push   $0x12
801072ef:	e9 16 f9 ff ff       	jmp    80106c0a <alltraps>

801072f4 <vector19>:
801072f4:	6a 00                	push   $0x0
801072f6:	6a 13                	push   $0x13
801072f8:	e9 0d f9 ff ff       	jmp    80106c0a <alltraps>

801072fd <vector20>:
801072fd:	6a 00                	push   $0x0
801072ff:	6a 14                	push   $0x14
80107301:	e9 04 f9 ff ff       	jmp    80106c0a <alltraps>

80107306 <vector21>:
80107306:	6a 00                	push   $0x0
80107308:	6a 15                	push   $0x15
8010730a:	e9 fb f8 ff ff       	jmp    80106c0a <alltraps>

8010730f <vector22>:
8010730f:	6a 00                	push   $0x0
80107311:	6a 16                	push   $0x16
80107313:	e9 f2 f8 ff ff       	jmp    80106c0a <alltraps>

80107318 <vector23>:
80107318:	6a 00                	push   $0x0
8010731a:	6a 17                	push   $0x17
8010731c:	e9 e9 f8 ff ff       	jmp    80106c0a <alltraps>

80107321 <vector24>:
80107321:	6a 00                	push   $0x0
80107323:	6a 18                	push   $0x18
80107325:	e9 e0 f8 ff ff       	jmp    80106c0a <alltraps>

8010732a <vector25>:
8010732a:	6a 00                	push   $0x0
8010732c:	6a 19                	push   $0x19
8010732e:	e9 d7 f8 ff ff       	jmp    80106c0a <alltraps>

80107333 <vector26>:
80107333:	6a 00                	push   $0x0
80107335:	6a 1a                	push   $0x1a
80107337:	e9 ce f8 ff ff       	jmp    80106c0a <alltraps>

8010733c <vector27>:
8010733c:	6a 00                	push   $0x0
8010733e:	6a 1b                	push   $0x1b
80107340:	e9 c5 f8 ff ff       	jmp    80106c0a <alltraps>

80107345 <vector28>:
80107345:	6a 00                	push   $0x0
80107347:	6a 1c                	push   $0x1c
80107349:	e9 bc f8 ff ff       	jmp    80106c0a <alltraps>

8010734e <vector29>:
8010734e:	6a 00                	push   $0x0
80107350:	6a 1d                	push   $0x1d
80107352:	e9 b3 f8 ff ff       	jmp    80106c0a <alltraps>

80107357 <vector30>:
80107357:	6a 00                	push   $0x0
80107359:	6a 1e                	push   $0x1e
8010735b:	e9 aa f8 ff ff       	jmp    80106c0a <alltraps>

80107360 <vector31>:
80107360:	6a 00                	push   $0x0
80107362:	6a 1f                	push   $0x1f
80107364:	e9 a1 f8 ff ff       	jmp    80106c0a <alltraps>

80107369 <vector32>:
80107369:	6a 00                	push   $0x0
8010736b:	6a 20                	push   $0x20
8010736d:	e9 98 f8 ff ff       	jmp    80106c0a <alltraps>

80107372 <vector33>:
80107372:	6a 00                	push   $0x0
80107374:	6a 21                	push   $0x21
80107376:	e9 8f f8 ff ff       	jmp    80106c0a <alltraps>

8010737b <vector34>:
8010737b:	6a 00                	push   $0x0
8010737d:	6a 22                	push   $0x22
8010737f:	e9 86 f8 ff ff       	jmp    80106c0a <alltraps>

80107384 <vector35>:
80107384:	6a 00                	push   $0x0
80107386:	6a 23                	push   $0x23
80107388:	e9 7d f8 ff ff       	jmp    80106c0a <alltraps>

8010738d <vector36>:
8010738d:	6a 00                	push   $0x0
8010738f:	6a 24                	push   $0x24
80107391:	e9 74 f8 ff ff       	jmp    80106c0a <alltraps>

80107396 <vector37>:
80107396:	6a 00                	push   $0x0
80107398:	6a 25                	push   $0x25
8010739a:	e9 6b f8 ff ff       	jmp    80106c0a <alltraps>

8010739f <vector38>:
8010739f:	6a 00                	push   $0x0
801073a1:	6a 26                	push   $0x26
801073a3:	e9 62 f8 ff ff       	jmp    80106c0a <alltraps>

801073a8 <vector39>:
801073a8:	6a 00                	push   $0x0
801073aa:	6a 27                	push   $0x27
801073ac:	e9 59 f8 ff ff       	jmp    80106c0a <alltraps>

801073b1 <vector40>:
801073b1:	6a 00                	push   $0x0
801073b3:	6a 28                	push   $0x28
801073b5:	e9 50 f8 ff ff       	jmp    80106c0a <alltraps>

801073ba <vector41>:
801073ba:	6a 00                	push   $0x0
801073bc:	6a 29                	push   $0x29
801073be:	e9 47 f8 ff ff       	jmp    80106c0a <alltraps>

801073c3 <vector42>:
801073c3:	6a 00                	push   $0x0
801073c5:	6a 2a                	push   $0x2a
801073c7:	e9 3e f8 ff ff       	jmp    80106c0a <alltraps>

801073cc <vector43>:
801073cc:	6a 00                	push   $0x0
801073ce:	6a 2b                	push   $0x2b
801073d0:	e9 35 f8 ff ff       	jmp    80106c0a <alltraps>

801073d5 <vector44>:
801073d5:	6a 00                	push   $0x0
801073d7:	6a 2c                	push   $0x2c
801073d9:	e9 2c f8 ff ff       	jmp    80106c0a <alltraps>

801073de <vector45>:
801073de:	6a 00                	push   $0x0
801073e0:	6a 2d                	push   $0x2d
801073e2:	e9 23 f8 ff ff       	jmp    80106c0a <alltraps>

801073e7 <vector46>:
801073e7:	6a 00                	push   $0x0
801073e9:	6a 2e                	push   $0x2e
801073eb:	e9 1a f8 ff ff       	jmp    80106c0a <alltraps>

801073f0 <vector47>:
801073f0:	6a 00                	push   $0x0
801073f2:	6a 2f                	push   $0x2f
801073f4:	e9 11 f8 ff ff       	jmp    80106c0a <alltraps>

801073f9 <vector48>:
801073f9:	6a 00                	push   $0x0
801073fb:	6a 30                	push   $0x30
801073fd:	e9 08 f8 ff ff       	jmp    80106c0a <alltraps>

80107402 <vector49>:
80107402:	6a 00                	push   $0x0
80107404:	6a 31                	push   $0x31
80107406:	e9 ff f7 ff ff       	jmp    80106c0a <alltraps>

8010740b <vector50>:
8010740b:	6a 00                	push   $0x0
8010740d:	6a 32                	push   $0x32
8010740f:	e9 f6 f7 ff ff       	jmp    80106c0a <alltraps>

80107414 <vector51>:
80107414:	6a 00                	push   $0x0
80107416:	6a 33                	push   $0x33
80107418:	e9 ed f7 ff ff       	jmp    80106c0a <alltraps>

8010741d <vector52>:
8010741d:	6a 00                	push   $0x0
8010741f:	6a 34                	push   $0x34
80107421:	e9 e4 f7 ff ff       	jmp    80106c0a <alltraps>

80107426 <vector53>:
80107426:	6a 00                	push   $0x0
80107428:	6a 35                	push   $0x35
8010742a:	e9 db f7 ff ff       	jmp    80106c0a <alltraps>

8010742f <vector54>:
8010742f:	6a 00                	push   $0x0
80107431:	6a 36                	push   $0x36
80107433:	e9 d2 f7 ff ff       	jmp    80106c0a <alltraps>

80107438 <vector55>:
80107438:	6a 00                	push   $0x0
8010743a:	6a 37                	push   $0x37
8010743c:	e9 c9 f7 ff ff       	jmp    80106c0a <alltraps>

80107441 <vector56>:
80107441:	6a 00                	push   $0x0
80107443:	6a 38                	push   $0x38
80107445:	e9 c0 f7 ff ff       	jmp    80106c0a <alltraps>

8010744a <vector57>:
8010744a:	6a 00                	push   $0x0
8010744c:	6a 39                	push   $0x39
8010744e:	e9 b7 f7 ff ff       	jmp    80106c0a <alltraps>

80107453 <vector58>:
80107453:	6a 00                	push   $0x0
80107455:	6a 3a                	push   $0x3a
80107457:	e9 ae f7 ff ff       	jmp    80106c0a <alltraps>

8010745c <vector59>:
8010745c:	6a 00                	push   $0x0
8010745e:	6a 3b                	push   $0x3b
80107460:	e9 a5 f7 ff ff       	jmp    80106c0a <alltraps>

80107465 <vector60>:
80107465:	6a 00                	push   $0x0
80107467:	6a 3c                	push   $0x3c
80107469:	e9 9c f7 ff ff       	jmp    80106c0a <alltraps>

8010746e <vector61>:
8010746e:	6a 00                	push   $0x0
80107470:	6a 3d                	push   $0x3d
80107472:	e9 93 f7 ff ff       	jmp    80106c0a <alltraps>

80107477 <vector62>:
80107477:	6a 00                	push   $0x0
80107479:	6a 3e                	push   $0x3e
8010747b:	e9 8a f7 ff ff       	jmp    80106c0a <alltraps>

80107480 <vector63>:
80107480:	6a 00                	push   $0x0
80107482:	6a 3f                	push   $0x3f
80107484:	e9 81 f7 ff ff       	jmp    80106c0a <alltraps>

80107489 <vector64>:
80107489:	6a 00                	push   $0x0
8010748b:	6a 40                	push   $0x40
8010748d:	e9 78 f7 ff ff       	jmp    80106c0a <alltraps>

80107492 <vector65>:
80107492:	6a 00                	push   $0x0
80107494:	6a 41                	push   $0x41
80107496:	e9 6f f7 ff ff       	jmp    80106c0a <alltraps>

8010749b <vector66>:
8010749b:	6a 00                	push   $0x0
8010749d:	6a 42                	push   $0x42
8010749f:	e9 66 f7 ff ff       	jmp    80106c0a <alltraps>

801074a4 <vector67>:
801074a4:	6a 00                	push   $0x0
801074a6:	6a 43                	push   $0x43
801074a8:	e9 5d f7 ff ff       	jmp    80106c0a <alltraps>

801074ad <vector68>:
801074ad:	6a 00                	push   $0x0
801074af:	6a 44                	push   $0x44
801074b1:	e9 54 f7 ff ff       	jmp    80106c0a <alltraps>

801074b6 <vector69>:
801074b6:	6a 00                	push   $0x0
801074b8:	6a 45                	push   $0x45
801074ba:	e9 4b f7 ff ff       	jmp    80106c0a <alltraps>

801074bf <vector70>:
801074bf:	6a 00                	push   $0x0
801074c1:	6a 46                	push   $0x46
801074c3:	e9 42 f7 ff ff       	jmp    80106c0a <alltraps>

801074c8 <vector71>:
801074c8:	6a 00                	push   $0x0
801074ca:	6a 47                	push   $0x47
801074cc:	e9 39 f7 ff ff       	jmp    80106c0a <alltraps>

801074d1 <vector72>:
801074d1:	6a 00                	push   $0x0
801074d3:	6a 48                	push   $0x48
801074d5:	e9 30 f7 ff ff       	jmp    80106c0a <alltraps>

801074da <vector73>:
801074da:	6a 00                	push   $0x0
801074dc:	6a 49                	push   $0x49
801074de:	e9 27 f7 ff ff       	jmp    80106c0a <alltraps>

801074e3 <vector74>:
801074e3:	6a 00                	push   $0x0
801074e5:	6a 4a                	push   $0x4a
801074e7:	e9 1e f7 ff ff       	jmp    80106c0a <alltraps>

801074ec <vector75>:
801074ec:	6a 00                	push   $0x0
801074ee:	6a 4b                	push   $0x4b
801074f0:	e9 15 f7 ff ff       	jmp    80106c0a <alltraps>

801074f5 <vector76>:
801074f5:	6a 00                	push   $0x0
801074f7:	6a 4c                	push   $0x4c
801074f9:	e9 0c f7 ff ff       	jmp    80106c0a <alltraps>

801074fe <vector77>:
801074fe:	6a 00                	push   $0x0
80107500:	6a 4d                	push   $0x4d
80107502:	e9 03 f7 ff ff       	jmp    80106c0a <alltraps>

80107507 <vector78>:
80107507:	6a 00                	push   $0x0
80107509:	6a 4e                	push   $0x4e
8010750b:	e9 fa f6 ff ff       	jmp    80106c0a <alltraps>

80107510 <vector79>:
80107510:	6a 00                	push   $0x0
80107512:	6a 4f                	push   $0x4f
80107514:	e9 f1 f6 ff ff       	jmp    80106c0a <alltraps>

80107519 <vector80>:
80107519:	6a 00                	push   $0x0
8010751b:	6a 50                	push   $0x50
8010751d:	e9 e8 f6 ff ff       	jmp    80106c0a <alltraps>

80107522 <vector81>:
80107522:	6a 00                	push   $0x0
80107524:	6a 51                	push   $0x51
80107526:	e9 df f6 ff ff       	jmp    80106c0a <alltraps>

8010752b <vector82>:
8010752b:	6a 00                	push   $0x0
8010752d:	6a 52                	push   $0x52
8010752f:	e9 d6 f6 ff ff       	jmp    80106c0a <alltraps>

80107534 <vector83>:
80107534:	6a 00                	push   $0x0
80107536:	6a 53                	push   $0x53
80107538:	e9 cd f6 ff ff       	jmp    80106c0a <alltraps>

8010753d <vector84>:
8010753d:	6a 00                	push   $0x0
8010753f:	6a 54                	push   $0x54
80107541:	e9 c4 f6 ff ff       	jmp    80106c0a <alltraps>

80107546 <vector85>:
80107546:	6a 00                	push   $0x0
80107548:	6a 55                	push   $0x55
8010754a:	e9 bb f6 ff ff       	jmp    80106c0a <alltraps>

8010754f <vector86>:
8010754f:	6a 00                	push   $0x0
80107551:	6a 56                	push   $0x56
80107553:	e9 b2 f6 ff ff       	jmp    80106c0a <alltraps>

80107558 <vector87>:
80107558:	6a 00                	push   $0x0
8010755a:	6a 57                	push   $0x57
8010755c:	e9 a9 f6 ff ff       	jmp    80106c0a <alltraps>

80107561 <vector88>:
80107561:	6a 00                	push   $0x0
80107563:	6a 58                	push   $0x58
80107565:	e9 a0 f6 ff ff       	jmp    80106c0a <alltraps>

8010756a <vector89>:
8010756a:	6a 00                	push   $0x0
8010756c:	6a 59                	push   $0x59
8010756e:	e9 97 f6 ff ff       	jmp    80106c0a <alltraps>

80107573 <vector90>:
80107573:	6a 00                	push   $0x0
80107575:	6a 5a                	push   $0x5a
80107577:	e9 8e f6 ff ff       	jmp    80106c0a <alltraps>

8010757c <vector91>:
8010757c:	6a 00                	push   $0x0
8010757e:	6a 5b                	push   $0x5b
80107580:	e9 85 f6 ff ff       	jmp    80106c0a <alltraps>

80107585 <vector92>:
80107585:	6a 00                	push   $0x0
80107587:	6a 5c                	push   $0x5c
80107589:	e9 7c f6 ff ff       	jmp    80106c0a <alltraps>

8010758e <vector93>:
8010758e:	6a 00                	push   $0x0
80107590:	6a 5d                	push   $0x5d
80107592:	e9 73 f6 ff ff       	jmp    80106c0a <alltraps>

80107597 <vector94>:
80107597:	6a 00                	push   $0x0
80107599:	6a 5e                	push   $0x5e
8010759b:	e9 6a f6 ff ff       	jmp    80106c0a <alltraps>

801075a0 <vector95>:
801075a0:	6a 00                	push   $0x0
801075a2:	6a 5f                	push   $0x5f
801075a4:	e9 61 f6 ff ff       	jmp    80106c0a <alltraps>

801075a9 <vector96>:
801075a9:	6a 00                	push   $0x0
801075ab:	6a 60                	push   $0x60
801075ad:	e9 58 f6 ff ff       	jmp    80106c0a <alltraps>

801075b2 <vector97>:
801075b2:	6a 00                	push   $0x0
801075b4:	6a 61                	push   $0x61
801075b6:	e9 4f f6 ff ff       	jmp    80106c0a <alltraps>

801075bb <vector98>:
801075bb:	6a 00                	push   $0x0
801075bd:	6a 62                	push   $0x62
801075bf:	e9 46 f6 ff ff       	jmp    80106c0a <alltraps>

801075c4 <vector99>:
801075c4:	6a 00                	push   $0x0
801075c6:	6a 63                	push   $0x63
801075c8:	e9 3d f6 ff ff       	jmp    80106c0a <alltraps>

801075cd <vector100>:
801075cd:	6a 00                	push   $0x0
801075cf:	6a 64                	push   $0x64
801075d1:	e9 34 f6 ff ff       	jmp    80106c0a <alltraps>

801075d6 <vector101>:
801075d6:	6a 00                	push   $0x0
801075d8:	6a 65                	push   $0x65
801075da:	e9 2b f6 ff ff       	jmp    80106c0a <alltraps>

801075df <vector102>:
801075df:	6a 00                	push   $0x0
801075e1:	6a 66                	push   $0x66
801075e3:	e9 22 f6 ff ff       	jmp    80106c0a <alltraps>

801075e8 <vector103>:
801075e8:	6a 00                	push   $0x0
801075ea:	6a 67                	push   $0x67
801075ec:	e9 19 f6 ff ff       	jmp    80106c0a <alltraps>

801075f1 <vector104>:
801075f1:	6a 00                	push   $0x0
801075f3:	6a 68                	push   $0x68
801075f5:	e9 10 f6 ff ff       	jmp    80106c0a <alltraps>

801075fa <vector105>:
801075fa:	6a 00                	push   $0x0
801075fc:	6a 69                	push   $0x69
801075fe:	e9 07 f6 ff ff       	jmp    80106c0a <alltraps>

80107603 <vector106>:
80107603:	6a 00                	push   $0x0
80107605:	6a 6a                	push   $0x6a
80107607:	e9 fe f5 ff ff       	jmp    80106c0a <alltraps>

8010760c <vector107>:
8010760c:	6a 00                	push   $0x0
8010760e:	6a 6b                	push   $0x6b
80107610:	e9 f5 f5 ff ff       	jmp    80106c0a <alltraps>

80107615 <vector108>:
80107615:	6a 00                	push   $0x0
80107617:	6a 6c                	push   $0x6c
80107619:	e9 ec f5 ff ff       	jmp    80106c0a <alltraps>

8010761e <vector109>:
8010761e:	6a 00                	push   $0x0
80107620:	6a 6d                	push   $0x6d
80107622:	e9 e3 f5 ff ff       	jmp    80106c0a <alltraps>

80107627 <vector110>:
80107627:	6a 00                	push   $0x0
80107629:	6a 6e                	push   $0x6e
8010762b:	e9 da f5 ff ff       	jmp    80106c0a <alltraps>

80107630 <vector111>:
80107630:	6a 00                	push   $0x0
80107632:	6a 6f                	push   $0x6f
80107634:	e9 d1 f5 ff ff       	jmp    80106c0a <alltraps>

80107639 <vector112>:
80107639:	6a 00                	push   $0x0
8010763b:	6a 70                	push   $0x70
8010763d:	e9 c8 f5 ff ff       	jmp    80106c0a <alltraps>

80107642 <vector113>:
80107642:	6a 00                	push   $0x0
80107644:	6a 71                	push   $0x71
80107646:	e9 bf f5 ff ff       	jmp    80106c0a <alltraps>

8010764b <vector114>:
8010764b:	6a 00                	push   $0x0
8010764d:	6a 72                	push   $0x72
8010764f:	e9 b6 f5 ff ff       	jmp    80106c0a <alltraps>

80107654 <vector115>:
80107654:	6a 00                	push   $0x0
80107656:	6a 73                	push   $0x73
80107658:	e9 ad f5 ff ff       	jmp    80106c0a <alltraps>

8010765d <vector116>:
8010765d:	6a 00                	push   $0x0
8010765f:	6a 74                	push   $0x74
80107661:	e9 a4 f5 ff ff       	jmp    80106c0a <alltraps>

80107666 <vector117>:
80107666:	6a 00                	push   $0x0
80107668:	6a 75                	push   $0x75
8010766a:	e9 9b f5 ff ff       	jmp    80106c0a <alltraps>

8010766f <vector118>:
8010766f:	6a 00                	push   $0x0
80107671:	6a 76                	push   $0x76
80107673:	e9 92 f5 ff ff       	jmp    80106c0a <alltraps>

80107678 <vector119>:
80107678:	6a 00                	push   $0x0
8010767a:	6a 77                	push   $0x77
8010767c:	e9 89 f5 ff ff       	jmp    80106c0a <alltraps>

80107681 <vector120>:
80107681:	6a 00                	push   $0x0
80107683:	6a 78                	push   $0x78
80107685:	e9 80 f5 ff ff       	jmp    80106c0a <alltraps>

8010768a <vector121>:
8010768a:	6a 00                	push   $0x0
8010768c:	6a 79                	push   $0x79
8010768e:	e9 77 f5 ff ff       	jmp    80106c0a <alltraps>

80107693 <vector122>:
80107693:	6a 00                	push   $0x0
80107695:	6a 7a                	push   $0x7a
80107697:	e9 6e f5 ff ff       	jmp    80106c0a <alltraps>

8010769c <vector123>:
8010769c:	6a 00                	push   $0x0
8010769e:	6a 7b                	push   $0x7b
801076a0:	e9 65 f5 ff ff       	jmp    80106c0a <alltraps>

801076a5 <vector124>:
801076a5:	6a 00                	push   $0x0
801076a7:	6a 7c                	push   $0x7c
801076a9:	e9 5c f5 ff ff       	jmp    80106c0a <alltraps>

801076ae <vector125>:
801076ae:	6a 00                	push   $0x0
801076b0:	6a 7d                	push   $0x7d
801076b2:	e9 53 f5 ff ff       	jmp    80106c0a <alltraps>

801076b7 <vector126>:
801076b7:	6a 00                	push   $0x0
801076b9:	6a 7e                	push   $0x7e
801076bb:	e9 4a f5 ff ff       	jmp    80106c0a <alltraps>

801076c0 <vector127>:
801076c0:	6a 00                	push   $0x0
801076c2:	6a 7f                	push   $0x7f
801076c4:	e9 41 f5 ff ff       	jmp    80106c0a <alltraps>

801076c9 <vector128>:
801076c9:	6a 00                	push   $0x0
801076cb:	68 80 00 00 00       	push   $0x80
801076d0:	e9 35 f5 ff ff       	jmp    80106c0a <alltraps>

801076d5 <vector129>:
801076d5:	6a 00                	push   $0x0
801076d7:	68 81 00 00 00       	push   $0x81
801076dc:	e9 29 f5 ff ff       	jmp    80106c0a <alltraps>

801076e1 <vector130>:
801076e1:	6a 00                	push   $0x0
801076e3:	68 82 00 00 00       	push   $0x82
801076e8:	e9 1d f5 ff ff       	jmp    80106c0a <alltraps>

801076ed <vector131>:
801076ed:	6a 00                	push   $0x0
801076ef:	68 83 00 00 00       	push   $0x83
801076f4:	e9 11 f5 ff ff       	jmp    80106c0a <alltraps>

801076f9 <vector132>:
801076f9:	6a 00                	push   $0x0
801076fb:	68 84 00 00 00       	push   $0x84
80107700:	e9 05 f5 ff ff       	jmp    80106c0a <alltraps>

80107705 <vector133>:
80107705:	6a 00                	push   $0x0
80107707:	68 85 00 00 00       	push   $0x85
8010770c:	e9 f9 f4 ff ff       	jmp    80106c0a <alltraps>

80107711 <vector134>:
80107711:	6a 00                	push   $0x0
80107713:	68 86 00 00 00       	push   $0x86
80107718:	e9 ed f4 ff ff       	jmp    80106c0a <alltraps>

8010771d <vector135>:
8010771d:	6a 00                	push   $0x0
8010771f:	68 87 00 00 00       	push   $0x87
80107724:	e9 e1 f4 ff ff       	jmp    80106c0a <alltraps>

80107729 <vector136>:
80107729:	6a 00                	push   $0x0
8010772b:	68 88 00 00 00       	push   $0x88
80107730:	e9 d5 f4 ff ff       	jmp    80106c0a <alltraps>

80107735 <vector137>:
80107735:	6a 00                	push   $0x0
80107737:	68 89 00 00 00       	push   $0x89
8010773c:	e9 c9 f4 ff ff       	jmp    80106c0a <alltraps>

80107741 <vector138>:
80107741:	6a 00                	push   $0x0
80107743:	68 8a 00 00 00       	push   $0x8a
80107748:	e9 bd f4 ff ff       	jmp    80106c0a <alltraps>

8010774d <vector139>:
8010774d:	6a 00                	push   $0x0
8010774f:	68 8b 00 00 00       	push   $0x8b
80107754:	e9 b1 f4 ff ff       	jmp    80106c0a <alltraps>

80107759 <vector140>:
80107759:	6a 00                	push   $0x0
8010775b:	68 8c 00 00 00       	push   $0x8c
80107760:	e9 a5 f4 ff ff       	jmp    80106c0a <alltraps>

80107765 <vector141>:
80107765:	6a 00                	push   $0x0
80107767:	68 8d 00 00 00       	push   $0x8d
8010776c:	e9 99 f4 ff ff       	jmp    80106c0a <alltraps>

80107771 <vector142>:
80107771:	6a 00                	push   $0x0
80107773:	68 8e 00 00 00       	push   $0x8e
80107778:	e9 8d f4 ff ff       	jmp    80106c0a <alltraps>

8010777d <vector143>:
8010777d:	6a 00                	push   $0x0
8010777f:	68 8f 00 00 00       	push   $0x8f
80107784:	e9 81 f4 ff ff       	jmp    80106c0a <alltraps>

80107789 <vector144>:
80107789:	6a 00                	push   $0x0
8010778b:	68 90 00 00 00       	push   $0x90
80107790:	e9 75 f4 ff ff       	jmp    80106c0a <alltraps>

80107795 <vector145>:
80107795:	6a 00                	push   $0x0
80107797:	68 91 00 00 00       	push   $0x91
8010779c:	e9 69 f4 ff ff       	jmp    80106c0a <alltraps>

801077a1 <vector146>:
801077a1:	6a 00                	push   $0x0
801077a3:	68 92 00 00 00       	push   $0x92
801077a8:	e9 5d f4 ff ff       	jmp    80106c0a <alltraps>

801077ad <vector147>:
801077ad:	6a 00                	push   $0x0
801077af:	68 93 00 00 00       	push   $0x93
801077b4:	e9 51 f4 ff ff       	jmp    80106c0a <alltraps>

801077b9 <vector148>:
801077b9:	6a 00                	push   $0x0
801077bb:	68 94 00 00 00       	push   $0x94
801077c0:	e9 45 f4 ff ff       	jmp    80106c0a <alltraps>

801077c5 <vector149>:
801077c5:	6a 00                	push   $0x0
801077c7:	68 95 00 00 00       	push   $0x95
801077cc:	e9 39 f4 ff ff       	jmp    80106c0a <alltraps>

801077d1 <vector150>:
801077d1:	6a 00                	push   $0x0
801077d3:	68 96 00 00 00       	push   $0x96
801077d8:	e9 2d f4 ff ff       	jmp    80106c0a <alltraps>

801077dd <vector151>:
801077dd:	6a 00                	push   $0x0
801077df:	68 97 00 00 00       	push   $0x97
801077e4:	e9 21 f4 ff ff       	jmp    80106c0a <alltraps>

801077e9 <vector152>:
801077e9:	6a 00                	push   $0x0
801077eb:	68 98 00 00 00       	push   $0x98
801077f0:	e9 15 f4 ff ff       	jmp    80106c0a <alltraps>

801077f5 <vector153>:
801077f5:	6a 00                	push   $0x0
801077f7:	68 99 00 00 00       	push   $0x99
801077fc:	e9 09 f4 ff ff       	jmp    80106c0a <alltraps>

80107801 <vector154>:
80107801:	6a 00                	push   $0x0
80107803:	68 9a 00 00 00       	push   $0x9a
80107808:	e9 fd f3 ff ff       	jmp    80106c0a <alltraps>

8010780d <vector155>:
8010780d:	6a 00                	push   $0x0
8010780f:	68 9b 00 00 00       	push   $0x9b
80107814:	e9 f1 f3 ff ff       	jmp    80106c0a <alltraps>

80107819 <vector156>:
80107819:	6a 00                	push   $0x0
8010781b:	68 9c 00 00 00       	push   $0x9c
80107820:	e9 e5 f3 ff ff       	jmp    80106c0a <alltraps>

80107825 <vector157>:
80107825:	6a 00                	push   $0x0
80107827:	68 9d 00 00 00       	push   $0x9d
8010782c:	e9 d9 f3 ff ff       	jmp    80106c0a <alltraps>

80107831 <vector158>:
80107831:	6a 00                	push   $0x0
80107833:	68 9e 00 00 00       	push   $0x9e
80107838:	e9 cd f3 ff ff       	jmp    80106c0a <alltraps>

8010783d <vector159>:
8010783d:	6a 00                	push   $0x0
8010783f:	68 9f 00 00 00       	push   $0x9f
80107844:	e9 c1 f3 ff ff       	jmp    80106c0a <alltraps>

80107849 <vector160>:
80107849:	6a 00                	push   $0x0
8010784b:	68 a0 00 00 00       	push   $0xa0
80107850:	e9 b5 f3 ff ff       	jmp    80106c0a <alltraps>

80107855 <vector161>:
80107855:	6a 00                	push   $0x0
80107857:	68 a1 00 00 00       	push   $0xa1
8010785c:	e9 a9 f3 ff ff       	jmp    80106c0a <alltraps>

80107861 <vector162>:
80107861:	6a 00                	push   $0x0
80107863:	68 a2 00 00 00       	push   $0xa2
80107868:	e9 9d f3 ff ff       	jmp    80106c0a <alltraps>

8010786d <vector163>:
8010786d:	6a 00                	push   $0x0
8010786f:	68 a3 00 00 00       	push   $0xa3
80107874:	e9 91 f3 ff ff       	jmp    80106c0a <alltraps>

80107879 <vector164>:
80107879:	6a 00                	push   $0x0
8010787b:	68 a4 00 00 00       	push   $0xa4
80107880:	e9 85 f3 ff ff       	jmp    80106c0a <alltraps>

80107885 <vector165>:
80107885:	6a 00                	push   $0x0
80107887:	68 a5 00 00 00       	push   $0xa5
8010788c:	e9 79 f3 ff ff       	jmp    80106c0a <alltraps>

80107891 <vector166>:
80107891:	6a 00                	push   $0x0
80107893:	68 a6 00 00 00       	push   $0xa6
80107898:	e9 6d f3 ff ff       	jmp    80106c0a <alltraps>

8010789d <vector167>:
8010789d:	6a 00                	push   $0x0
8010789f:	68 a7 00 00 00       	push   $0xa7
801078a4:	e9 61 f3 ff ff       	jmp    80106c0a <alltraps>

801078a9 <vector168>:
801078a9:	6a 00                	push   $0x0
801078ab:	68 a8 00 00 00       	push   $0xa8
801078b0:	e9 55 f3 ff ff       	jmp    80106c0a <alltraps>

801078b5 <vector169>:
801078b5:	6a 00                	push   $0x0
801078b7:	68 a9 00 00 00       	push   $0xa9
801078bc:	e9 49 f3 ff ff       	jmp    80106c0a <alltraps>

801078c1 <vector170>:
801078c1:	6a 00                	push   $0x0
801078c3:	68 aa 00 00 00       	push   $0xaa
801078c8:	e9 3d f3 ff ff       	jmp    80106c0a <alltraps>

801078cd <vector171>:
801078cd:	6a 00                	push   $0x0
801078cf:	68 ab 00 00 00       	push   $0xab
801078d4:	e9 31 f3 ff ff       	jmp    80106c0a <alltraps>

801078d9 <vector172>:
801078d9:	6a 00                	push   $0x0
801078db:	68 ac 00 00 00       	push   $0xac
801078e0:	e9 25 f3 ff ff       	jmp    80106c0a <alltraps>

801078e5 <vector173>:
801078e5:	6a 00                	push   $0x0
801078e7:	68 ad 00 00 00       	push   $0xad
801078ec:	e9 19 f3 ff ff       	jmp    80106c0a <alltraps>

801078f1 <vector174>:
801078f1:	6a 00                	push   $0x0
801078f3:	68 ae 00 00 00       	push   $0xae
801078f8:	e9 0d f3 ff ff       	jmp    80106c0a <alltraps>

801078fd <vector175>:
801078fd:	6a 00                	push   $0x0
801078ff:	68 af 00 00 00       	push   $0xaf
80107904:	e9 01 f3 ff ff       	jmp    80106c0a <alltraps>

80107909 <vector176>:
80107909:	6a 00                	push   $0x0
8010790b:	68 b0 00 00 00       	push   $0xb0
80107910:	e9 f5 f2 ff ff       	jmp    80106c0a <alltraps>

80107915 <vector177>:
80107915:	6a 00                	push   $0x0
80107917:	68 b1 00 00 00       	push   $0xb1
8010791c:	e9 e9 f2 ff ff       	jmp    80106c0a <alltraps>

80107921 <vector178>:
80107921:	6a 00                	push   $0x0
80107923:	68 b2 00 00 00       	push   $0xb2
80107928:	e9 dd f2 ff ff       	jmp    80106c0a <alltraps>

8010792d <vector179>:
8010792d:	6a 00                	push   $0x0
8010792f:	68 b3 00 00 00       	push   $0xb3
80107934:	e9 d1 f2 ff ff       	jmp    80106c0a <alltraps>

80107939 <vector180>:
80107939:	6a 00                	push   $0x0
8010793b:	68 b4 00 00 00       	push   $0xb4
80107940:	e9 c5 f2 ff ff       	jmp    80106c0a <alltraps>

80107945 <vector181>:
80107945:	6a 00                	push   $0x0
80107947:	68 b5 00 00 00       	push   $0xb5
8010794c:	e9 b9 f2 ff ff       	jmp    80106c0a <alltraps>

80107951 <vector182>:
80107951:	6a 00                	push   $0x0
80107953:	68 b6 00 00 00       	push   $0xb6
80107958:	e9 ad f2 ff ff       	jmp    80106c0a <alltraps>

8010795d <vector183>:
8010795d:	6a 00                	push   $0x0
8010795f:	68 b7 00 00 00       	push   $0xb7
80107964:	e9 a1 f2 ff ff       	jmp    80106c0a <alltraps>

80107969 <vector184>:
80107969:	6a 00                	push   $0x0
8010796b:	68 b8 00 00 00       	push   $0xb8
80107970:	e9 95 f2 ff ff       	jmp    80106c0a <alltraps>

80107975 <vector185>:
80107975:	6a 00                	push   $0x0
80107977:	68 b9 00 00 00       	push   $0xb9
8010797c:	e9 89 f2 ff ff       	jmp    80106c0a <alltraps>

80107981 <vector186>:
80107981:	6a 00                	push   $0x0
80107983:	68 ba 00 00 00       	push   $0xba
80107988:	e9 7d f2 ff ff       	jmp    80106c0a <alltraps>

8010798d <vector187>:
8010798d:	6a 00                	push   $0x0
8010798f:	68 bb 00 00 00       	push   $0xbb
80107994:	e9 71 f2 ff ff       	jmp    80106c0a <alltraps>

80107999 <vector188>:
80107999:	6a 00                	push   $0x0
8010799b:	68 bc 00 00 00       	push   $0xbc
801079a0:	e9 65 f2 ff ff       	jmp    80106c0a <alltraps>

801079a5 <vector189>:
801079a5:	6a 00                	push   $0x0
801079a7:	68 bd 00 00 00       	push   $0xbd
801079ac:	e9 59 f2 ff ff       	jmp    80106c0a <alltraps>

801079b1 <vector190>:
801079b1:	6a 00                	push   $0x0
801079b3:	68 be 00 00 00       	push   $0xbe
801079b8:	e9 4d f2 ff ff       	jmp    80106c0a <alltraps>

801079bd <vector191>:
801079bd:	6a 00                	push   $0x0
801079bf:	68 bf 00 00 00       	push   $0xbf
801079c4:	e9 41 f2 ff ff       	jmp    80106c0a <alltraps>

801079c9 <vector192>:
801079c9:	6a 00                	push   $0x0
801079cb:	68 c0 00 00 00       	push   $0xc0
801079d0:	e9 35 f2 ff ff       	jmp    80106c0a <alltraps>

801079d5 <vector193>:
801079d5:	6a 00                	push   $0x0
801079d7:	68 c1 00 00 00       	push   $0xc1
801079dc:	e9 29 f2 ff ff       	jmp    80106c0a <alltraps>

801079e1 <vector194>:
801079e1:	6a 00                	push   $0x0
801079e3:	68 c2 00 00 00       	push   $0xc2
801079e8:	e9 1d f2 ff ff       	jmp    80106c0a <alltraps>

801079ed <vector195>:
801079ed:	6a 00                	push   $0x0
801079ef:	68 c3 00 00 00       	push   $0xc3
801079f4:	e9 11 f2 ff ff       	jmp    80106c0a <alltraps>

801079f9 <vector196>:
801079f9:	6a 00                	push   $0x0
801079fb:	68 c4 00 00 00       	push   $0xc4
80107a00:	e9 05 f2 ff ff       	jmp    80106c0a <alltraps>

80107a05 <vector197>:
80107a05:	6a 00                	push   $0x0
80107a07:	68 c5 00 00 00       	push   $0xc5
80107a0c:	e9 f9 f1 ff ff       	jmp    80106c0a <alltraps>

80107a11 <vector198>:
80107a11:	6a 00                	push   $0x0
80107a13:	68 c6 00 00 00       	push   $0xc6
80107a18:	e9 ed f1 ff ff       	jmp    80106c0a <alltraps>

80107a1d <vector199>:
80107a1d:	6a 00                	push   $0x0
80107a1f:	68 c7 00 00 00       	push   $0xc7
80107a24:	e9 e1 f1 ff ff       	jmp    80106c0a <alltraps>

80107a29 <vector200>:
80107a29:	6a 00                	push   $0x0
80107a2b:	68 c8 00 00 00       	push   $0xc8
80107a30:	e9 d5 f1 ff ff       	jmp    80106c0a <alltraps>

80107a35 <vector201>:
80107a35:	6a 00                	push   $0x0
80107a37:	68 c9 00 00 00       	push   $0xc9
80107a3c:	e9 c9 f1 ff ff       	jmp    80106c0a <alltraps>

80107a41 <vector202>:
80107a41:	6a 00                	push   $0x0
80107a43:	68 ca 00 00 00       	push   $0xca
80107a48:	e9 bd f1 ff ff       	jmp    80106c0a <alltraps>

80107a4d <vector203>:
80107a4d:	6a 00                	push   $0x0
80107a4f:	68 cb 00 00 00       	push   $0xcb
80107a54:	e9 b1 f1 ff ff       	jmp    80106c0a <alltraps>

80107a59 <vector204>:
80107a59:	6a 00                	push   $0x0
80107a5b:	68 cc 00 00 00       	push   $0xcc
80107a60:	e9 a5 f1 ff ff       	jmp    80106c0a <alltraps>

80107a65 <vector205>:
80107a65:	6a 00                	push   $0x0
80107a67:	68 cd 00 00 00       	push   $0xcd
80107a6c:	e9 99 f1 ff ff       	jmp    80106c0a <alltraps>

80107a71 <vector206>:
80107a71:	6a 00                	push   $0x0
80107a73:	68 ce 00 00 00       	push   $0xce
80107a78:	e9 8d f1 ff ff       	jmp    80106c0a <alltraps>

80107a7d <vector207>:
80107a7d:	6a 00                	push   $0x0
80107a7f:	68 cf 00 00 00       	push   $0xcf
80107a84:	e9 81 f1 ff ff       	jmp    80106c0a <alltraps>

80107a89 <vector208>:
80107a89:	6a 00                	push   $0x0
80107a8b:	68 d0 00 00 00       	push   $0xd0
80107a90:	e9 75 f1 ff ff       	jmp    80106c0a <alltraps>

80107a95 <vector209>:
80107a95:	6a 00                	push   $0x0
80107a97:	68 d1 00 00 00       	push   $0xd1
80107a9c:	e9 69 f1 ff ff       	jmp    80106c0a <alltraps>

80107aa1 <vector210>:
80107aa1:	6a 00                	push   $0x0
80107aa3:	68 d2 00 00 00       	push   $0xd2
80107aa8:	e9 5d f1 ff ff       	jmp    80106c0a <alltraps>

80107aad <vector211>:
80107aad:	6a 00                	push   $0x0
80107aaf:	68 d3 00 00 00       	push   $0xd3
80107ab4:	e9 51 f1 ff ff       	jmp    80106c0a <alltraps>

80107ab9 <vector212>:
80107ab9:	6a 00                	push   $0x0
80107abb:	68 d4 00 00 00       	push   $0xd4
80107ac0:	e9 45 f1 ff ff       	jmp    80106c0a <alltraps>

80107ac5 <vector213>:
80107ac5:	6a 00                	push   $0x0
80107ac7:	68 d5 00 00 00       	push   $0xd5
80107acc:	e9 39 f1 ff ff       	jmp    80106c0a <alltraps>

80107ad1 <vector214>:
80107ad1:	6a 00                	push   $0x0
80107ad3:	68 d6 00 00 00       	push   $0xd6
80107ad8:	e9 2d f1 ff ff       	jmp    80106c0a <alltraps>

80107add <vector215>:
80107add:	6a 00                	push   $0x0
80107adf:	68 d7 00 00 00       	push   $0xd7
80107ae4:	e9 21 f1 ff ff       	jmp    80106c0a <alltraps>

80107ae9 <vector216>:
80107ae9:	6a 00                	push   $0x0
80107aeb:	68 d8 00 00 00       	push   $0xd8
80107af0:	e9 15 f1 ff ff       	jmp    80106c0a <alltraps>

80107af5 <vector217>:
80107af5:	6a 00                	push   $0x0
80107af7:	68 d9 00 00 00       	push   $0xd9
80107afc:	e9 09 f1 ff ff       	jmp    80106c0a <alltraps>

80107b01 <vector218>:
80107b01:	6a 00                	push   $0x0
80107b03:	68 da 00 00 00       	push   $0xda
80107b08:	e9 fd f0 ff ff       	jmp    80106c0a <alltraps>

80107b0d <vector219>:
80107b0d:	6a 00                	push   $0x0
80107b0f:	68 db 00 00 00       	push   $0xdb
80107b14:	e9 f1 f0 ff ff       	jmp    80106c0a <alltraps>

80107b19 <vector220>:
80107b19:	6a 00                	push   $0x0
80107b1b:	68 dc 00 00 00       	push   $0xdc
80107b20:	e9 e5 f0 ff ff       	jmp    80106c0a <alltraps>

80107b25 <vector221>:
80107b25:	6a 00                	push   $0x0
80107b27:	68 dd 00 00 00       	push   $0xdd
80107b2c:	e9 d9 f0 ff ff       	jmp    80106c0a <alltraps>

80107b31 <vector222>:
80107b31:	6a 00                	push   $0x0
80107b33:	68 de 00 00 00       	push   $0xde
80107b38:	e9 cd f0 ff ff       	jmp    80106c0a <alltraps>

80107b3d <vector223>:
80107b3d:	6a 00                	push   $0x0
80107b3f:	68 df 00 00 00       	push   $0xdf
80107b44:	e9 c1 f0 ff ff       	jmp    80106c0a <alltraps>

80107b49 <vector224>:
80107b49:	6a 00                	push   $0x0
80107b4b:	68 e0 00 00 00       	push   $0xe0
80107b50:	e9 b5 f0 ff ff       	jmp    80106c0a <alltraps>

80107b55 <vector225>:
80107b55:	6a 00                	push   $0x0
80107b57:	68 e1 00 00 00       	push   $0xe1
80107b5c:	e9 a9 f0 ff ff       	jmp    80106c0a <alltraps>

80107b61 <vector226>:
80107b61:	6a 00                	push   $0x0
80107b63:	68 e2 00 00 00       	push   $0xe2
80107b68:	e9 9d f0 ff ff       	jmp    80106c0a <alltraps>

80107b6d <vector227>:
80107b6d:	6a 00                	push   $0x0
80107b6f:	68 e3 00 00 00       	push   $0xe3
80107b74:	e9 91 f0 ff ff       	jmp    80106c0a <alltraps>

80107b79 <vector228>:
80107b79:	6a 00                	push   $0x0
80107b7b:	68 e4 00 00 00       	push   $0xe4
80107b80:	e9 85 f0 ff ff       	jmp    80106c0a <alltraps>

80107b85 <vector229>:
80107b85:	6a 00                	push   $0x0
80107b87:	68 e5 00 00 00       	push   $0xe5
80107b8c:	e9 79 f0 ff ff       	jmp    80106c0a <alltraps>

80107b91 <vector230>:
80107b91:	6a 00                	push   $0x0
80107b93:	68 e6 00 00 00       	push   $0xe6
80107b98:	e9 6d f0 ff ff       	jmp    80106c0a <alltraps>

80107b9d <vector231>:
80107b9d:	6a 00                	push   $0x0
80107b9f:	68 e7 00 00 00       	push   $0xe7
80107ba4:	e9 61 f0 ff ff       	jmp    80106c0a <alltraps>

80107ba9 <vector232>:
80107ba9:	6a 00                	push   $0x0
80107bab:	68 e8 00 00 00       	push   $0xe8
80107bb0:	e9 55 f0 ff ff       	jmp    80106c0a <alltraps>

80107bb5 <vector233>:
80107bb5:	6a 00                	push   $0x0
80107bb7:	68 e9 00 00 00       	push   $0xe9
80107bbc:	e9 49 f0 ff ff       	jmp    80106c0a <alltraps>

80107bc1 <vector234>:
80107bc1:	6a 00                	push   $0x0
80107bc3:	68 ea 00 00 00       	push   $0xea
80107bc8:	e9 3d f0 ff ff       	jmp    80106c0a <alltraps>

80107bcd <vector235>:
80107bcd:	6a 00                	push   $0x0
80107bcf:	68 eb 00 00 00       	push   $0xeb
80107bd4:	e9 31 f0 ff ff       	jmp    80106c0a <alltraps>

80107bd9 <vector236>:
80107bd9:	6a 00                	push   $0x0
80107bdb:	68 ec 00 00 00       	push   $0xec
80107be0:	e9 25 f0 ff ff       	jmp    80106c0a <alltraps>

80107be5 <vector237>:
80107be5:	6a 00                	push   $0x0
80107be7:	68 ed 00 00 00       	push   $0xed
80107bec:	e9 19 f0 ff ff       	jmp    80106c0a <alltraps>

80107bf1 <vector238>:
80107bf1:	6a 00                	push   $0x0
80107bf3:	68 ee 00 00 00       	push   $0xee
80107bf8:	e9 0d f0 ff ff       	jmp    80106c0a <alltraps>

80107bfd <vector239>:
80107bfd:	6a 00                	push   $0x0
80107bff:	68 ef 00 00 00       	push   $0xef
80107c04:	e9 01 f0 ff ff       	jmp    80106c0a <alltraps>

80107c09 <vector240>:
80107c09:	6a 00                	push   $0x0
80107c0b:	68 f0 00 00 00       	push   $0xf0
80107c10:	e9 f5 ef ff ff       	jmp    80106c0a <alltraps>

80107c15 <vector241>:
80107c15:	6a 00                	push   $0x0
80107c17:	68 f1 00 00 00       	push   $0xf1
80107c1c:	e9 e9 ef ff ff       	jmp    80106c0a <alltraps>

80107c21 <vector242>:
80107c21:	6a 00                	push   $0x0
80107c23:	68 f2 00 00 00       	push   $0xf2
80107c28:	e9 dd ef ff ff       	jmp    80106c0a <alltraps>

80107c2d <vector243>:
80107c2d:	6a 00                	push   $0x0
80107c2f:	68 f3 00 00 00       	push   $0xf3
80107c34:	e9 d1 ef ff ff       	jmp    80106c0a <alltraps>

80107c39 <vector244>:
80107c39:	6a 00                	push   $0x0
80107c3b:	68 f4 00 00 00       	push   $0xf4
80107c40:	e9 c5 ef ff ff       	jmp    80106c0a <alltraps>

80107c45 <vector245>:
80107c45:	6a 00                	push   $0x0
80107c47:	68 f5 00 00 00       	push   $0xf5
80107c4c:	e9 b9 ef ff ff       	jmp    80106c0a <alltraps>

80107c51 <vector246>:
80107c51:	6a 00                	push   $0x0
80107c53:	68 f6 00 00 00       	push   $0xf6
80107c58:	e9 ad ef ff ff       	jmp    80106c0a <alltraps>

80107c5d <vector247>:
80107c5d:	6a 00                	push   $0x0
80107c5f:	68 f7 00 00 00       	push   $0xf7
80107c64:	e9 a1 ef ff ff       	jmp    80106c0a <alltraps>

80107c69 <vector248>:
80107c69:	6a 00                	push   $0x0
80107c6b:	68 f8 00 00 00       	push   $0xf8
80107c70:	e9 95 ef ff ff       	jmp    80106c0a <alltraps>

80107c75 <vector249>:
80107c75:	6a 00                	push   $0x0
80107c77:	68 f9 00 00 00       	push   $0xf9
80107c7c:	e9 89 ef ff ff       	jmp    80106c0a <alltraps>

80107c81 <vector250>:
80107c81:	6a 00                	push   $0x0
80107c83:	68 fa 00 00 00       	push   $0xfa
80107c88:	e9 7d ef ff ff       	jmp    80106c0a <alltraps>

80107c8d <vector251>:
80107c8d:	6a 00                	push   $0x0
80107c8f:	68 fb 00 00 00       	push   $0xfb
80107c94:	e9 71 ef ff ff       	jmp    80106c0a <alltraps>

80107c99 <vector252>:
80107c99:	6a 00                	push   $0x0
80107c9b:	68 fc 00 00 00       	push   $0xfc
80107ca0:	e9 65 ef ff ff       	jmp    80106c0a <alltraps>

80107ca5 <vector253>:
80107ca5:	6a 00                	push   $0x0
80107ca7:	68 fd 00 00 00       	push   $0xfd
80107cac:	e9 59 ef ff ff       	jmp    80106c0a <alltraps>

80107cb1 <vector254>:
80107cb1:	6a 00                	push   $0x0
80107cb3:	68 fe 00 00 00       	push   $0xfe
80107cb8:	e9 4d ef ff ff       	jmp    80106c0a <alltraps>

80107cbd <vector255>:
80107cbd:	6a 00                	push   $0x0
80107cbf:	68 ff 00 00 00       	push   $0xff
80107cc4:	e9 41 ef ff ff       	jmp    80106c0a <alltraps>

80107cc9 <lgdt>:
80107cc9:	55                   	push   %ebp
80107cca:	89 e5                	mov    %esp,%ebp
80107ccc:	83 ec 10             	sub    $0x10,%esp
80107ccf:	8b 45 0c             	mov    0xc(%ebp),%eax
80107cd2:	83 e8 01             	sub    $0x1,%eax
80107cd5:	66 89 45 fa          	mov    %ax,-0x6(%ebp)
80107cd9:	8b 45 08             	mov    0x8(%ebp),%eax
80107cdc:	66 89 45 fc          	mov    %ax,-0x4(%ebp)
80107ce0:	8b 45 08             	mov    0x8(%ebp),%eax
80107ce3:	c1 e8 10             	shr    $0x10,%eax
80107ce6:	66 89 45 fe          	mov    %ax,-0x2(%ebp)
80107cea:	8d 45 fa             	lea    -0x6(%ebp),%eax
80107ced:	0f 01 10             	lgdtl  (%eax)
80107cf0:	90                   	nop
80107cf1:	c9                   	leave  
80107cf2:	c3                   	ret    

80107cf3 <ltr>:
80107cf3:	55                   	push   %ebp
80107cf4:	89 e5                	mov    %esp,%ebp
80107cf6:	83 ec 04             	sub    $0x4,%esp
80107cf9:	8b 45 08             	mov    0x8(%ebp),%eax
80107cfc:	66 89 45 fc          	mov    %ax,-0x4(%ebp)
80107d00:	0f b7 45 fc          	movzwl -0x4(%ebp),%eax
80107d04:	0f 00 d8             	ltr    %ax
80107d07:	90                   	nop
80107d08:	c9                   	leave  
80107d09:	c3                   	ret    

80107d0a <lcr3>:
80107d0a:	55                   	push   %ebp
80107d0b:	89 e5                	mov    %esp,%ebp
80107d0d:	8b 45 08             	mov    0x8(%ebp),%eax
80107d10:	0f 22 d8             	mov    %eax,%cr3
80107d13:	90                   	nop
80107d14:	5d                   	pop    %ebp
80107d15:	c3                   	ret    

80107d16 <seginit>:
80107d16:	55                   	push   %ebp
80107d17:	89 e5                	mov    %esp,%ebp
80107d19:	83 ec 18             	sub    $0x18,%esp
80107d1c:	e8 4c c5 ff ff       	call   8010426d <cpuid>
80107d21:	69 c0 b0 00 00 00    	imul   $0xb0,%eax,%eax
80107d27:	05 20 48 11 80       	add    $0x80114820,%eax
80107d2c:	89 45 f4             	mov    %eax,-0xc(%ebp)
80107d2f:	8b 45 f4             	mov    -0xc(%ebp),%eax
80107d32:	66 c7 40 78 ff ff    	movw   $0xffff,0x78(%eax)
80107d38:	8b 45 f4             	mov    -0xc(%ebp),%eax
80107d3b:	66 c7 40 7a 00 00    	movw   $0x0,0x7a(%eax)
80107d41:	8b 45 f4             	mov    -0xc(%ebp),%eax
80107d44:	c6 40 7c 00          	movb   $0x0,0x7c(%eax)
80107d48:	8b 45 f4             	mov    -0xc(%ebp),%eax
80107d4b:	0f b6 50 7d          	movzbl 0x7d(%eax),%edx
80107d4f:	83 e2 f0             	and    $0xfffffff0,%edx
80107d52:	83 ca 0a             	or     $0xa,%edx
80107d55:	88 50 7d             	mov    %dl,0x7d(%eax)
80107d58:	8b 45 f4             	mov    -0xc(%ebp),%eax
80107d5b:	0f b6 50 7d          	movzbl 0x7d(%eax),%edx
80107d5f:	83 ca 10             	or     $0x10,%edx
80107d62:	88 50 7d             	mov    %dl,0x7d(%eax)
80107d65:	8b 45 f4             	mov    -0xc(%ebp),%eax
80107d68:	0f b6 50 7d          	movzbl 0x7d(%eax),%edx
80107d6c:	83 e2 9f             	and    $0xffffff9f,%edx
80107d6f:	88 50 7d             	mov    %dl,0x7d(%eax)
80107d72:	8b 45 f4             	mov    -0xc(%ebp),%eax
80107d75:	0f b6 50 7d          	movzbl 0x7d(%eax),%edx
80107d79:	83 ca 80             	or     $0xffffff80,%edx
80107d7c:	88 50 7d             	mov    %dl,0x7d(%eax)
80107d7f:	8b 45 f4             	mov    -0xc(%ebp),%eax
80107d82:	0f b6 50 7e          	movzbl 0x7e(%eax),%edx
80107d86:	83 ca 0f             	or     $0xf,%edx
80107d89:	88 50 7e             	mov    %dl,0x7e(%eax)
80107d8c:	8b 45 f4             	mov    -0xc(%ebp),%eax
80107d8f:	0f b6 50 7e          	movzbl 0x7e(%eax),%edx
80107d93:	83 e2 ef             	and    $0xffffffef,%edx
80107d96:	88 50 7e             	mov    %dl,0x7e(%eax)
80107d99:	8b 45 f4             	mov    -0xc(%ebp),%eax
80107d9c:	0f b6 50 7e          	movzbl 0x7e(%eax),%edx
80107da0:	83 e2 df             	and    $0xffffffdf,%edx
80107da3:	88 50 7e             	mov    %dl,0x7e(%eax)
80107da6:	8b 45 f4             	mov    -0xc(%ebp),%eax
80107da9:	0f b6 50 7e          	movzbl 0x7e(%eax),%edx
80107dad:	83 ca 40             	or     $0x40,%edx
80107db0:	88 50 7e             	mov    %dl,0x7e(%eax)
80107db3:	8b 45 f4             	mov    -0xc(%ebp),%eax
80107db6:	0f b6 50 7e          	movzbl 0x7e(%eax),%edx
80107dba:	83 ca 80             	or     $0xffffff80,%edx
80107dbd:	88 50 7e             	mov    %dl,0x7e(%eax)
80107dc0:	8b 45 f4             	mov    -0xc(%ebp),%eax
80107dc3:	c6 40 7f 00          	movb   $0x0,0x7f(%eax)
80107dc7:	8b 45 f4             	mov    -0xc(%ebp),%eax
80107dca:	66 c7 80 80 00 00 00 	movw   $0xffff,0x80(%eax)
80107dd1:	ff ff 
80107dd3:	8b 45 f4             	mov    -0xc(%ebp),%eax
80107dd6:	66 c7 80 82 00 00 00 	movw   $0x0,0x82(%eax)
80107ddd:	00 00 
80107ddf:	8b 45 f4             	mov    -0xc(%ebp),%eax
80107de2:	c6 80 84 00 00 00 00 	movb   $0x0,0x84(%eax)
80107de9:	8b 45 f4             	mov    -0xc(%ebp),%eax
80107dec:	0f b6 90 85 00 00 00 	movzbl 0x85(%eax),%edx
80107df3:	83 e2 f0             	and    $0xfffffff0,%edx
80107df6:	83 ca 02             	or     $0x2,%edx
80107df9:	88 90 85 00 00 00    	mov    %dl,0x85(%eax)
80107dff:	8b 45 f4             	mov    -0xc(%ebp),%eax
80107e02:	0f b6 90 85 00 00 00 	movzbl 0x85(%eax),%edx
80107e09:	83 ca 10             	or     $0x10,%edx
80107e0c:	88 90 85 00 00 00    	mov    %dl,0x85(%eax)
80107e12:	8b 45 f4             	mov    -0xc(%ebp),%eax
80107e15:	0f b6 90 85 00 00 00 	movzbl 0x85(%eax),%edx
80107e1c:	83 e2 9f             	and    $0xffffff9f,%edx
80107e1f:	88 90 85 00 00 00    	mov    %dl,0x85(%eax)
80107e25:	8b 45 f4             	mov    -0xc(%ebp),%eax
80107e28:	0f b6 90 85 00 00 00 	movzbl 0x85(%eax),%edx
80107e2f:	83 ca 80             	or     $0xffffff80,%edx
80107e32:	88 90 85 00 00 00    	mov    %dl,0x85(%eax)
80107e38:	8b 45 f4             	mov    -0xc(%ebp),%eax
80107e3b:	0f b6 90 86 00 00 00 	movzbl 0x86(%eax),%edx
80107e42:	83 ca 0f             	or     $0xf,%edx
80107e45:	88 90 86 00 00 00    	mov    %dl,0x86(%eax)
80107e4b:	8b 45 f4             	mov    -0xc(%ebp),%eax
80107e4e:	0f b6 90 86 00 00 00 	movzbl 0x86(%eax),%edx
80107e55:	83 e2 ef             	and    $0xffffffef,%edx
80107e58:	88 90 86 00 00 00    	mov    %dl,0x86(%eax)
80107e5e:	8b 45 f4             	mov    -0xc(%ebp),%eax
80107e61:	0f b6 90 86 00 00 00 	movzbl 0x86(%eax),%edx
80107e68:	83 e2 df             	and    $0xffffffdf,%edx
80107e6b:	88 90 86 00 00 00    	mov    %dl,0x86(%eax)
80107e71:	8b 45 f4             	mov    -0xc(%ebp),%eax
80107e74:	0f b6 90 86 00 00 00 	movzbl 0x86(%eax),%edx
80107e7b:	83 ca 40             	or     $0x40,%edx
80107e7e:	88 90 86 00 00 00    	mov    %dl,0x86(%eax)
80107e84:	8b 45 f4             	mov    -0xc(%ebp),%eax
80107e87:	0f b6 90 86 00 00 00 	movzbl 0x86(%eax),%edx
80107e8e:	83 ca 80             	or     $0xffffff80,%edx
80107e91:	88 90 86 00 00 00    	mov    %dl,0x86(%eax)
80107e97:	8b 45 f4             	mov    -0xc(%ebp),%eax
80107e9a:	c6 80 87 00 00 00 00 	movb   $0x0,0x87(%eax)
80107ea1:	8b 45 f4             	mov    -0xc(%ebp),%eax
80107ea4:	66 c7 80 88 00 00 00 	movw   $0xffff,0x88(%eax)
80107eab:	ff ff 
80107ead:	8b 45 f4             	mov    -0xc(%ebp),%eax
80107eb0:	66 c7 80 8a 00 00 00 	movw   $0x0,0x8a(%eax)
80107eb7:	00 00 
80107eb9:	8b 45 f4             	mov    -0xc(%ebp),%eax
80107ebc:	c6 80 8c 00 00 00 00 	movb   $0x0,0x8c(%eax)
80107ec3:	8b 45 f4             	mov    -0xc(%ebp),%eax
80107ec6:	0f b6 90 8d 00 00 00 	movzbl 0x8d(%eax),%edx
80107ecd:	83 e2 f0             	and    $0xfffffff0,%edx
80107ed0:	83 ca 0a             	or     $0xa,%edx
80107ed3:	88 90 8d 00 00 00    	mov    %dl,0x8d(%eax)
80107ed9:	8b 45 f4             	mov    -0xc(%ebp),%eax
80107edc:	0f b6 90 8d 00 00 00 	movzbl 0x8d(%eax),%edx
80107ee3:	83 ca 10             	or     $0x10,%edx
80107ee6:	88 90 8d 00 00 00    	mov    %dl,0x8d(%eax)
80107eec:	8b 45 f4             	mov    -0xc(%ebp),%eax
80107eef:	0f b6 90 8d 00 00 00 	movzbl 0x8d(%eax),%edx
80107ef6:	83 ca 60             	or     $0x60,%edx
80107ef9:	88 90 8d 00 00 00    	mov    %dl,0x8d(%eax)
80107eff:	8b 45 f4             	mov    -0xc(%ebp),%eax
80107f02:	0f b6 90 8d 00 00 00 	movzbl 0x8d(%eax),%edx
80107f09:	83 ca 80             	or     $0xffffff80,%edx
80107f0c:	88 90 8d 00 00 00    	mov    %dl,0x8d(%eax)
80107f12:	8b 45 f4             	mov    -0xc(%ebp),%eax
80107f15:	0f b6 90 8e 00 00 00 	movzbl 0x8e(%eax),%edx
80107f1c:	83 ca 0f             	or     $0xf,%edx
80107f1f:	88 90 8e 00 00 00    	mov    %dl,0x8e(%eax)
80107f25:	8b 45 f4             	mov    -0xc(%ebp),%eax
80107f28:	0f b6 90 8e 00 00 00 	movzbl 0x8e(%eax),%edx
80107f2f:	83 e2 ef             	and    $0xffffffef,%edx
80107f32:	88 90 8e 00 00 00    	mov    %dl,0x8e(%eax)
80107f38:	8b 45 f4             	mov    -0xc(%ebp),%eax
80107f3b:	0f b6 90 8e 00 00 00 	movzbl 0x8e(%eax),%edx
80107f42:	83 e2 df             	and    $0xffffffdf,%edx
80107f45:	88 90 8e 00 00 00    	mov    %dl,0x8e(%eax)
80107f4b:	8b 45 f4             	mov    -0xc(%ebp),%eax
80107f4e:	0f b6 90 8e 00 00 00 	movzbl 0x8e(%eax),%edx
80107f55:	83 ca 40             	or     $0x40,%edx
80107f58:	88 90 8e 00 00 00    	mov    %dl,0x8e(%eax)
80107f5e:	8b 45 f4             	mov    -0xc(%ebp),%eax
80107f61:	0f b6 90 8e 00 00 00 	movzbl 0x8e(%eax),%edx
80107f68:	83 ca 80             	or     $0xffffff80,%edx
80107f6b:	88 90 8e 00 00 00    	mov    %dl,0x8e(%eax)
80107f71:	8b 45 f4             	mov    -0xc(%ebp),%eax
80107f74:	c6 80 8f 00 00 00 00 	movb   $0x0,0x8f(%eax)
80107f7b:	8b 45 f4             	mov    -0xc(%ebp),%eax
80107f7e:	66 c7 80 90 00 00 00 	movw   $0xffff,0x90(%eax)
80107f85:	ff ff 
80107f87:	8b 45 f4             	mov    -0xc(%ebp),%eax
80107f8a:	66 c7 80 92 00 00 00 	movw   $0x0,0x92(%eax)
80107f91:	00 00 
80107f93:	8b 45 f4             	mov    -0xc(%ebp),%eax
80107f96:	c6 80 94 00 00 00 00 	movb   $0x0,0x94(%eax)
80107f9d:	8b 45 f4             	mov    -0xc(%ebp),%eax
80107fa0:	0f b6 90 95 00 00 00 	movzbl 0x95(%eax),%edx
80107fa7:	83 e2 f0             	and    $0xfffffff0,%edx
80107faa:	83 ca 02             	or     $0x2,%edx
80107fad:	88 90 95 00 00 00    	mov    %dl,0x95(%eax)
80107fb3:	8b 45 f4             	mov    -0xc(%ebp),%eax
80107fb6:	0f b6 90 95 00 00 00 	movzbl 0x95(%eax),%edx
80107fbd:	83 ca 10             	or     $0x10,%edx
80107fc0:	88 90 95 00 00 00    	mov    %dl,0x95(%eax)
80107fc6:	8b 45 f4             	mov    -0xc(%ebp),%eax
80107fc9:	0f b6 90 95 00 00 00 	movzbl 0x95(%eax),%edx
80107fd0:	83 ca 60             	or     $0x60,%edx
80107fd3:	88 90 95 00 00 00    	mov    %dl,0x95(%eax)
80107fd9:	8b 45 f4             	mov    -0xc(%ebp),%eax
80107fdc:	0f b6 90 95 00 00 00 	movzbl 0x95(%eax),%edx
80107fe3:	83 ca 80             	or     $0xffffff80,%edx
80107fe6:	88 90 95 00 00 00    	mov    %dl,0x95(%eax)
80107fec:	8b 45 f4             	mov    -0xc(%ebp),%eax
80107fef:	0f b6 90 96 00 00 00 	movzbl 0x96(%eax),%edx
80107ff6:	83 ca 0f             	or     $0xf,%edx
80107ff9:	88 90 96 00 00 00    	mov    %dl,0x96(%eax)
80107fff:	8b 45 f4             	mov    -0xc(%ebp),%eax
80108002:	0f b6 90 96 00 00 00 	movzbl 0x96(%eax),%edx
80108009:	83 e2 ef             	and    $0xffffffef,%edx
8010800c:	88 90 96 00 00 00    	mov    %dl,0x96(%eax)
80108012:	8b 45 f4             	mov    -0xc(%ebp),%eax
80108015:	0f b6 90 96 00 00 00 	movzbl 0x96(%eax),%edx
8010801c:	83 e2 df             	and    $0xffffffdf,%edx
8010801f:	88 90 96 00 00 00    	mov    %dl,0x96(%eax)
80108025:	8b 45 f4             	mov    -0xc(%ebp),%eax
80108028:	0f b6 90 96 00 00 00 	movzbl 0x96(%eax),%edx
8010802f:	83 ca 40             	or     $0x40,%edx
80108032:	88 90 96 00 00 00    	mov    %dl,0x96(%eax)
80108038:	8b 45 f4             	mov    -0xc(%ebp),%eax
8010803b:	0f b6 90 96 00 00 00 	movzbl 0x96(%eax),%edx
80108042:	83 ca 80             	or     $0xffffff80,%edx
80108045:	88 90 96 00 00 00    	mov    %dl,0x96(%eax)
8010804b:	8b 45 f4             	mov    -0xc(%ebp),%eax
8010804e:	c6 80 97 00 00 00 00 	movb   $0x0,0x97(%eax)
80108055:	8b 45 f4             	mov    -0xc(%ebp),%eax
80108058:	83 c0 70             	add    $0x70,%eax
8010805b:	83 ec 08             	sub    $0x8,%esp
8010805e:	6a 30                	push   $0x30
80108060:	50                   	push   %eax
80108061:	e8 63 fc ff ff       	call   80107cc9 <lgdt>
80108066:	83 c4 10             	add    $0x10,%esp
80108069:	90                   	nop
8010806a:	c9                   	leave  
8010806b:	c3                   	ret    

8010806c <walkpgdir>:
8010806c:	55                   	push   %ebp
8010806d:	89 e5                	mov    %esp,%ebp
8010806f:	83 ec 18             	sub    $0x18,%esp
80108072:	8b 45 0c             	mov    0xc(%ebp),%eax
80108075:	c1 e8 16             	shr    $0x16,%eax
80108078:	8d 14 85 00 00 00 00 	lea    0x0(,%eax,4),%edx
8010807f:	8b 45 08             	mov    0x8(%ebp),%eax
80108082:	01 d0                	add    %edx,%eax
80108084:	89 45 f0             	mov    %eax,-0x10(%ebp)
80108087:	8b 45 f0             	mov    -0x10(%ebp),%eax
8010808a:	8b 00                	mov    (%eax),%eax
8010808c:	83 e0 01             	and    $0x1,%eax
8010808f:	85 c0                	test   %eax,%eax
80108091:	74 14                	je     801080a7 <walkpgdir+0x3b>
80108093:	8b 45 f0             	mov    -0x10(%ebp),%eax
80108096:	8b 00                	mov    (%eax),%eax
80108098:	25 00 f0 ff ff       	and    $0xfffff000,%eax
8010809d:	05 00 00 00 80       	add    $0x80000000,%eax
801080a2:	89 45 f4             	mov    %eax,-0xc(%ebp)
801080a5:	eb 42                	jmp    801080e9 <walkpgdir+0x7d>
801080a7:	83 7d 10 00          	cmpl   $0x0,0x10(%ebp)
801080ab:	74 0e                	je     801080bb <walkpgdir+0x4f>
801080ad:	e8 2b ac ff ff       	call   80102cdd <kalloc>
801080b2:	89 45 f4             	mov    %eax,-0xc(%ebp)
801080b5:	83 7d f4 00          	cmpl   $0x0,-0xc(%ebp)
801080b9:	75 07                	jne    801080c2 <walkpgdir+0x56>
801080bb:	b8 00 00 00 00       	mov    $0x0,%eax
801080c0:	eb 3e                	jmp    80108100 <walkpgdir+0x94>
801080c2:	83 ec 04             	sub    $0x4,%esp
801080c5:	68 00 10 00 00       	push   $0x1000
801080ca:	6a 00                	push   $0x0
801080cc:	ff 75 f4             	pushl  -0xc(%ebp)
801080cf:	e8 1e d6 ff ff       	call   801056f2 <memset>
801080d4:	83 c4 10             	add    $0x10,%esp
801080d7:	8b 45 f4             	mov    -0xc(%ebp),%eax
801080da:	05 00 00 00 80       	add    $0x80000000,%eax
801080df:	83 c8 07             	or     $0x7,%eax
801080e2:	89 c2                	mov    %eax,%edx
801080e4:	8b 45 f0             	mov    -0x10(%ebp),%eax
801080e7:	89 10                	mov    %edx,(%eax)
801080e9:	8b 45 0c             	mov    0xc(%ebp),%eax
801080ec:	c1 e8 0c             	shr    $0xc,%eax
801080ef:	25 ff 03 00 00       	and    $0x3ff,%eax
801080f4:	8d 14 85 00 00 00 00 	lea    0x0(,%eax,4),%edx
801080fb:	8b 45 f4             	mov    -0xc(%ebp),%eax
801080fe:	01 d0                	add    %edx,%eax
80108100:	c9                   	leave  
80108101:	c3                   	ret    

80108102 <mappages>:
80108102:	55                   	push   %ebp
80108103:	89 e5                	mov    %esp,%ebp
80108105:	83 ec 18             	sub    $0x18,%esp
80108108:	8b 45 0c             	mov    0xc(%ebp),%eax
8010810b:	25 00 f0 ff ff       	and    $0xfffff000,%eax
80108110:	89 45 f4             	mov    %eax,-0xc(%ebp)
80108113:	8b 55 0c             	mov    0xc(%ebp),%edx
80108116:	8b 45 10             	mov    0x10(%ebp),%eax
80108119:	01 d0                	add    %edx,%eax
8010811b:	83 e8 01             	sub    $0x1,%eax
8010811e:	25 00 f0 ff ff       	and    $0xfffff000,%eax
80108123:	89 45 f0             	mov    %eax,-0x10(%ebp)
80108126:	83 ec 04             	sub    $0x4,%esp
80108129:	6a 01                	push   $0x1
8010812b:	ff 75 f4             	pushl  -0xc(%ebp)
8010812e:	ff 75 08             	pushl  0x8(%ebp)
80108131:	e8 36 ff ff ff       	call   8010806c <walkpgdir>
80108136:	83 c4 10             	add    $0x10,%esp
80108139:	89 45 ec             	mov    %eax,-0x14(%ebp)
8010813c:	83 7d ec 00          	cmpl   $0x0,-0x14(%ebp)
80108140:	75 07                	jne    80108149 <mappages+0x47>
80108142:	b8 ff ff ff ff       	mov    $0xffffffff,%eax
80108147:	eb 47                	jmp    80108190 <mappages+0x8e>
80108149:	8b 45 ec             	mov    -0x14(%ebp),%eax
8010814c:	8b 00                	mov    (%eax),%eax
8010814e:	83 e0 01             	and    $0x1,%eax
80108151:	85 c0                	test   %eax,%eax
80108153:	74 0d                	je     80108162 <mappages+0x60>
80108155:	83 ec 0c             	sub    $0xc,%esp
80108158:	68 18 94 10 80       	push   $0x80109418
8010815d:	e8 3e 84 ff ff       	call   801005a0 <panic>
80108162:	8b 45 18             	mov    0x18(%ebp),%eax
80108165:	0b 45 14             	or     0x14(%ebp),%eax
80108168:	83 c8 01             	or     $0x1,%eax
8010816b:	89 c2                	mov    %eax,%edx
8010816d:	8b 45 ec             	mov    -0x14(%ebp),%eax
80108170:	89 10                	mov    %edx,(%eax)
80108172:	8b 45 f4             	mov    -0xc(%ebp),%eax
80108175:	3b 45 f0             	cmp    -0x10(%ebp),%eax
80108178:	74 10                	je     8010818a <mappages+0x88>
8010817a:	81 45 f4 00 10 00 00 	addl   $0x1000,-0xc(%ebp)
80108181:	81 45 14 00 10 00 00 	addl   $0x1000,0x14(%ebp)
80108188:	eb 9c                	jmp    80108126 <mappages+0x24>
8010818a:	90                   	nop
8010818b:	b8 00 00 00 00       	mov    $0x0,%eax
80108190:	c9                   	leave  
80108191:	c3                   	ret    

80108192 <setupkvm>:
80108192:	55                   	push   %ebp
80108193:	89 e5                	mov    %esp,%ebp
80108195:	53                   	push   %ebx
80108196:	83 ec 14             	sub    $0x14,%esp
80108199:	e8 3f ab ff ff       	call   80102cdd <kalloc>
8010819e:	89 45 f0             	mov    %eax,-0x10(%ebp)
801081a1:	83 7d f0 00          	cmpl   $0x0,-0x10(%ebp)
801081a5:	75 07                	jne    801081ae <setupkvm+0x1c>
801081a7:	b8 00 00 00 00       	mov    $0x0,%eax
801081ac:	eb 78                	jmp    80108226 <setupkvm+0x94>
801081ae:	83 ec 04             	sub    $0x4,%esp
801081b1:	68 00 10 00 00       	push   $0x1000
801081b6:	6a 00                	push   $0x0
801081b8:	ff 75 f0             	pushl  -0x10(%ebp)
801081bb:	e8 32 d5 ff ff       	call   801056f2 <memset>
801081c0:	83 c4 10             	add    $0x10,%esp
801081c3:	c7 45 f4 a0 c4 10 80 	movl   $0x8010c4a0,-0xc(%ebp)
801081ca:	eb 4e                	jmp    8010821a <setupkvm+0x88>
801081cc:	8b 45 f4             	mov    -0xc(%ebp),%eax
801081cf:	8b 48 0c             	mov    0xc(%eax),%ecx
801081d2:	8b 45 f4             	mov    -0xc(%ebp),%eax
801081d5:	8b 50 04             	mov    0x4(%eax),%edx
801081d8:	8b 45 f4             	mov    -0xc(%ebp),%eax
801081db:	8b 58 08             	mov    0x8(%eax),%ebx
801081de:	8b 45 f4             	mov    -0xc(%ebp),%eax
801081e1:	8b 40 04             	mov    0x4(%eax),%eax
801081e4:	29 c3                	sub    %eax,%ebx
801081e6:	8b 45 f4             	mov    -0xc(%ebp),%eax
801081e9:	8b 00                	mov    (%eax),%eax
801081eb:	83 ec 0c             	sub    $0xc,%esp
801081ee:	51                   	push   %ecx
801081ef:	52                   	push   %edx
801081f0:	53                   	push   %ebx
801081f1:	50                   	push   %eax
801081f2:	ff 75 f0             	pushl  -0x10(%ebp)
801081f5:	e8 08 ff ff ff       	call   80108102 <mappages>
801081fa:	83 c4 20             	add    $0x20,%esp
801081fd:	85 c0                	test   %eax,%eax
801081ff:	79 15                	jns    80108216 <setupkvm+0x84>
80108201:	83 ec 0c             	sub    $0xc,%esp
80108204:	ff 75 f0             	pushl  -0x10(%ebp)
80108207:	e8 f4 04 00 00       	call   80108700 <freevm>
8010820c:	83 c4 10             	add    $0x10,%esp
8010820f:	b8 00 00 00 00       	mov    $0x0,%eax
80108214:	eb 10                	jmp    80108226 <setupkvm+0x94>
80108216:	83 45 f4 10          	addl   $0x10,-0xc(%ebp)
8010821a:	81 7d f4 e0 c4 10 80 	cmpl   $0x8010c4e0,-0xc(%ebp)
80108221:	72 a9                	jb     801081cc <setupkvm+0x3a>
80108223:	8b 45 f0             	mov    -0x10(%ebp),%eax
80108226:	8b 5d fc             	mov    -0x4(%ebp),%ebx
80108229:	c9                   	leave  
8010822a:	c3                   	ret    

8010822b <kvmalloc>:
8010822b:	55                   	push   %ebp
8010822c:	89 e5                	mov    %esp,%ebp
8010822e:	83 ec 08             	sub    $0x8,%esp
80108231:	e8 5c ff ff ff       	call   80108192 <setupkvm>
80108236:	a3 44 ae 11 80       	mov    %eax,0x8011ae44
8010823b:	e8 03 00 00 00       	call   80108243 <switchkvm>
80108240:	90                   	nop
80108241:	c9                   	leave  
80108242:	c3                   	ret    

80108243 <switchkvm>:
80108243:	55                   	push   %ebp
80108244:	89 e5                	mov    %esp,%ebp
80108246:	a1 44 ae 11 80       	mov    0x8011ae44,%eax
8010824b:	05 00 00 00 80       	add    $0x80000000,%eax
80108250:	50                   	push   %eax
80108251:	e8 b4 fa ff ff       	call   80107d0a <lcr3>
80108256:	83 c4 04             	add    $0x4,%esp
80108259:	90                   	nop
8010825a:	c9                   	leave  
8010825b:	c3                   	ret    

8010825c <switchuvm>:
8010825c:	55                   	push   %ebp
8010825d:	89 e5                	mov    %esp,%ebp
8010825f:	56                   	push   %esi
80108260:	53                   	push   %ebx
80108261:	83 ec 10             	sub    $0x10,%esp
80108264:	83 7d 08 00          	cmpl   $0x0,0x8(%ebp)
80108268:	75 0d                	jne    80108277 <switchuvm+0x1b>
8010826a:	83 ec 0c             	sub    $0xc,%esp
8010826d:	68 1e 94 10 80       	push   $0x8010941e
80108272:	e8 29 83 ff ff       	call   801005a0 <panic>
80108277:	8b 45 08             	mov    0x8(%ebp),%eax
8010827a:	8b 40 08             	mov    0x8(%eax),%eax
8010827d:	85 c0                	test   %eax,%eax
8010827f:	75 0d                	jne    8010828e <switchuvm+0x32>
80108281:	83 ec 0c             	sub    $0xc,%esp
80108284:	68 34 94 10 80       	push   $0x80109434
80108289:	e8 12 83 ff ff       	call   801005a0 <panic>
8010828e:	8b 45 08             	mov    0x8(%ebp),%eax
80108291:	8b 40 04             	mov    0x4(%eax),%eax
80108294:	85 c0                	test   %eax,%eax
80108296:	75 0d                	jne    801082a5 <switchuvm+0x49>
80108298:	83 ec 0c             	sub    $0xc,%esp
8010829b:	68 49 94 10 80       	push   $0x80109449
801082a0:	e8 fb 82 ff ff       	call   801005a0 <panic>
801082a5:	e8 3c d3 ff ff       	call   801055e6 <pushcli>
801082aa:	e8 df bf ff ff       	call   8010428e <mycpu>
801082af:	89 c3                	mov    %eax,%ebx
801082b1:	e8 d8 bf ff ff       	call   8010428e <mycpu>
801082b6:	83 c0 08             	add    $0x8,%eax
801082b9:	89 c6                	mov    %eax,%esi
801082bb:	e8 ce bf ff ff       	call   8010428e <mycpu>
801082c0:	83 c0 08             	add    $0x8,%eax
801082c3:	c1 e8 10             	shr    $0x10,%eax
801082c6:	88 45 f7             	mov    %al,-0x9(%ebp)
801082c9:	e8 c0 bf ff ff       	call   8010428e <mycpu>
801082ce:	83 c0 08             	add    $0x8,%eax
801082d1:	c1 e8 18             	shr    $0x18,%eax
801082d4:	89 c2                	mov    %eax,%edx
801082d6:	66 c7 83 98 00 00 00 	movw   $0x67,0x98(%ebx)
801082dd:	67 00 
801082df:	66 89 b3 9a 00 00 00 	mov    %si,0x9a(%ebx)
801082e6:	0f b6 45 f7          	movzbl -0x9(%ebp),%eax
801082ea:	88 83 9c 00 00 00    	mov    %al,0x9c(%ebx)
801082f0:	0f b6 83 9d 00 00 00 	movzbl 0x9d(%ebx),%eax
801082f7:	83 e0 f0             	and    $0xfffffff0,%eax
801082fa:	83 c8 09             	or     $0x9,%eax
801082fd:	88 83 9d 00 00 00    	mov    %al,0x9d(%ebx)
80108303:	0f b6 83 9d 00 00 00 	movzbl 0x9d(%ebx),%eax
8010830a:	83 c8 10             	or     $0x10,%eax
8010830d:	88 83 9d 00 00 00    	mov    %al,0x9d(%ebx)
80108313:	0f b6 83 9d 00 00 00 	movzbl 0x9d(%ebx),%eax
8010831a:	83 e0 9f             	and    $0xffffff9f,%eax
8010831d:	88 83 9d 00 00 00    	mov    %al,0x9d(%ebx)
80108323:	0f b6 83 9d 00 00 00 	movzbl 0x9d(%ebx),%eax
8010832a:	83 c8 80             	or     $0xffffff80,%eax
8010832d:	88 83 9d 00 00 00    	mov    %al,0x9d(%ebx)
80108333:	0f b6 83 9e 00 00 00 	movzbl 0x9e(%ebx),%eax
8010833a:	83 e0 f0             	and    $0xfffffff0,%eax
8010833d:	88 83 9e 00 00 00    	mov    %al,0x9e(%ebx)
80108343:	0f b6 83 9e 00 00 00 	movzbl 0x9e(%ebx),%eax
8010834a:	83 e0 ef             	and    $0xffffffef,%eax
8010834d:	88 83 9e 00 00 00    	mov    %al,0x9e(%ebx)
80108353:	0f b6 83 9e 00 00 00 	movzbl 0x9e(%ebx),%eax
8010835a:	83 e0 df             	and    $0xffffffdf,%eax
8010835d:	88 83 9e 00 00 00    	mov    %al,0x9e(%ebx)
80108363:	0f b6 83 9e 00 00 00 	movzbl 0x9e(%ebx),%eax
8010836a:	83 c8 40             	or     $0x40,%eax
8010836d:	88 83 9e 00 00 00    	mov    %al,0x9e(%ebx)
80108373:	0f b6 83 9e 00 00 00 	movzbl 0x9e(%ebx),%eax
8010837a:	83 e0 7f             	and    $0x7f,%eax
8010837d:	88 83 9e 00 00 00    	mov    %al,0x9e(%ebx)
80108383:	88 93 9f 00 00 00    	mov    %dl,0x9f(%ebx)
80108389:	e8 00 bf ff ff       	call   8010428e <mycpu>
8010838e:	0f b6 90 9d 00 00 00 	movzbl 0x9d(%eax),%edx
80108395:	83 e2 ef             	and    $0xffffffef,%edx
80108398:	88 90 9d 00 00 00    	mov    %dl,0x9d(%eax)
8010839e:	e8 eb be ff ff       	call   8010428e <mycpu>
801083a3:	66 c7 40 10 10 00    	movw   $0x10,0x10(%eax)
801083a9:	e8 e0 be ff ff       	call   8010428e <mycpu>
801083ae:	89 c2                	mov    %eax,%edx
801083b0:	8b 45 08             	mov    0x8(%ebp),%eax
801083b3:	8b 40 08             	mov    0x8(%eax),%eax
801083b6:	05 00 10 00 00       	add    $0x1000,%eax
801083bb:	89 42 0c             	mov    %eax,0xc(%edx)
801083be:	e8 cb be ff ff       	call   8010428e <mycpu>
801083c3:	66 c7 40 6e ff ff    	movw   $0xffff,0x6e(%eax)
801083c9:	83 ec 0c             	sub    $0xc,%esp
801083cc:	6a 28                	push   $0x28
801083ce:	e8 20 f9 ff ff       	call   80107cf3 <ltr>
801083d3:	83 c4 10             	add    $0x10,%esp
801083d6:	8b 45 08             	mov    0x8(%ebp),%eax
801083d9:	8b 40 04             	mov    0x4(%eax),%eax
801083dc:	05 00 00 00 80       	add    $0x80000000,%eax
801083e1:	83 ec 0c             	sub    $0xc,%esp
801083e4:	50                   	push   %eax
801083e5:	e8 20 f9 ff ff       	call   80107d0a <lcr3>
801083ea:	83 c4 10             	add    $0x10,%esp
801083ed:	e8 42 d2 ff ff       	call   80105634 <popcli>
801083f2:	90                   	nop
801083f3:	8d 65 f8             	lea    -0x8(%ebp),%esp
801083f6:	5b                   	pop    %ebx
801083f7:	5e                   	pop    %esi
801083f8:	5d                   	pop    %ebp
801083f9:	c3                   	ret    

801083fa <inituvm>:
801083fa:	55                   	push   %ebp
801083fb:	89 e5                	mov    %esp,%ebp
801083fd:	83 ec 18             	sub    $0x18,%esp
80108400:	81 7d 10 ff 0f 00 00 	cmpl   $0xfff,0x10(%ebp)
80108407:	76 0d                	jbe    80108416 <inituvm+0x1c>
80108409:	83 ec 0c             	sub    $0xc,%esp
8010840c:	68 5d 94 10 80       	push   $0x8010945d
80108411:	e8 8a 81 ff ff       	call   801005a0 <panic>
80108416:	e8 c2 a8 ff ff       	call   80102cdd <kalloc>
8010841b:	89 45 f4             	mov    %eax,-0xc(%ebp)
8010841e:	83 ec 04             	sub    $0x4,%esp
80108421:	68 00 10 00 00       	push   $0x1000
80108426:	6a 00                	push   $0x0
80108428:	ff 75 f4             	pushl  -0xc(%ebp)
8010842b:	e8 c2 d2 ff ff       	call   801056f2 <memset>
80108430:	83 c4 10             	add    $0x10,%esp
80108433:	8b 45 f4             	mov    -0xc(%ebp),%eax
80108436:	05 00 00 00 80       	add    $0x80000000,%eax
8010843b:	83 ec 0c             	sub    $0xc,%esp
8010843e:	6a 06                	push   $0x6
80108440:	50                   	push   %eax
80108441:	68 00 10 00 00       	push   $0x1000
80108446:	6a 00                	push   $0x0
80108448:	ff 75 08             	pushl  0x8(%ebp)
8010844b:	e8 b2 fc ff ff       	call   80108102 <mappages>
80108450:	83 c4 20             	add    $0x20,%esp
80108453:	83 ec 04             	sub    $0x4,%esp
80108456:	ff 75 10             	pushl  0x10(%ebp)
80108459:	ff 75 0c             	pushl  0xc(%ebp)
8010845c:	ff 75 f4             	pushl  -0xc(%ebp)
8010845f:	e8 4d d3 ff ff       	call   801057b1 <memmove>
80108464:	83 c4 10             	add    $0x10,%esp
80108467:	90                   	nop
80108468:	c9                   	leave  
80108469:	c3                   	ret    

8010846a <loaduvm>:
8010846a:	55                   	push   %ebp
8010846b:	89 e5                	mov    %esp,%ebp
8010846d:	83 ec 18             	sub    $0x18,%esp
80108470:	8b 45 0c             	mov    0xc(%ebp),%eax
80108473:	25 ff 0f 00 00       	and    $0xfff,%eax
80108478:	85 c0                	test   %eax,%eax
8010847a:	74 0d                	je     80108489 <loaduvm+0x1f>
8010847c:	83 ec 0c             	sub    $0xc,%esp
8010847f:	68 78 94 10 80       	push   $0x80109478
80108484:	e8 17 81 ff ff       	call   801005a0 <panic>
80108489:	c7 45 f4 00 00 00 00 	movl   $0x0,-0xc(%ebp)
80108490:	e9 8f 00 00 00       	jmp    80108524 <loaduvm+0xba>
80108495:	8b 55 0c             	mov    0xc(%ebp),%edx
80108498:	8b 45 f4             	mov    -0xc(%ebp),%eax
8010849b:	01 d0                	add    %edx,%eax
8010849d:	83 ec 04             	sub    $0x4,%esp
801084a0:	6a 00                	push   $0x0
801084a2:	50                   	push   %eax
801084a3:	ff 75 08             	pushl  0x8(%ebp)
801084a6:	e8 c1 fb ff ff       	call   8010806c <walkpgdir>
801084ab:	83 c4 10             	add    $0x10,%esp
801084ae:	89 45 ec             	mov    %eax,-0x14(%ebp)
801084b1:	83 7d ec 00          	cmpl   $0x0,-0x14(%ebp)
801084b5:	75 0d                	jne    801084c4 <loaduvm+0x5a>
801084b7:	83 ec 0c             	sub    $0xc,%esp
801084ba:	68 9b 94 10 80       	push   $0x8010949b
801084bf:	e8 dc 80 ff ff       	call   801005a0 <panic>
801084c4:	8b 45 ec             	mov    -0x14(%ebp),%eax
801084c7:	8b 00                	mov    (%eax),%eax
801084c9:	25 00 f0 ff ff       	and    $0xfffff000,%eax
801084ce:	89 45 e8             	mov    %eax,-0x18(%ebp)
801084d1:	8b 45 18             	mov    0x18(%ebp),%eax
801084d4:	2b 45 f4             	sub    -0xc(%ebp),%eax
801084d7:	3d ff 0f 00 00       	cmp    $0xfff,%eax
801084dc:	77 0b                	ja     801084e9 <loaduvm+0x7f>
801084de:	8b 45 18             	mov    0x18(%ebp),%eax
801084e1:	2b 45 f4             	sub    -0xc(%ebp),%eax
801084e4:	89 45 f0             	mov    %eax,-0x10(%ebp)
801084e7:	eb 07                	jmp    801084f0 <loaduvm+0x86>
801084e9:	c7 45 f0 00 10 00 00 	movl   $0x1000,-0x10(%ebp)
801084f0:	8b 55 14             	mov    0x14(%ebp),%edx
801084f3:	8b 45 f4             	mov    -0xc(%ebp),%eax
801084f6:	01 d0                	add    %edx,%eax
801084f8:	8b 55 e8             	mov    -0x18(%ebp),%edx
801084fb:	81 c2 00 00 00 80    	add    $0x80000000,%edx
80108501:	ff 75 f0             	pushl  -0x10(%ebp)
80108504:	50                   	push   %eax
80108505:	52                   	push   %edx
80108506:	ff 75 10             	pushl  0x10(%ebp)
80108509:	e8 3b 9a ff ff       	call   80101f49 <readi>
8010850e:	83 c4 10             	add    $0x10,%esp
80108511:	3b 45 f0             	cmp    -0x10(%ebp),%eax
80108514:	74 07                	je     8010851d <loaduvm+0xb3>
80108516:	b8 ff ff ff ff       	mov    $0xffffffff,%eax
8010851b:	eb 18                	jmp    80108535 <loaduvm+0xcb>
8010851d:	81 45 f4 00 10 00 00 	addl   $0x1000,-0xc(%ebp)
80108524:	8b 45 f4             	mov    -0xc(%ebp),%eax
80108527:	3b 45 18             	cmp    0x18(%ebp),%eax
8010852a:	0f 82 65 ff ff ff    	jb     80108495 <loaduvm+0x2b>
80108530:	b8 00 00 00 00       	mov    $0x0,%eax
80108535:	c9                   	leave  
80108536:	c3                   	ret    

80108537 <allocuvm>:
80108537:	55                   	push   %ebp
80108538:	89 e5                	mov    %esp,%ebp
8010853a:	83 ec 18             	sub    $0x18,%esp
8010853d:	8b 45 10             	mov    0x10(%ebp),%eax
80108540:	85 c0                	test   %eax,%eax
80108542:	79 0a                	jns    8010854e <allocuvm+0x17>
80108544:	b8 00 00 00 00       	mov    $0x0,%eax
80108549:	e9 ec 00 00 00       	jmp    8010863a <allocuvm+0x103>
8010854e:	8b 45 10             	mov    0x10(%ebp),%eax
80108551:	3b 45 0c             	cmp    0xc(%ebp),%eax
80108554:	73 08                	jae    8010855e <allocuvm+0x27>
80108556:	8b 45 0c             	mov    0xc(%ebp),%eax
80108559:	e9 dc 00 00 00       	jmp    8010863a <allocuvm+0x103>
8010855e:	8b 45 0c             	mov    0xc(%ebp),%eax
80108561:	05 ff 0f 00 00       	add    $0xfff,%eax
80108566:	25 00 f0 ff ff       	and    $0xfffff000,%eax
8010856b:	89 45 f4             	mov    %eax,-0xc(%ebp)
8010856e:	e9 b8 00 00 00       	jmp    8010862b <allocuvm+0xf4>
80108573:	e8 65 a7 ff ff       	call   80102cdd <kalloc>
80108578:	89 45 f0             	mov    %eax,-0x10(%ebp)
8010857b:	83 7d f0 00          	cmpl   $0x0,-0x10(%ebp)
8010857f:	75 2e                	jne    801085af <allocuvm+0x78>
80108581:	83 ec 0c             	sub    $0xc,%esp
80108584:	68 b9 94 10 80       	push   $0x801094b9
80108589:	e8 72 7e ff ff       	call   80100400 <cprintf>
8010858e:	83 c4 10             	add    $0x10,%esp
80108591:	83 ec 04             	sub    $0x4,%esp
80108594:	ff 75 0c             	pushl  0xc(%ebp)
80108597:	ff 75 10             	pushl  0x10(%ebp)
8010859a:	ff 75 08             	pushl  0x8(%ebp)
8010859d:	e8 9a 00 00 00       	call   8010863c <deallocuvm>
801085a2:	83 c4 10             	add    $0x10,%esp
801085a5:	b8 00 00 00 00       	mov    $0x0,%eax
801085aa:	e9 8b 00 00 00       	jmp    8010863a <allocuvm+0x103>
801085af:	83 ec 04             	sub    $0x4,%esp
801085b2:	68 00 10 00 00       	push   $0x1000
801085b7:	6a 00                	push   $0x0
801085b9:	ff 75 f0             	pushl  -0x10(%ebp)
801085bc:	e8 31 d1 ff ff       	call   801056f2 <memset>
801085c1:	83 c4 10             	add    $0x10,%esp
801085c4:	8b 45 f0             	mov    -0x10(%ebp),%eax
801085c7:	8d 90 00 00 00 80    	lea    -0x80000000(%eax),%edx
801085cd:	8b 45 f4             	mov    -0xc(%ebp),%eax
801085d0:	83 ec 0c             	sub    $0xc,%esp
801085d3:	6a 06                	push   $0x6
801085d5:	52                   	push   %edx
801085d6:	68 00 10 00 00       	push   $0x1000
801085db:	50                   	push   %eax
801085dc:	ff 75 08             	pushl  0x8(%ebp)
801085df:	e8 1e fb ff ff       	call   80108102 <mappages>
801085e4:	83 c4 20             	add    $0x20,%esp
801085e7:	85 c0                	test   %eax,%eax
801085e9:	79 39                	jns    80108624 <allocuvm+0xed>
801085eb:	83 ec 0c             	sub    $0xc,%esp
801085ee:	68 d1 94 10 80       	push   $0x801094d1
801085f3:	e8 08 7e ff ff       	call   80100400 <cprintf>
801085f8:	83 c4 10             	add    $0x10,%esp
801085fb:	83 ec 04             	sub    $0x4,%esp
801085fe:	ff 75 0c             	pushl  0xc(%ebp)
80108601:	ff 75 10             	pushl  0x10(%ebp)
80108604:	ff 75 08             	pushl  0x8(%ebp)
80108607:	e8 30 00 00 00       	call   8010863c <deallocuvm>
8010860c:	83 c4 10             	add    $0x10,%esp
8010860f:	83 ec 0c             	sub    $0xc,%esp
80108612:	ff 75 f0             	pushl  -0x10(%ebp)
80108615:	e8 29 a6 ff ff       	call   80102c43 <kfree>
8010861a:	83 c4 10             	add    $0x10,%esp
8010861d:	b8 00 00 00 00       	mov    $0x0,%eax
80108622:	eb 16                	jmp    8010863a <allocuvm+0x103>
80108624:	81 45 f4 00 10 00 00 	addl   $0x1000,-0xc(%ebp)
8010862b:	8b 45 f4             	mov    -0xc(%ebp),%eax
8010862e:	3b 45 10             	cmp    0x10(%ebp),%eax
80108631:	0f 82 3c ff ff ff    	jb     80108573 <allocuvm+0x3c>
80108637:	8b 45 10             	mov    0x10(%ebp),%eax
8010863a:	c9                   	leave  
8010863b:	c3                   	ret    

8010863c <deallocuvm>:
8010863c:	55                   	push   %ebp
8010863d:	89 e5                	mov    %esp,%ebp
8010863f:	83 ec 18             	sub    $0x18,%esp
80108642:	8b 45 10             	mov    0x10(%ebp),%eax
80108645:	3b 45 0c             	cmp    0xc(%ebp),%eax
80108648:	72 08                	jb     80108652 <deallocuvm+0x16>
8010864a:	8b 45 0c             	mov    0xc(%ebp),%eax
8010864d:	e9 ac 00 00 00       	jmp    801086fe <deallocuvm+0xc2>
80108652:	8b 45 10             	mov    0x10(%ebp),%eax
80108655:	05 ff 0f 00 00       	add    $0xfff,%eax
8010865a:	25 00 f0 ff ff       	and    $0xfffff000,%eax
8010865f:	89 45 f4             	mov    %eax,-0xc(%ebp)
80108662:	e9 88 00 00 00       	jmp    801086ef <deallocuvm+0xb3>
80108667:	8b 45 f4             	mov    -0xc(%ebp),%eax
8010866a:	83 ec 04             	sub    $0x4,%esp
8010866d:	6a 00                	push   $0x0
8010866f:	50                   	push   %eax
80108670:	ff 75 08             	pushl  0x8(%ebp)
80108673:	e8 f4 f9 ff ff       	call   8010806c <walkpgdir>
80108678:	83 c4 10             	add    $0x10,%esp
8010867b:	89 45 f0             	mov    %eax,-0x10(%ebp)
8010867e:	83 7d f0 00          	cmpl   $0x0,-0x10(%ebp)
80108682:	75 16                	jne    8010869a <deallocuvm+0x5e>
80108684:	8b 45 f4             	mov    -0xc(%ebp),%eax
80108687:	c1 e8 16             	shr    $0x16,%eax
8010868a:	83 c0 01             	add    $0x1,%eax
8010868d:	c1 e0 16             	shl    $0x16,%eax
80108690:	2d 00 10 00 00       	sub    $0x1000,%eax
80108695:	89 45 f4             	mov    %eax,-0xc(%ebp)
80108698:	eb 4e                	jmp    801086e8 <deallocuvm+0xac>
8010869a:	8b 45 f0             	mov    -0x10(%ebp),%eax
8010869d:	8b 00                	mov    (%eax),%eax
8010869f:	83 e0 01             	and    $0x1,%eax
801086a2:	85 c0                	test   %eax,%eax
801086a4:	74 42                	je     801086e8 <deallocuvm+0xac>
801086a6:	8b 45 f0             	mov    -0x10(%ebp),%eax
801086a9:	8b 00                	mov    (%eax),%eax
801086ab:	25 00 f0 ff ff       	and    $0xfffff000,%eax
801086b0:	89 45 ec             	mov    %eax,-0x14(%ebp)
801086b3:	83 7d ec 00          	cmpl   $0x0,-0x14(%ebp)
801086b7:	75 0d                	jne    801086c6 <deallocuvm+0x8a>
801086b9:	83 ec 0c             	sub    $0xc,%esp
801086bc:	68 ed 94 10 80       	push   $0x801094ed
801086c1:	e8 da 7e ff ff       	call   801005a0 <panic>
801086c6:	8b 45 ec             	mov    -0x14(%ebp),%eax
801086c9:	05 00 00 00 80       	add    $0x80000000,%eax
801086ce:	89 45 e8             	mov    %eax,-0x18(%ebp)
801086d1:	83 ec 0c             	sub    $0xc,%esp
801086d4:	ff 75 e8             	pushl  -0x18(%ebp)
801086d7:	e8 67 a5 ff ff       	call   80102c43 <kfree>
801086dc:	83 c4 10             	add    $0x10,%esp
801086df:	8b 45 f0             	mov    -0x10(%ebp),%eax
801086e2:	c7 00 00 00 00 00    	movl   $0x0,(%eax)
801086e8:	81 45 f4 00 10 00 00 	addl   $0x1000,-0xc(%ebp)
801086ef:	8b 45 f4             	mov    -0xc(%ebp),%eax
801086f2:	3b 45 0c             	cmp    0xc(%ebp),%eax
801086f5:	0f 82 6c ff ff ff    	jb     80108667 <deallocuvm+0x2b>
801086fb:	8b 45 10             	mov    0x10(%ebp),%eax
801086fe:	c9                   	leave  
801086ff:	c3                   	ret    

80108700 <freevm>:
80108700:	55                   	push   %ebp
80108701:	89 e5                	mov    %esp,%ebp
80108703:	83 ec 18             	sub    $0x18,%esp
80108706:	83 7d 08 00          	cmpl   $0x0,0x8(%ebp)
8010870a:	75 0d                	jne    80108719 <freevm+0x19>
8010870c:	83 ec 0c             	sub    $0xc,%esp
8010870f:	68 f3 94 10 80       	push   $0x801094f3
80108714:	e8 87 7e ff ff       	call   801005a0 <panic>
80108719:	83 ec 04             	sub    $0x4,%esp
8010871c:	6a 00                	push   $0x0
8010871e:	68 00 00 00 80       	push   $0x80000000
80108723:	ff 75 08             	pushl  0x8(%ebp)
80108726:	e8 11 ff ff ff       	call   8010863c <deallocuvm>
8010872b:	83 c4 10             	add    $0x10,%esp
8010872e:	c7 45 f4 00 00 00 00 	movl   $0x0,-0xc(%ebp)
80108735:	eb 48                	jmp    8010877f <freevm+0x7f>
80108737:	8b 45 f4             	mov    -0xc(%ebp),%eax
8010873a:	8d 14 85 00 00 00 00 	lea    0x0(,%eax,4),%edx
80108741:	8b 45 08             	mov    0x8(%ebp),%eax
80108744:	01 d0                	add    %edx,%eax
80108746:	8b 00                	mov    (%eax),%eax
80108748:	83 e0 01             	and    $0x1,%eax
8010874b:	85 c0                	test   %eax,%eax
8010874d:	74 2c                	je     8010877b <freevm+0x7b>
8010874f:	8b 45 f4             	mov    -0xc(%ebp),%eax
80108752:	8d 14 85 00 00 00 00 	lea    0x0(,%eax,4),%edx
80108759:	8b 45 08             	mov    0x8(%ebp),%eax
8010875c:	01 d0                	add    %edx,%eax
8010875e:	8b 00                	mov    (%eax),%eax
80108760:	25 00 f0 ff ff       	and    $0xfffff000,%eax
80108765:	05 00 00 00 80       	add    $0x80000000,%eax
8010876a:	89 45 f0             	mov    %eax,-0x10(%ebp)
8010876d:	83 ec 0c             	sub    $0xc,%esp
80108770:	ff 75 f0             	pushl  -0x10(%ebp)
80108773:	e8 cb a4 ff ff       	call   80102c43 <kfree>
80108778:	83 c4 10             	add    $0x10,%esp
8010877b:	83 45 f4 01          	addl   $0x1,-0xc(%ebp)
8010877f:	81 7d f4 ff 03 00 00 	cmpl   $0x3ff,-0xc(%ebp)
80108786:	76 af                	jbe    80108737 <freevm+0x37>
80108788:	83 ec 0c             	sub    $0xc,%esp
8010878b:	ff 75 08             	pushl  0x8(%ebp)
8010878e:	e8 b0 a4 ff ff       	call   80102c43 <kfree>
80108793:	83 c4 10             	add    $0x10,%esp
80108796:	90                   	nop
80108797:	c9                   	leave  
80108798:	c3                   	ret    

80108799 <clearpteu>:
80108799:	55                   	push   %ebp
8010879a:	89 e5                	mov    %esp,%ebp
8010879c:	83 ec 18             	sub    $0x18,%esp
8010879f:	83 ec 04             	sub    $0x4,%esp
801087a2:	6a 00                	push   $0x0
801087a4:	ff 75 0c             	pushl  0xc(%ebp)
801087a7:	ff 75 08             	pushl  0x8(%ebp)
801087aa:	e8 bd f8 ff ff       	call   8010806c <walkpgdir>
801087af:	83 c4 10             	add    $0x10,%esp
801087b2:	89 45 f4             	mov    %eax,-0xc(%ebp)
801087b5:	83 7d f4 00          	cmpl   $0x0,-0xc(%ebp)
801087b9:	75 0d                	jne    801087c8 <clearpteu+0x2f>
801087bb:	83 ec 0c             	sub    $0xc,%esp
801087be:	68 04 95 10 80       	push   $0x80109504
801087c3:	e8 d8 7d ff ff       	call   801005a0 <panic>
801087c8:	8b 45 f4             	mov    -0xc(%ebp),%eax
801087cb:	8b 00                	mov    (%eax),%eax
801087cd:	83 e0 fb             	and    $0xfffffffb,%eax
801087d0:	89 c2                	mov    %eax,%edx
801087d2:	8b 45 f4             	mov    -0xc(%ebp),%eax
801087d5:	89 10                	mov    %edx,(%eax)
801087d7:	90                   	nop
801087d8:	c9                   	leave  
801087d9:	c3                   	ret    

801087da <copyuvm>:
801087da:	55                   	push   %ebp
801087db:	89 e5                	mov    %esp,%ebp
801087dd:	83 ec 28             	sub    $0x28,%esp
801087e0:	e8 ad f9 ff ff       	call   80108192 <setupkvm>
801087e5:	89 45 f0             	mov    %eax,-0x10(%ebp)
801087e8:	83 7d f0 00          	cmpl   $0x0,-0x10(%ebp)
801087ec:	75 0a                	jne    801087f8 <copyuvm+0x1e>
801087ee:	b8 00 00 00 00       	mov    $0x0,%eax
801087f3:	e9 eb 00 00 00       	jmp    801088e3 <copyuvm+0x109>
801087f8:	c7 45 f4 00 00 00 00 	movl   $0x0,-0xc(%ebp)
801087ff:	e9 b7 00 00 00       	jmp    801088bb <copyuvm+0xe1>
80108804:	8b 45 f4             	mov    -0xc(%ebp),%eax
80108807:	83 ec 04             	sub    $0x4,%esp
8010880a:	6a 00                	push   $0x0
8010880c:	50                   	push   %eax
8010880d:	ff 75 08             	pushl  0x8(%ebp)
80108810:	e8 57 f8 ff ff       	call   8010806c <walkpgdir>
80108815:	83 c4 10             	add    $0x10,%esp
80108818:	89 45 ec             	mov    %eax,-0x14(%ebp)
8010881b:	83 7d ec 00          	cmpl   $0x0,-0x14(%ebp)
8010881f:	75 0d                	jne    8010882e <copyuvm+0x54>
80108821:	83 ec 0c             	sub    $0xc,%esp
80108824:	68 0e 95 10 80       	push   $0x8010950e
80108829:	e8 72 7d ff ff       	call   801005a0 <panic>
8010882e:	8b 45 ec             	mov    -0x14(%ebp),%eax
80108831:	8b 00                	mov    (%eax),%eax
80108833:	83 e0 01             	and    $0x1,%eax
80108836:	85 c0                	test   %eax,%eax
80108838:	75 0d                	jne    80108847 <copyuvm+0x6d>
8010883a:	83 ec 0c             	sub    $0xc,%esp
8010883d:	68 28 95 10 80       	push   $0x80109528
80108842:	e8 59 7d ff ff       	call   801005a0 <panic>
80108847:	8b 45 ec             	mov    -0x14(%ebp),%eax
8010884a:	8b 00                	mov    (%eax),%eax
8010884c:	25 00 f0 ff ff       	and    $0xfffff000,%eax
80108851:	89 45 e8             	mov    %eax,-0x18(%ebp)
80108854:	8b 45 ec             	mov    -0x14(%ebp),%eax
80108857:	8b 00                	mov    (%eax),%eax
80108859:	25 ff 0f 00 00       	and    $0xfff,%eax
8010885e:	89 45 e4             	mov    %eax,-0x1c(%ebp)
80108861:	e8 77 a4 ff ff       	call   80102cdd <kalloc>
80108866:	89 45 e0             	mov    %eax,-0x20(%ebp)
80108869:	83 7d e0 00          	cmpl   $0x0,-0x20(%ebp)
8010886d:	74 5d                	je     801088cc <copyuvm+0xf2>
8010886f:	8b 45 e8             	mov    -0x18(%ebp),%eax
80108872:	05 00 00 00 80       	add    $0x80000000,%eax
80108877:	83 ec 04             	sub    $0x4,%esp
8010887a:	68 00 10 00 00       	push   $0x1000
8010887f:	50                   	push   %eax
80108880:	ff 75 e0             	pushl  -0x20(%ebp)
80108883:	e8 29 cf ff ff       	call   801057b1 <memmove>
80108888:	83 c4 10             	add    $0x10,%esp
8010888b:	8b 55 e4             	mov    -0x1c(%ebp),%edx
8010888e:	8b 45 e0             	mov    -0x20(%ebp),%eax
80108891:	8d 88 00 00 00 80    	lea    -0x80000000(%eax),%ecx
80108897:	8b 45 f4             	mov    -0xc(%ebp),%eax
8010889a:	83 ec 0c             	sub    $0xc,%esp
8010889d:	52                   	push   %edx
8010889e:	51                   	push   %ecx
8010889f:	68 00 10 00 00       	push   $0x1000
801088a4:	50                   	push   %eax
801088a5:	ff 75 f0             	pushl  -0x10(%ebp)
801088a8:	e8 55 f8 ff ff       	call   80108102 <mappages>
801088ad:	83 c4 20             	add    $0x20,%esp
801088b0:	85 c0                	test   %eax,%eax
801088b2:	78 1b                	js     801088cf <copyuvm+0xf5>
801088b4:	81 45 f4 00 10 00 00 	addl   $0x1000,-0xc(%ebp)
801088bb:	8b 45 f4             	mov    -0xc(%ebp),%eax
801088be:	3b 45 0c             	cmp    0xc(%ebp),%eax
801088c1:	0f 82 3d ff ff ff    	jb     80108804 <copyuvm+0x2a>
801088c7:	8b 45 f0             	mov    -0x10(%ebp),%eax
801088ca:	eb 17                	jmp    801088e3 <copyuvm+0x109>
801088cc:	90                   	nop
801088cd:	eb 01                	jmp    801088d0 <copyuvm+0xf6>
801088cf:	90                   	nop
801088d0:	83 ec 0c             	sub    $0xc,%esp
801088d3:	ff 75 f0             	pushl  -0x10(%ebp)
801088d6:	e8 25 fe ff ff       	call   80108700 <freevm>
801088db:	83 c4 10             	add    $0x10,%esp
801088de:	b8 00 00 00 00       	mov    $0x0,%eax
801088e3:	c9                   	leave  
801088e4:	c3                   	ret    

801088e5 <uva2ka>:
801088e5:	55                   	push   %ebp
801088e6:	89 e5                	mov    %esp,%ebp
801088e8:	83 ec 18             	sub    $0x18,%esp
801088eb:	83 ec 04             	sub    $0x4,%esp
801088ee:	6a 00                	push   $0x0
801088f0:	ff 75 0c             	pushl  0xc(%ebp)
801088f3:	ff 75 08             	pushl  0x8(%ebp)
801088f6:	e8 71 f7 ff ff       	call   8010806c <walkpgdir>
801088fb:	83 c4 10             	add    $0x10,%esp
801088fe:	89 45 f4             	mov    %eax,-0xc(%ebp)
80108901:	8b 45 f4             	mov    -0xc(%ebp),%eax
80108904:	8b 00                	mov    (%eax),%eax
80108906:	83 e0 01             	and    $0x1,%eax
80108909:	85 c0                	test   %eax,%eax
8010890b:	75 07                	jne    80108914 <uva2ka+0x2f>
8010890d:	b8 00 00 00 00       	mov    $0x0,%eax
80108912:	eb 22                	jmp    80108936 <uva2ka+0x51>
80108914:	8b 45 f4             	mov    -0xc(%ebp),%eax
80108917:	8b 00                	mov    (%eax),%eax
80108919:	83 e0 04             	and    $0x4,%eax
8010891c:	85 c0                	test   %eax,%eax
8010891e:	75 07                	jne    80108927 <uva2ka+0x42>
80108920:	b8 00 00 00 00       	mov    $0x0,%eax
80108925:	eb 0f                	jmp    80108936 <uva2ka+0x51>
80108927:	8b 45 f4             	mov    -0xc(%ebp),%eax
8010892a:	8b 00                	mov    (%eax),%eax
8010892c:	25 00 f0 ff ff       	and    $0xfffff000,%eax
80108931:	05 00 00 00 80       	add    $0x80000000,%eax
80108936:	c9                   	leave  
80108937:	c3                   	ret    

80108938 <copyout>:
80108938:	55                   	push   %ebp
80108939:	89 e5                	mov    %esp,%ebp
8010893b:	83 ec 18             	sub    $0x18,%esp
8010893e:	8b 45 10             	mov    0x10(%ebp),%eax
80108941:	89 45 f4             	mov    %eax,-0xc(%ebp)
80108944:	eb 7f                	jmp    801089c5 <copyout+0x8d>
80108946:	8b 45 0c             	mov    0xc(%ebp),%eax
80108949:	25 00 f0 ff ff       	and    $0xfffff000,%eax
8010894e:	89 45 ec             	mov    %eax,-0x14(%ebp)
80108951:	8b 45 ec             	mov    -0x14(%ebp),%eax
80108954:	83 ec 08             	sub    $0x8,%esp
80108957:	50                   	push   %eax
80108958:	ff 75 08             	pushl  0x8(%ebp)
8010895b:	e8 85 ff ff ff       	call   801088e5 <uva2ka>
80108960:	83 c4 10             	add    $0x10,%esp
80108963:	89 45 e8             	mov    %eax,-0x18(%ebp)
80108966:	83 7d e8 00          	cmpl   $0x0,-0x18(%ebp)
8010896a:	75 07                	jne    80108973 <copyout+0x3b>
8010896c:	b8 ff ff ff ff       	mov    $0xffffffff,%eax
80108971:	eb 61                	jmp    801089d4 <copyout+0x9c>
80108973:	8b 45 ec             	mov    -0x14(%ebp),%eax
80108976:	2b 45 0c             	sub    0xc(%ebp),%eax
80108979:	05 00 10 00 00       	add    $0x1000,%eax
8010897e:	89 45 f0             	mov    %eax,-0x10(%ebp)
80108981:	8b 45 f0             	mov    -0x10(%ebp),%eax
80108984:	3b 45 14             	cmp    0x14(%ebp),%eax
80108987:	76 06                	jbe    8010898f <copyout+0x57>
80108989:	8b 45 14             	mov    0x14(%ebp),%eax
8010898c:	89 45 f0             	mov    %eax,-0x10(%ebp)
8010898f:	8b 45 0c             	mov    0xc(%ebp),%eax
80108992:	2b 45 ec             	sub    -0x14(%ebp),%eax
80108995:	89 c2                	mov    %eax,%edx
80108997:	8b 45 e8             	mov    -0x18(%ebp),%eax
8010899a:	01 d0                	add    %edx,%eax
8010899c:	83 ec 04             	sub    $0x4,%esp
8010899f:	ff 75 f0             	pushl  -0x10(%ebp)
801089a2:	ff 75 f4             	pushl  -0xc(%ebp)
801089a5:	50                   	push   %eax
801089a6:	e8 06 ce ff ff       	call   801057b1 <memmove>
801089ab:	83 c4 10             	add    $0x10,%esp
801089ae:	8b 45 f0             	mov    -0x10(%ebp),%eax
801089b1:	29 45 14             	sub    %eax,0x14(%ebp)
801089b4:	8b 45 f0             	mov    -0x10(%ebp),%eax
801089b7:	01 45 f4             	add    %eax,-0xc(%ebp)
801089ba:	8b 45 ec             	mov    -0x14(%ebp),%eax
801089bd:	05 00 10 00 00       	add    $0x1000,%eax
801089c2:	89 45 0c             	mov    %eax,0xc(%ebp)
801089c5:	83 7d 14 00          	cmpl   $0x0,0x14(%ebp)
801089c9:	0f 85 77 ff ff ff    	jne    80108946 <copyout+0xe>
801089cf:	b8 00 00 00 00       	mov    $0x0,%eax
801089d4:	c9                   	leave  
801089d5:	c3                   	ret    

801089d6 <cas>:
801089d6:	55                   	push   %ebp
801089d7:	89 e5                	mov    %esp,%ebp
801089d9:	53                   	push   %ebx
801089da:	83 ec 10             	sub    $0x10,%esp
801089dd:	8b 45 0c             	mov    0xc(%ebp),%eax
801089e0:	8b 55 08             	mov    0x8(%ebp),%edx
801089e3:	8b 5d 10             	mov    0x10(%ebp),%ebx
801089e6:	89 d1                	mov    %edx,%ecx
801089e8:	f0 0f b1 19          	lock cmpxchg %ebx,(%ecx)
801089ec:	9c                   	pushf  
801089ed:	58                   	pop    %eax
801089ee:	89 45 f8             	mov    %eax,-0x8(%ebp)
801089f1:	8b 45 f8             	mov    -0x8(%ebp),%eax
801089f4:	83 e0 40             	and    $0x40,%eax
801089f7:	89 45 f8             	mov    %eax,-0x8(%ebp)
801089fa:	8b 45 f8             	mov    -0x8(%ebp),%eax
801089fd:	c1 f8 06             	sar    $0x6,%eax
80108a00:	89 45 f8             	mov    %eax,-0x8(%ebp)
80108a03:	8b 45 f8             	mov    -0x8(%ebp),%eax
80108a06:	83 c4 10             	add    $0x10,%esp
80108a09:	5b                   	pop    %ebx
80108a0a:	5d                   	pop    %ebp
80108a0b:	c3                   	ret    

80108a0c <printTF>:
80108a0c:	55                   	push   %ebp
80108a0d:	89 e5                	mov    %esp,%ebp
80108a0f:	57                   	push   %edi
80108a10:	56                   	push   %esi
80108a11:	53                   	push   %ebx
80108a12:	83 ec 1c             	sub    $0x1c,%esp
80108a15:	8b 45 08             	mov    0x8(%ebp),%eax
80108a18:	8b 40 08             	mov    0x8(%eax),%eax
80108a1b:	89 45 e4             	mov    %eax,-0x1c(%ebp)
80108a1e:	8b 45 08             	mov    0x8(%ebp),%eax
80108a21:	8b 78 44             	mov    0x44(%eax),%edi
80108a24:	8b 45 08             	mov    0x8(%ebp),%eax
80108a27:	8b 70 14             	mov    0x14(%eax),%esi
80108a2a:	8b 45 08             	mov    0x8(%ebp),%eax
80108a2d:	8b 58 18             	mov    0x18(%eax),%ebx
80108a30:	8b 45 08             	mov    0x8(%ebp),%eax
80108a33:	8b 48 10             	mov    0x10(%eax),%ecx
80108a36:	8b 45 08             	mov    0x8(%ebp),%eax
80108a39:	8b 50 1c             	mov    0x1c(%eax),%edx
80108a3c:	8b 45 08             	mov    0x8(%ebp),%eax
80108a3f:	8b 40 38             	mov    0x38(%eax),%eax
80108a42:	ff 75 e4             	pushl  -0x1c(%ebp)
80108a45:	57                   	push   %edi
80108a46:	56                   	push   %esi
80108a47:	53                   	push   %ebx
80108a48:	51                   	push   %ecx
80108a49:	52                   	push   %edx
80108a4a:	50                   	push   %eax
80108a4b:	68 44 95 10 80       	push   $0x80109544
80108a50:	e8 ab 79 ff ff       	call   80100400 <cprintf>
80108a55:	83 c4 20             	add    $0x20,%esp
80108a58:	83 ec 0c             	sub    $0xc,%esp
80108a5b:	68 86 95 10 80       	push   $0x80109586
80108a60:	e8 9b 79 ff ff       	call   80100400 <cprintf>
80108a65:	83 c4 10             	add    $0x10,%esp
80108a68:	90                   	nop
80108a69:	8d 65 f4             	lea    -0xc(%ebp),%esp
80108a6c:	5b                   	pop    %ebx
80108a6d:	5e                   	pop    %esi
80108a6e:	5f                   	pop    %edi
80108a6f:	5d                   	pop    %ebp
80108a70:	c3                   	ret    

80108a71 <copyTF>:
80108a71:	55                   	push   %ebp
80108a72:	89 e5                	mov    %esp,%ebp
80108a74:	83 ec 08             	sub    $0x8,%esp
80108a77:	83 ec 04             	sub    $0x4,%esp
80108a7a:	6a 4c                	push   $0x4c
80108a7c:	ff 75 0c             	pushl  0xc(%ebp)
80108a7f:	ff 75 08             	pushl  0x8(%ebp)
80108a82:	e8 2a cd ff ff       	call   801057b1 <memmove>
80108a87:	83 c4 10             	add    $0x10,%esp
80108a8a:	90                   	nop
80108a8b:	c9                   	leave  
80108a8c:	c3                   	ret    

80108a8d <getAllSignals>:
80108a8d:	55                   	push   %ebp
80108a8e:	89 e5                	mov    %esp,%ebp
80108a90:	83 ec 10             	sub    $0x10,%esp
80108a93:	c7 45 fc 00 00 00 00 	movl   $0x0,-0x4(%ebp)
80108a9a:	eb 25                	jmp    80108ac1 <getAllSignals+0x34>
80108a9c:	8b 45 fc             	mov    -0x4(%ebp),%eax
80108a9f:	8d 50 01             	lea    0x1(%eax),%edx
80108aa2:	89 55 fc             	mov    %edx,-0x4(%ebp)
80108aa5:	89 c2                	mov    %eax,%edx
80108aa7:	8b 45 0c             	mov    0xc(%ebp),%eax
80108aaa:	01 d0                	add    %edx,%eax
80108aac:	8b 55 08             	mov    0x8(%ebp),%edx
80108aaf:	83 e2 01             	and    $0x1,%edx
80108ab2:	85 d2                	test   %edx,%edx
80108ab4:	0f 95 c2             	setne  %dl
80108ab7:	88 10                	mov    %dl,(%eax)
80108ab9:	8b 45 08             	mov    0x8(%ebp),%eax
80108abc:	d1 e8                	shr    %eax
80108abe:	89 45 08             	mov    %eax,0x8(%ebp)
80108ac1:	83 7d 08 00          	cmpl   $0x0,0x8(%ebp)
80108ac5:	75 d5                	jne    80108a9c <getAllSignals+0xf>
80108ac7:	eb 13                	jmp    80108adc <getAllSignals+0x4f>
80108ac9:	8b 45 fc             	mov    -0x4(%ebp),%eax
80108acc:	8d 50 01             	lea    0x1(%eax),%edx
80108acf:	89 55 fc             	mov    %edx,-0x4(%ebp)
80108ad2:	89 c2                	mov    %eax,%edx
80108ad4:	8b 45 0c             	mov    0xc(%ebp),%eax
80108ad7:	01 d0                	add    %edx,%eax
80108ad9:	c6 00 00             	movb   $0x0,(%eax)
80108adc:	83 7d fc 1f          	cmpl   $0x1f,-0x4(%ebp)
80108ae0:	7e e7                	jle    80108ac9 <getAllSignals+0x3c>
80108ae2:	90                   	nop
80108ae3:	c9                   	leave  
80108ae4:	c3                   	ret    

80108ae5 <turnOffBit>:
80108ae5:	55                   	push   %ebp
80108ae6:	89 e5                	mov    %esp,%ebp
80108ae8:	83 ec 10             	sub    $0x10,%esp
80108aeb:	c7 45 f8 01 00 00 00 	movl   $0x1,-0x8(%ebp)
80108af2:	8b 45 08             	mov    0x8(%ebp),%eax
80108af5:	89 c1                	mov    %eax,%ecx
80108af7:	d3 65 f8             	shll   %cl,-0x8(%ebp)
80108afa:	f7 55 f8             	notl   -0x8(%ebp)
80108afd:	8b 45 0c             	mov    0xc(%ebp),%eax
80108b00:	8b 40 7c             	mov    0x7c(%eax),%eax
80108b03:	89 45 fc             	mov    %eax,-0x4(%ebp)
80108b06:	eb 09                	jmp    80108b11 <turnOffBit+0x2c>
80108b08:	8b 45 0c             	mov    0xc(%ebp),%eax
80108b0b:	8b 40 7c             	mov    0x7c(%eax),%eax
80108b0e:	89 45 fc             	mov    %eax,-0x4(%ebp)
80108b11:	8b 45 fc             	mov    -0x4(%ebp),%eax
80108b14:	23 45 f8             	and    -0x8(%ebp),%eax
80108b17:	8b 55 0c             	mov    0xc(%ebp),%edx
80108b1a:	83 c2 7c             	add    $0x7c,%edx
80108b1d:	50                   	push   %eax
80108b1e:	ff 75 fc             	pushl  -0x4(%ebp)
80108b21:	52                   	push   %edx
80108b22:	e8 af fe ff ff       	call   801089d6 <cas>
80108b27:	83 c4 0c             	add    $0xc,%esp
80108b2a:	85 c0                	test   %eax,%eax
80108b2c:	74 da                	je     80108b08 <turnOffBit+0x23>
80108b2e:	90                   	nop
80108b2f:	c9                   	leave  
80108b30:	c3                   	ret    

80108b31 <handleSignal>:
80108b31:	55                   	push   %ebp
80108b32:	89 e5                	mov    %esp,%ebp
80108b34:	83 ec 28             	sub    $0x28,%esp
80108b37:	e8 ca b7 ff ff       	call   80104306 <myproc>
80108b3c:	89 45 f0             	mov    %eax,-0x10(%ebp)
80108b3f:	83 7d f0 00          	cmpl   $0x0,-0x10(%ebp)
80108b43:	0f 84 0f 02 00 00    	je     80108d58 <handleSignal+0x227>
80108b49:	8b 45 08             	mov    0x8(%ebp),%eax
80108b4c:	0f b7 40 3c          	movzwl 0x3c(%eax),%eax
80108b50:	0f b7 c0             	movzwl %ax,%eax
80108b53:	83 e0 03             	and    $0x3,%eax
80108b56:	83 f8 03             	cmp    $0x3,%eax
80108b59:	0f 85 fc 01 00 00    	jne    80108d5b <handleSignal+0x22a>
80108b5f:	8b 45 f0             	mov    -0x10(%ebp),%eax
80108b62:	8b 80 10 01 00 00    	mov    0x110(%eax),%eax
80108b68:	85 c0                	test   %eax,%eax
80108b6a:	0f 85 ee 01 00 00    	jne    80108d5e <handleSignal+0x22d>
80108b70:	c7 45 f4 00 00 00 00 	movl   $0x0,-0xc(%ebp)
80108b77:	e9 d1 01 00 00       	jmp    80108d4d <handleSignal+0x21c>
80108b7c:	8b 45 f4             	mov    -0xc(%ebp),%eax
80108b7f:	ba 01 00 00 00       	mov    $0x1,%edx
80108b84:	89 c1                	mov    %eax,%ecx
80108b86:	d3 e2                	shl    %cl,%edx
80108b88:	89 d0                	mov    %edx,%eax
80108b8a:	89 c2                	mov    %eax,%edx
80108b8c:	8b 45 f0             	mov    -0x10(%ebp),%eax
80108b8f:	8b 40 7c             	mov    0x7c(%eax),%eax
80108b92:	21 d0                	and    %edx,%eax
80108b94:	85 c0                	test   %eax,%eax
80108b96:	0f 84 ad 01 00 00    	je     80108d49 <handleSignal+0x218>
80108b9c:	8b 45 f4             	mov    -0xc(%ebp),%eax
80108b9f:	ba 01 00 00 00       	mov    $0x1,%edx
80108ba4:	89 c1                	mov    %eax,%ecx
80108ba6:	d3 e2                	shl    %cl,%edx
80108ba8:	89 d0                	mov    %edx,%eax
80108baa:	89 c2                	mov    %eax,%edx
80108bac:	8b 45 f0             	mov    -0x10(%ebp),%eax
80108baf:	8b 80 80 00 00 00    	mov    0x80(%eax),%eax
80108bb5:	21 d0                	and    %edx,%eax
80108bb7:	85 c0                	test   %eax,%eax
80108bb9:	0f 85 8a 01 00 00    	jne    80108d49 <handleSignal+0x218>
80108bbf:	8b 45 f0             	mov    -0x10(%ebp),%eax
80108bc2:	8b 55 f4             	mov    -0xc(%ebp),%edx
80108bc5:	83 c2 20             	add    $0x20,%edx
80108bc8:	8b 44 90 0c          	mov    0xc(%eax,%edx,4),%eax
80108bcc:	83 f8 ff             	cmp    $0xffffffff,%eax
80108bcf:	75 53                	jne    80108c24 <handleSignal+0xf3>
80108bd1:	8b 45 f4             	mov    -0xc(%ebp),%eax
80108bd4:	83 f8 11             	cmp    $0x11,%eax
80108bd7:	74 11                	je     80108bea <handleSignal+0xb9>
80108bd9:	83 f8 13             	cmp    $0x13,%eax
80108bdc:	74 1a                	je     80108bf8 <handleSignal+0xc7>
80108bde:	83 f8 09             	cmp    $0x9,%eax
80108be1:	75 0e                	jne    80108bf1 <handleSignal+0xc0>
80108be3:	e8 e1 c4 ff ff       	call   801050c9 <handleKill>
80108be8:	eb 0f                	jmp    80108bf9 <handleSignal+0xc8>
80108bea:	e8 f9 c4 ff ff       	call   801050e8 <handleStop>
80108bef:	eb 08                	jmp    80108bf9 <handleSignal+0xc8>
80108bf1:	e8 d3 c4 ff ff       	call   801050c9 <handleKill>
80108bf6:	eb 01                	jmp    80108bf9 <handleSignal+0xc8>
80108bf8:	90                   	nop
80108bf9:	8b 45 f0             	mov    -0x10(%ebp),%eax
80108bfc:	8b 80 88 00 00 00    	mov    0x88(%eax),%eax
80108c02:	83 ec 0c             	sub    $0xc,%esp
80108c05:	50                   	push   %eax
80108c06:	e8 08 c6 ff ff       	call   80105213 <setSigMask>
80108c0b:	83 c4 10             	add    $0x10,%esp
80108c0e:	83 ec 08             	sub    $0x8,%esp
80108c11:	ff 75 f0             	pushl  -0x10(%ebp)
80108c14:	ff 75 f4             	pushl  -0xc(%ebp)
80108c17:	e8 c9 fe ff ff       	call   80108ae5 <turnOffBit>
80108c1c:	83 c4 10             	add    $0x10,%esp
80108c1f:	e9 25 01 00 00       	jmp    80108d49 <handleSignal+0x218>
80108c24:	8b 45 f0             	mov    -0x10(%ebp),%eax
80108c27:	8b 50 18             	mov    0x18(%eax),%edx
80108c2a:	8b 45 f0             	mov    -0x10(%ebp),%eax
80108c2d:	8b 80 0c 01 00 00    	mov    0x10c(%eax),%eax
80108c33:	83 ec 08             	sub    $0x8,%esp
80108c36:	52                   	push   %edx
80108c37:	50                   	push   %eax
80108c38:	e8 34 fe ff ff       	call   80108a71 <copyTF>
80108c3d:	83 c4 10             	add    $0x10,%esp
80108c40:	8b 45 f0             	mov    -0x10(%ebp),%eax
80108c43:	8b 40 18             	mov    0x18(%eax),%eax
80108c46:	8b 55 f0             	mov    -0x10(%ebp),%edx
80108c49:	8b 4d f4             	mov    -0xc(%ebp),%ecx
80108c4c:	83 c1 20             	add    $0x20,%ecx
80108c4f:	8b 54 8a 0c          	mov    0xc(%edx,%ecx,4),%edx
80108c53:	89 50 38             	mov    %edx,0x38(%eax)
80108c56:	8b 45 f4             	mov    -0xc(%ebp),%eax
80108c59:	89 45 e8             	mov    %eax,-0x18(%ebp)
80108c5c:	ba 3d 6c 10 80       	mov    $0x80106c3d,%edx
80108c61:	b8 36 6c 10 80       	mov    $0x80106c36,%eax
80108c66:	29 c2                	sub    %eax,%edx
80108c68:	89 d0                	mov    %edx,%eax
80108c6a:	89 45 ec             	mov    %eax,-0x14(%ebp)
80108c6d:	8b 45 f0             	mov    -0x10(%ebp),%eax
80108c70:	8b 40 18             	mov    0x18(%eax),%eax
80108c73:	8b 55 f0             	mov    -0x10(%ebp),%edx
80108c76:	8b 52 18             	mov    0x18(%edx),%edx
80108c79:	8b 52 44             	mov    0x44(%edx),%edx
80108c7c:	2b 55 ec             	sub    -0x14(%ebp),%edx
80108c7f:	89 50 44             	mov    %edx,0x44(%eax)
80108c82:	8b 45 f0             	mov    -0x10(%ebp),%eax
80108c85:	8b 40 18             	mov    0x18(%eax),%eax
80108c88:	8b 40 44             	mov    0x44(%eax),%eax
80108c8b:	83 ec 04             	sub    $0x4,%esp
80108c8e:	ff 75 ec             	pushl  -0x14(%ebp)
80108c91:	68 36 6c 10 80       	push   $0x80106c36
80108c96:	50                   	push   %eax
80108c97:	e8 15 cb ff ff       	call   801057b1 <memmove>
80108c9c:	83 c4 10             	add    $0x10,%esp
80108c9f:	8b 45 f0             	mov    -0x10(%ebp),%eax
80108ca2:	8b 40 18             	mov    0x18(%eax),%eax
80108ca5:	8b 40 44             	mov    0x44(%eax),%eax
80108ca8:	89 45 e4             	mov    %eax,-0x1c(%ebp)
80108cab:	90                   	nop
80108cac:	8b 45 f0             	mov    -0x10(%ebp),%eax
80108caf:	8b 40 18             	mov    0x18(%eax),%eax
80108cb2:	8b 50 44             	mov    0x44(%eax),%edx
80108cb5:	8d 4a ff             	lea    -0x1(%edx),%ecx
80108cb8:	89 48 44             	mov    %ecx,0x44(%eax)
80108cbb:	89 d0                	mov    %edx,%eax
80108cbd:	83 e0 03             	and    $0x3,%eax
80108cc0:	85 c0                	test   %eax,%eax
80108cc2:	75 e8                	jne    80108cac <handleSignal+0x17b>
80108cc4:	8b 45 f0             	mov    -0x10(%ebp),%eax
80108cc7:	8b 40 18             	mov    0x18(%eax),%eax
80108cca:	8b 55 f0             	mov    -0x10(%ebp),%edx
80108ccd:	8b 52 18             	mov    0x18(%edx),%edx
80108cd0:	8b 52 44             	mov    0x44(%edx),%edx
80108cd3:	83 ea 04             	sub    $0x4,%edx
80108cd6:	89 50 44             	mov    %edx,0x44(%eax)
80108cd9:	8b 45 f0             	mov    -0x10(%ebp),%eax
80108cdc:	8b 40 18             	mov    0x18(%eax),%eax
80108cdf:	8b 40 44             	mov    0x44(%eax),%eax
80108ce2:	89 c2                	mov    %eax,%edx
80108ce4:	83 ec 04             	sub    $0x4,%esp
80108ce7:	6a 04                	push   $0x4
80108ce9:	8d 45 e8             	lea    -0x18(%ebp),%eax
80108cec:	50                   	push   %eax
80108ced:	52                   	push   %edx
80108cee:	e8 be ca ff ff       	call   801057b1 <memmove>
80108cf3:	83 c4 10             	add    $0x10,%esp
80108cf6:	8b 45 f0             	mov    -0x10(%ebp),%eax
80108cf9:	8b 40 18             	mov    0x18(%eax),%eax
80108cfc:	8b 55 f0             	mov    -0x10(%ebp),%edx
80108cff:	8b 52 18             	mov    0x18(%edx),%edx
80108d02:	8b 52 44             	mov    0x44(%edx),%edx
80108d05:	83 ea 04             	sub    $0x4,%edx
80108d08:	89 50 44             	mov    %edx,0x44(%eax)
80108d0b:	8b 45 f0             	mov    -0x10(%ebp),%eax
80108d0e:	8b 40 18             	mov    0x18(%eax),%eax
80108d11:	8b 40 44             	mov    0x44(%eax),%eax
80108d14:	89 c2                	mov    %eax,%edx
80108d16:	83 ec 04             	sub    $0x4,%esp
80108d19:	6a 04                	push   $0x4
80108d1b:	8d 45 e4             	lea    -0x1c(%ebp),%eax
80108d1e:	50                   	push   %eax
80108d1f:	52                   	push   %edx
80108d20:	e8 8c ca ff ff       	call   801057b1 <memmove>
80108d25:	83 c4 10             	add    $0x10,%esp
80108d28:	83 ec 08             	sub    $0x8,%esp
80108d2b:	ff 75 f0             	pushl  -0x10(%ebp)
80108d2e:	ff 75 f4             	pushl  -0xc(%ebp)
80108d31:	e8 af fd ff ff       	call   80108ae5 <turnOffBit>
80108d36:	83 c4 10             	add    $0x10,%esp
80108d39:	8b 45 f0             	mov    -0x10(%ebp),%eax
80108d3c:	c7 80 10 01 00 00 01 	movl   $0x1,0x110(%eax)
80108d43:	00 00 00 
80108d46:	90                   	nop
80108d47:	eb 16                	jmp    80108d5f <handleSignal+0x22e>
80108d49:	83 45 f4 01          	addl   $0x1,-0xc(%ebp)
80108d4d:	83 7d f4 1f          	cmpl   $0x1f,-0xc(%ebp)
80108d51:	0f 8e 25 fe ff ff    	jle    80108b7c <handleSignal+0x4b>
80108d57:	90                   	nop
80108d58:	90                   	nop
80108d59:	eb 04                	jmp    80108d5f <handleSignal+0x22e>
80108d5b:	90                   	nop
80108d5c:	eb 01                	jmp    80108d5f <handleSignal+0x22e>
80108d5e:	90                   	nop
80108d5f:	c9                   	leave  
80108d60:	c3                   	ret    
